ARM GAS  C:\Users\ccheney\AppData\Local\Temp\cc75Za53.s 			page 1


   1              		.syntax unified
   2              		.cpu cortex-m0
   3              		.fpu softvfp
   4              		.eabi_attribute 20, 1
   5              		.eabi_attribute 21, 1
   6              		.eabi_attribute 23, 3
   7              		.eabi_attribute 24, 1
   8              		.eabi_attribute 25, 1
   9              		.eabi_attribute 26, 1
  10              		.eabi_attribute 30, 1
  11              		.eabi_attribute 34, 0
  12              		.eabi_attribute 18, 4
  13              		.thumb
  14              		.syntax unified
  15              		.file	"main.c"
  16              		.text
  17              	.Ltext0:
  18              		.cfi_sections	.debug_frame
  19              		.section	.text.main,"ax",%progbits
  20              		.align	2
  21              		.global	main
  22              		.code	16
  23              		.thumb_func
  24              		.type	main, %function
  25              	main:
  26              	.LFB36:
  27              		.file 1 "main.c"
   1:main.c        **** /***************************************************************************
   2:main.c        **** *                                 MICA  © 2018
   3:main.c        **** *                           MIT BioInstrumentation Lab
   4:main.c        **** *
   5:main.c        **** * File: main.c
   6:main.c        **** * Workspace: DriveBot_v5
   7:main.c        **** * Project: DriveBot_v5.1
   8:main.c        **** * Version: v5.1.0
   9:main.c        **** * Authors: Craig Cheney, Scott McCuen
  10:main.c        **** * 
  11:main.c        **** * PCB: DriveBot MCU v5.1.0
  12:main.c        **** * PSoC: CY8C4245LQI-483
  13:main.c        **** *
  14:main.c        **** * Brief:
  15:main.c        **** *   This is the top-level application file for the DriveBot microcontoller. It
  16:main.c        **** *   is responsible for receiving commands from the IMU Cube over the UART, and 
  17:main.c        **** *   controlling the Drivebot based on these commands. It outputs the velocity
  18:main.c        **** *   data to IMU, which streams it to the host device. 
  19:main.c        **** * 
  20:main.c        **** * 2018.07.25 CC - Abstract out "boardTesting.c"
  21:main.c        **** * 2018.04.10 CC - Upgrade to v5. Switch to MICA Creator components from libMica
  22:main.c        **** * 2017.08.25 CC - Add libMica
  23:main.c        **** * 2017.08.13 SM - Add motor debugging
  24:main.c        **** * 2017.08.11 CC - Document Created
  25:main.c        **** ********************************************************************************/
  26:main.c        **** #include "project.h"
  27:main.c        **** #include <stdbool.h>
  28:main.c        **** #include <stdio.h>
  29:main.c        **** #include "packet_testing.h"
  30:main.c        **** #include "testRunner.h"
ARM GAS  C:\Users\ccheney\AppData\Local\Temp\cc75Za53.s 			page 2


  31:main.c        **** 
  32:main.c        **** /*  -------------- DEBUGGING --------------
  33:main.c        **** * Uncomment MICA_DEBUG to enable general debugging.
  34:main.c        **** * Uncomment MICA_DEBUG_<case> below to
  35:main.c        **** * enable ONE of the debug levels.
  36:main.c        **** */
  37:main.c        **** //#define MICA_DEBUG
  38:main.c        **** 
  39:main.c        **** /* -------------- DEBUG CASE --------------
  40:main.c        **** * Uncomment ONE of the following
  41:main.c        **** * Debugging will only occur when MICA_DEBUG is defined
  42:main.c        **** */
  43:main.c        **** #ifdef MICA_DEBUG
  44:main.c        **** #endif
  45:main.c        **** 
  46:main.c        **** /* -------------- END DEBUG CASE --------------  */
  47:main.c        **** 
  48:main.c        **** /*  -------------- Testing --------------
  49:main.c        **** * Uncomment MICA_TEST to enable specific tests.
  50:main.c        **** * Uncomment MICA_TEST_<case> below to
  51:main.c        **** * enable ONE of the test levels. */
  52:main.c        **** 
  53:main.c        **** #define MICA_TEST
  54:main.c        **** 
  55:main.c        **** /* -------------- TEST LEVEL --------------
  56:main.c        **** * Uncomment ONE of the following
  57:main.c        **** * Testing will only occur when MICA_TEST is defined
  58:main.c        **** */
  59:main.c        **** #ifdef MICA_TEST
  60:main.c        ****     #define MICA_TEST_PACKETS_ERRORS       /* Test various error on packts */
  61:main.c        **** //    #define MICA_TEST_PACKETS           /* Test Packet communication */
  62:main.c        **** //    #define MICA_TEST_PACKETS_ISR        /* Receive packets from IMU via interrupt and print resu
  63:main.c        **** #endif
  64:main.c        **** /* -------------- END TEST LEVEL --------------  */
  65:main.c        **** 
  66:main.c        **** /* --------- Local Variables --------- */
  67:main.c        **** 
  68:main.c        **** void ISR_imuUart(void);
  69:main.c        **** void ISR_Timer(void);
  70:main.c        **** /* State variables */
  71:main.c        **** volatile bool flag_pendingRxByte = false;
  72:main.c        **** volatile bool timerExpired = false;
  73:main.c        **** /*******************************************************************************
  74:main.c        **** * Function Name: main()
  75:main.c        **** ********************************************************************************
  76:main.c        **** * Summary:
  77:main.c        **** *   The top-level application function for the project.
  78:main.c        **** *
  79:main.c        **** * Parameters:
  80:main.c        **** *   None
  81:main.c        **** *
  82:main.c        **** * Return:
  83:main.c        **** *   None
  84:main.c        **** *
  85:main.c        **** *******************************************************************************/
  86:main.c        **** int main(void) {
  28              		.loc 1 86 0
ARM GAS  C:\Users\ccheney\AppData\Local\Temp\cc75Za53.s 			page 3


  29              		.cfi_startproc
  30              		@ args = 0, pretend = 0, frame = 176
  31              		@ frame_needed = 0, uses_anonymous_args = 0
  32 0000 F0B5     		push	{r4, r5, r6, r7, lr}
  33              		.cfi_def_cfa_offset 20
  34              		.cfi_offset 4, -20
  35              		.cfi_offset 5, -16
  36              		.cfi_offset 6, -12
  37              		.cfi_offset 7, -8
  38              		.cfi_offset 14, -4
  39 0002 5F46     		mov	r7, fp
  40 0004 5646     		mov	r6, r10
  41 0006 4D46     		mov	r5, r9
  42 0008 4446     		mov	r4, r8
  43 000a F0B4     		push	{r4, r5, r6, r7}
  44              		.cfi_def_cfa_offset 36
  45              		.cfi_offset 8, -36
  46              		.cfi_offset 9, -32
  47              		.cfi_offset 10, -28
  48              		.cfi_offset 11, -24
  49 000c AFB0     		sub	sp, sp, #188
  50              		.cfi_def_cfa_offset 224
  87:main.c        **** 
  88:main.c        **** 
  89:main.c        ****     /* Enable global interrupts */
  90:main.c        ****     CyGlobalIntEnable;
  51              		.loc 1 90 0
  52              		.syntax divided
  53              	@ 90 "main.c" 1
  54 000e 62B6     		CPSIE   i
  55              	@ 0 "" 2
  91:main.c        ****     
  92:main.c        **** /* %%%%%%%%%%%%%%%%%% Begin Debugging %%%%%%%%%%%%%%%%%% */
  93:main.c        **** #ifdef MICA_DEBUG
  94:main.c        ****  
  95:main.c        **** #endif /* MICA_DEBUG */
  96:main.c        **** #ifdef MICA_TEST
  97:main.c        ****     /* end MICA_TEST_PACKET_SPAWN */
  98:main.c        ****         #if defined MICA_TEST_PACKETS_ERRORS
  99:main.c        ****         /* Unit tests for MICA Errors */
 100:main.c        ****         LEDS_Write(LEDS_ON_GREEN);
  56              		.loc 1 100 0
  57              		.thumb
  58              		.syntax unified
  59 0010 0220     		movs	r0, #2
  60 0012 FFF7FEFF 		bl	LEDS_Write
  61              	.LVL0:
 101:main.c        ****         UART_USB_Start();
  62              		.loc 1 101 0
  63 0016 FFF7FEFF 		bl	UART_USB_Start
  64              	.LVL1:
 102:main.c        ****         usbUart_clearScreen();
  65              		.loc 1 102 0
  66 001a FD48     		ldr	r0, .L4
  67 001c FFF7FEFF 		bl	usbUart_print
  68              	.LVL2:
 103:main.c        **** 
ARM GAS  C:\Users\ccheney\AppData\Local\Temp\cc75Za53.s 			page 4


 104:main.c        ****         /* Print Program Header */
 105:main.c        ****         usbUart_printHeader(__TIME__, __DATE__, "      PACKET TESTING UNIT TESTS ");
  69              		.loc 1 105 0
  70 0020 FC4A     		ldr	r2, .L4+4
  71 0022 FD49     		ldr	r1, .L4+8
  72 0024 FD48     		ldr	r0, .L4+12
  73 0026 FFF7FEFF 		bl	usbUart_printHeader
  74              	.LVL3:
 106:main.c        ****         /* Set the Print function */
 107:main.c        ****         testRunner_setPrintFunction(usbUart_print);
  75              		.loc 1 107 0
  76 002a FD48     		ldr	r0, .L4+16
  77 002c FFF7FEFF 		bl	testRunner_setPrintFunction
  78              	.LVL4:
  79              	.LBB2:
 108:main.c        ****         
 109:main.c        ****         /* ### Buffer Generate Test Suite ### */
 110:main.c        ****         {
 111:main.c        ****             /* Create a packet object and initialize */
 112:main.c        ****             packets_BUFFER_FULL_S packetBuffer;
 113:main.c        ****             packets_initialize(&packetBuffer);
  80              		.loc 1 113 0
  81 0030 1CAC     		add	r4, sp, #112
  82 0032 2000     		movs	r0, r4
  83 0034 FFF7FEFF 		bl	packets_initialize
  84              	.LVL5:
 114:main.c        ****             usbUart_print("\r\n*** Buffer generation ***\r\n");
  85              		.loc 1 114 0
  86 0038 FA48     		ldr	r0, .L4+20
  87 003a FFF7FEFF 		bl	usbUart_print
  88              	.LVL6:
 115:main.c        ****             /* Nominal Case */
 116:main.c        ****             testRunner_run(test_generateBuffers(&packetBuffer, "Normal", packets_LEN_BLOCK_PACKET, 
  89              		.loc 1 116 0
  90 003e FA4E     		ldr	r6, .L4+24
  91 0040 0023     		movs	r3, #0
  92 0042 8C22     		movs	r2, #140
  93 0044 3100     		movs	r1, r6
  94 0046 2000     		movs	r0, r4
  95 0048 FFF7FEFF 		bl	test_generateBuffers
  96              	.LVL7:
  97 004c FFF7FEFF 		bl	testRunner_run
  98              	.LVL8:
 117:main.c        ****             /* Long test */
 118:main.c        ****             testRunner_run(test_generateBuffers(&packetBuffer, "Long", 1000, packets_ERR_MEMORY));
  99              		.loc 1 118 0
 100 0050 FA25     		movs	r5, #250
 101 0052 AD00     		lsls	r5, r5, #2
 102 0054 0123     		movs	r3, #1
 103 0056 2A00     		movs	r2, r5
 104 0058 F449     		ldr	r1, .L4+28
 105 005a 2000     		movs	r0, r4
 106 005c FFF7FEFF 		bl	test_generateBuffers
 107              	.LVL9:
 108 0060 FFF7FEFF 		bl	testRunner_run
 109              	.LVL10:
 119:main.c        ****             /* Multiple create */
ARM GAS  C:\Users\ccheney\AppData\Local\Temp\cc75Za53.s 			page 5


 120:main.c        ****             packets_generateBuffers(&packetBuffer, 10);
 110              		.loc 1 120 0
 111 0064 0A21     		movs	r1, #10
 112 0066 2000     		movs	r0, r4
 113 0068 FFF7FEFF 		bl	packets_generateBuffers
 114              	.LVL11:
 121:main.c        ****             testRunner_run(test_generateBuffers(&packetBuffer, "Multiple Create", 10, packets_ERR_S
 115              		.loc 1 121 0
 116 006c 8023     		movs	r3, #128
 117 006e DB00     		lsls	r3, r3, #3
 118 0070 9846     		mov	r8, r3
 119 0072 0A22     		movs	r2, #10
 120 0074 EE49     		ldr	r1, .L4+32
 121 0076 2000     		movs	r0, r4
 122 0078 FFF7FEFF 		bl	test_generateBuffers
 123              	.LVL12:
 124 007c FFF7FEFF 		bl	testRunner_run
 125              	.LVL13:
 122:main.c        ****             
 123:main.c        ****             /* Clean Up */
 124:main.c        ****             packets_destoryBuffers(&packetBuffer);
 126              		.loc 1 124 0
 127 0080 2000     		movs	r0, r4
 128 0082 FFF7FEFF 		bl	packets_destoryBuffers
 129              	.LVL14:
 130              	.LBE2:
 131              	.LBB3:
 125:main.c        ****         }
 126:main.c        ****         
 127:main.c        ****         /* ### Buffer Destroy Test Suite ### */
 128:main.c        ****         {
 129:main.c        ****             /* Create a packet object and initialize */
 130:main.c        ****             packets_BUFFER_FULL_S packetBuffer;
 131:main.c        ****             packets_initialize(&packetBuffer);
 132              		.loc 1 131 0
 133 0086 2000     		movs	r0, r4
 134 0088 FFF7FEFF 		bl	packets_initialize
 135              	.LVL15:
 132:main.c        ****             usbUart_print("\r\n*** Buffer Destruction ***\r\n");
 136              		.loc 1 132 0
 137 008c E948     		ldr	r0, .L4+36
 138 008e FFF7FEFF 		bl	usbUart_print
 139              	.LVL16:
 133:main.c        ****             /* Buffer not generated */
 134:main.c        ****             testRunner_run( test_destroyBuffers(&packetBuffer, "Non-generated", packets_ERR_MEMORY)
 140              		.loc 1 134 0
 141 0092 0122     		movs	r2, #1
 142 0094 E849     		ldr	r1, .L4+40
 143 0096 2000     		movs	r0, r4
 144 0098 FFF7FEFF 		bl	test_destroyBuffers
 145              	.LVL17:
 146 009c FFF7FEFF 		bl	testRunner_run
 147              	.LVL18:
 135:main.c        ****             /* Normal packet */
 136:main.c        ****             packets_generateBuffers(&packetBuffer, packets_LEN_BLOCK_PACKET);
 148              		.loc 1 136 0
 149 00a0 8C21     		movs	r1, #140
ARM GAS  C:\Users\ccheney\AppData\Local\Temp\cc75Za53.s 			page 6


 150 00a2 2000     		movs	r0, r4
 151 00a4 FFF7FEFF 		bl	packets_generateBuffers
 152              	.LVL19:
 137:main.c        ****             testRunner_run(test_destroyBuffers(&packetBuffer, "Normal", packets_ERR_SUCCESS));
 153              		.loc 1 137 0
 154 00a8 0022     		movs	r2, #0
 155 00aa 3100     		movs	r1, r6
 156 00ac 2000     		movs	r0, r4
 157 00ae FFF7FEFF 		bl	test_destroyBuffers
 158              	.LVL20:
 159 00b2 FFF7FEFF 		bl	testRunner_run
 160              	.LVL21:
 138:main.c        ****             /* Too long buffer */
 139:main.c        ****             packets_generateBuffers(&packetBuffer, 2000);
 161              		.loc 1 139 0
 162 00b6 FA21     		movs	r1, #250
 163 00b8 C900     		lsls	r1, r1, #3
 164 00ba 2000     		movs	r0, r4
 165 00bc FFF7FEFF 		bl	packets_generateBuffers
 166              	.LVL22:
 140:main.c        ****             testRunner_run(test_destroyBuffers(&packetBuffer, "Failed Gen", packets_ERR_MEMORY));
 167              		.loc 1 140 0
 168 00c0 0122     		movs	r2, #1
 169 00c2 DE49     		ldr	r1, .L4+44
 170 00c4 2000     		movs	r0, r4
 171 00c6 FFF7FEFF 		bl	test_destroyBuffers
 172              	.LVL23:
 173 00ca FFF7FEFF 		bl	testRunner_run
 174              	.LVL24:
 141:main.c        ****             /* Multiple destroy */
 142:main.c        ****             packets_generateBuffers(&packetBuffer, 10);
 175              		.loc 1 142 0
 176 00ce 0A21     		movs	r1, #10
 177 00d0 2000     		movs	r0, r4
 178 00d2 FFF7FEFF 		bl	packets_generateBuffers
 179              	.LVL25:
 143:main.c        ****             packets_destoryBuffers(&packetBuffer);
 180              		.loc 1 143 0
 181 00d6 2000     		movs	r0, r4
 182 00d8 FFF7FEFF 		bl	packets_destoryBuffers
 183              	.LVL26:
 144:main.c        ****             testRunner_run(test_destroyBuffers(&packetBuffer, "Multiple destroy", packets_ERR_MEMOR
 184              		.loc 1 144 0
 185 00dc 0122     		movs	r2, #1
 186 00de D849     		ldr	r1, .L4+48
 187 00e0 2000     		movs	r0, r4
 188 00e2 FFF7FEFF 		bl	test_destroyBuffers
 189              	.LVL27:
 190 00e6 FFF7FEFF 		bl	testRunner_run
 191              	.LVL28:
 145:main.c        ****             
 146:main.c        ****             /* Clean Up (Uncessary, here for consistency */
 147:main.c        ****             packets_destoryBuffers(&packetBuffer);
 192              		.loc 1 147 0
 193 00ea 2000     		movs	r0, r4
 194 00ec FFF7FEFF 		bl	packets_destoryBuffers
 195              	.LVL29:
ARM GAS  C:\Users\ccheney\AppData\Local\Temp\cc75Za53.s 			page 7


 196              	.LBE3:
 197              	.LBB4:
 148:main.c        ****         }
 149:main.c        ****         
 150:main.c        ****         /* ### Memory leak testing ### */
 151:main.c        ****         {
 152:main.c        ****             usbUart_print("\r\n*** Memroy Leak Generation ***\r\n");
 198              		.loc 1 152 0
 199 00f0 D448     		ldr	r0, .L4+52
 200 00f2 FFF7FEFF 		bl	usbUart_print
 201              	.LVL30:
 153:main.c        ****             packets_BUFFER_FULL_S packetBuffer;
 154:main.c        ****             packets_initialize(&packetBuffer);
 202              		.loc 1 154 0
 203 00f6 2000     		movs	r0, r4
 204 00f8 FFF7FEFF 		bl	packets_initialize
 205              	.LVL31:
 155:main.c        ****             testRunner_run(test_generateBuffers_iteration(&packetBuffer,"Repeat Generations", 1000)
 206              		.loc 1 155 0
 207 00fc 2A00     		movs	r2, r5
 208 00fe D249     		ldr	r1, .L4+56
 209 0100 2000     		movs	r0, r4
 210 0102 FFF7FEFF 		bl	test_generateBuffers_iteration
 211              	.LVL32:
 212 0106 FFF7FEFF 		bl	testRunner_run
 213              	.LVL33:
 214              	.LBE4:
 215              	.LBB5:
 156:main.c        ****         }
 157:main.c        ****         
 158:main.c        ****         
 159:main.c        ****         /* ### Packet Creation Test Suite - State Errors ### */
 160:main.c        ****         {
 161:main.c        ****             usbUart_print("\r\n*** Construct Packet Test Suite - State Errors ***\r\n");
 216              		.loc 1 161 0
 217 010a D048     		ldr	r0, .L4+60
 218 010c FFF7FEFF 		bl	usbUart_print
 219              	.LVL34:
 162:main.c        ****             /* Create a packet object and initialize */
 163:main.c        ****             packets_BUFFER_FULL_S packetBuffer;
 164:main.c        ****             packets_initialize(&packetBuffer);
 220              		.loc 1 164 0
 221 0110 2000     		movs	r0, r4
 222 0112 FFF7FEFF 		bl	packets_initialize
 223              	.LVL35:
 165:main.c        ****             packets_generateBuffers(&packetBuffer, packets_LEN_BLOCK_PACKET);
 224              		.loc 1 165 0
 225 0116 8C21     		movs	r1, #140
 226 0118 2000     		movs	r0, r4
 227 011a FFF7FEFF 		bl	packets_generateBuffers
 228              	.LVL36:
 166:main.c        ****             /* Local reference to sending buffer */
 167:main.c        ****             packets_PACKET_S* sendPacket = &(packetBuffer.send.packet); 
 168:main.c        ****             /* Define dummy data */
 169:main.c        ****             #define DATA_LEN 0x03
 170:main.c        ****             uint8 dummyData[DATA_LEN] = {0x01, 0x03, 0x05};
 229              		.loc 1 170 0
ARM GAS  C:\Users\ccheney\AppData\Local\Temp\cc75Za53.s 			page 8


 230 011e 17AD     		add	r5, sp, #92
 231 0120 CB4E     		ldr	r6, .L4+64
 232 0122 0327     		movs	r7, #3
 233 0124 0322     		movs	r2, #3
 234 0126 3100     		movs	r1, r6
 235 0128 2800     		movs	r0, r5
 236 012a FFF7FEFF 		bl	memcpy
 237              	.LVL37:
 171:main.c        ****             sendPacket->moduleId = 5;
 238              		.loc 1 171 0
 239 012e 0523     		movs	r3, #5
 240 0130 2370     		strb	r3, [r4]
 172:main.c        ****             sendPacket->cmd = 0xCC;
 241              		.loc 1 172 0
 242 0132 CC23     		movs	r3, #204
 243 0134 9946     		mov	r9, r3
 244 0136 6370     		strb	r3, [r4, #1]
 173:main.c        ****             sendPacket->payload = dummyData;
 245              		.loc 1 173 0
 246 0138 6560     		str	r5, [r4, #4]
 174:main.c        ****             sendPacket->payloadLen = DATA_LEN;
 247              		.loc 1 174 0
 248 013a 6781     		strh	r7, [r4, #10]
 175:main.c        ****             /* Simple working packet */
 176:main.c        ****             testRunner_run(test_packetCreation_stateErrors(&packetBuffer, "Basic Packet", packets_E
 249              		.loc 1 176 0
 250 013c 0022     		movs	r2, #0
 251 013e C549     		ldr	r1, .L4+68
 252 0140 2000     		movs	r0, r4
 253 0142 FFF7FEFF 		bl	test_packetCreation_stateErrors
 254              	.LVL38:
 255 0146 FFF7FEFF 		bl	testRunner_run
 256              	.LVL39:
 177:main.c        ****             /* Incorrect module ID */
 178:main.c        ****             sendPacket->moduleId = 10;
 257              		.loc 1 178 0
 258 014a 0A23     		movs	r3, #10
 259 014c 2370     		strb	r3, [r4]
 179:main.c        ****             testRunner_run(test_packetCreation_stateErrors(&packetBuffer, "Module ID: 10", packets_
 260              		.loc 1 179 0
 261 014e 4022     		movs	r2, #64
 262 0150 C149     		ldr	r1, .L4+72
 263 0152 2000     		movs	r0, r4
 264 0154 FFF7FEFF 		bl	test_packetCreation_stateErrors
 265              	.LVL40:
 266 0158 FFF7FEFF 		bl	testRunner_run
 267              	.LVL41:
 180:main.c        ****             /* Module ID 0 */
 181:main.c        ****             sendPacket->moduleId = 0;
 268              		.loc 1 181 0
 269 015c 0023     		movs	r3, #0
 270 015e 2370     		strb	r3, [r4]
 182:main.c        ****             testRunner_run(test_packetCreation_stateErrors(&packetBuffer, "Module ID: 0", packets_E
 271              		.loc 1 182 0
 272 0160 0022     		movs	r2, #0
 273 0162 BE49     		ldr	r1, .L4+76
 274 0164 2000     		movs	r0, r4
ARM GAS  C:\Users\ccheney\AppData\Local\Temp\cc75Za53.s 			page 9


 275 0166 FFF7FEFF 		bl	test_packetCreation_stateErrors
 276              	.LVL42:
 277 016a FFF7FEFF 		bl	testRunner_run
 278              	.LVL43:
 183:main.c        ****             /* No Payload */
 184:main.c        ****             sendPacket->moduleId = 1;
 279              		.loc 1 184 0
 280 016e 0123     		movs	r3, #1
 281 0170 9B46     		mov	fp, r3
 282 0172 9A46     		mov	r10, r3
 283 0174 2370     		strb	r3, [r4]
 185:main.c        ****             sendPacket->payloadLen = ZERO;
 284              		.loc 1 185 0
 285 0176 0023     		movs	r3, #0
 286 0178 6381     		strh	r3, [r4, #10]
 186:main.c        ****             testRunner_run(test_packetCreation_stateErrors(&packetBuffer, "No Payload", packets_ERR
 287              		.loc 1 186 0
 288 017a 0022     		movs	r2, #0
 289 017c B849     		ldr	r1, .L4+80
 290 017e 2000     		movs	r0, r4
 291 0180 FFF7FEFF 		bl	test_packetCreation_stateErrors
 292              	.LVL44:
 293 0184 FFF7FEFF 		bl	testRunner_run
 294              	.LVL45:
 187:main.c        ****             /* Long Packet - no memory */
 188:main.c        ****             sendPacket->payloadLen = packets_LEN_BLOCK_PACKET + 1;
 295              		.loc 1 188 0
 296 0188 8D23     		movs	r3, #141
 297 018a 6381     		strh	r3, [r4, #10]
 189:main.c        ****             testRunner_run(test_packetCreation_stateErrors(&packetBuffer, "Long Payload - no memory
 298              		.loc 1 189 0
 299 018c 0122     		movs	r2, #1
 300 018e B549     		ldr	r1, .L4+84
 301 0190 2000     		movs	r0, r4
 302 0192 FFF7FEFF 		bl	test_packetCreation_stateErrors
 303              	.LVL46:
 304 0196 FFF7FEFF 		bl	testRunner_run
 305              	.LVL47:
 190:main.c        ****             /* Long Packet - max payload, and memory */
 191:main.c        ****             sendPacket->payloadLen = 1024;
 306              		.loc 1 191 0
 307 019a 4346     		mov	r3, r8
 308 019c 6381     		strh	r3, [r4, #10]
 192:main.c        ****             testRunner_run(test_packetCreation_stateErrors(&packetBuffer, "Long Payload - max paylo
 309              		.loc 1 192 0
 310 019e 0922     		movs	r2, #9
 311 01a0 B149     		ldr	r1, .L4+88
 312 01a2 2000     		movs	r0, r4
 313 01a4 FFF7FEFF 		bl	test_packetCreation_stateErrors
 314              	.LVL48:
 315 01a8 FFF7FEFF 		bl	testRunner_run
 316              	.LVL49:
 193:main.c        ****             
 194:main.c        ****             /* Clean Up */
 195:main.c        ****             packets_destoryBuffers(&packetBuffer);
 317              		.loc 1 195 0
 318 01ac 2000     		movs	r0, r4
ARM GAS  C:\Users\ccheney\AppData\Local\Temp\cc75Za53.s 			page 10


 319 01ae FFF7FEFF 		bl	packets_destoryBuffers
 320              	.LVL50:
 321              	.LBE5:
 322              	.LBB6:
 196:main.c        ****         }
 197:main.c        ****         
 198:main.c        ****         /* ### Packet Creation Test Suite - Packet Values ### */
 199:main.c        ****         {
 200:main.c        ****             usbUart_print("\r\n*** Construct Packet Test Suite - Packet Values ***\r\n");
 323              		.loc 1 200 0
 324 01b2 AE48     		ldr	r0, .L4+92
 325 01b4 FFF7FEFF 		bl	usbUart_print
 326              	.LVL51:
 201:main.c        ****             /* Create a packet object and initialize */
 202:main.c        ****             packets_BUFFER_FULL_S packetBuffer;
 203:main.c        ****             packets_initialize(&packetBuffer);
 327              		.loc 1 203 0
 328 01b8 2000     		movs	r0, r4
 329 01ba FFF7FEFF 		bl	packets_initialize
 330              	.LVL52:
 204:main.c        ****             packets_generateBuffers(&packetBuffer, packets_LEN_BLOCK_PACKET);
 331              		.loc 1 204 0
 332 01be 8C21     		movs	r1, #140
 333 01c0 2000     		movs	r0, r4
 334 01c2 FFF7FEFF 		bl	packets_generateBuffers
 335              	.LVL53:
 205:main.c        ****             /* Local reference to sending buffer */
 206:main.c        ****             packets_PACKET_S* sendPacket = &(packetBuffer.send.packet); 
 207:main.c        ****             /* Define valid dummy data */
 208:main.c        ****             #define DATA_LEN 0x03
 209:main.c        ****             uint8 dummyData[DATA_LEN] = {0x01, 0x03, 0x05};
 336              		.loc 1 209 0
 337 01c6 0322     		movs	r2, #3
 338 01c8 3100     		movs	r1, r6
 339 01ca 06A8     		add	r0, sp, #24
 340 01cc FFF7FEFF 		bl	memcpy
 341              	.LVL54:
 210:main.c        ****             sendPacket->moduleId = 5;
 342              		.loc 1 210 0
 343 01d0 0523     		movs	r3, #5
 344 01d2 2370     		strb	r3, [r4]
 211:main.c        ****             sendPacket->cmd = 0xCC;
 345              		.loc 1 211 0
 346 01d4 4B46     		mov	r3, r9
 347 01d6 6370     		strb	r3, [r4, #1]
 212:main.c        ****             sendPacket->payload = dummyData;
 348              		.loc 1 212 0
 349 01d8 06AB     		add	r3, sp, #24
 350 01da 6360     		str	r3, [r4, #4]
 213:main.c        ****             sendPacket->payloadLen = DATA_LEN;
 351              		.loc 1 213 0
 352 01dc 6781     		strh	r7, [r4, #10]
 214:main.c        ****             /* Simple working packet */
 215:main.c        ****             uint8 validPacket[15] = {0x01, 0x05, 0xCC, 0x00, 0x03, 0x01, 0x03, 0x05, 0x00, 0x00, 0x
 353              		.loc 1 215 0
 354 01de 311D     		adds	r1, r6, #4
 355 01e0 0F22     		movs	r2, #15
ARM GAS  C:\Users\ccheney\AppData\Local\Temp\cc75Za53.s 			page 11


 356 01e2 0AA8     		add	r0, sp, #40
 357 01e4 FFF7FEFF 		bl	memcpy
 358              	.LVL55:
 216:main.c        ****             testRunner_run(test_packetCreation_packetVals(&packetBuffer, "Simple Packet", validPack
 359              		.loc 1 216 0
 360 01e8 0AAA     		add	r2, sp, #40
 361 01ea A149     		ldr	r1, .L4+96
 362 01ec 2000     		movs	r0, r4
 363 01ee FFF7FEFF 		bl	test_packetCreation_packetVals
 364              	.LVL56:
 365 01f2 FFF7FEFF 		bl	testRunner_run
 366              	.LVL57:
 217:main.c        ****             /* No payload */
 218:main.c        ****             sendPacket->payloadLen = ZERO;
 367              		.loc 1 218 0
 368 01f6 0023     		movs	r3, #0
 369 01f8 6381     		strh	r3, [r4, #10]
 219:main.c        ****             uint8 noPayloadPacket[15] = {0x01, 0x05, 0xCC, 0x00, 0x00, 0x00, 0x00, 0x00, 0x00, 0xFF
 370              		.loc 1 219 0
 371 01fa 0EAF     		add	r7, sp, #56
 372 01fc 0F22     		movs	r2, #15
 373 01fe 0021     		movs	r1, #0
 374 0200 3800     		movs	r0, r7
 375 0202 FFF7FEFF 		bl	memset
 376              	.LVL58:
 377 0206 5B46     		mov	r3, fp
 378 0208 3B70     		strb	r3, [r7]
 379 020a 0523     		movs	r3, #5
 380 020c 7B70     		strb	r3, [r7, #1]
 381 020e 4B46     		mov	r3, r9
 382 0210 BB70     		strb	r3, [r7, #2]
 383 0212 FF23     		movs	r3, #255
 384 0214 9846     		mov	r8, r3
 385 0216 7B72     		strb	r3, [r7, #9]
 386 0218 2E23     		movs	r3, #46
 387 021a BB72     		strb	r3, [r7, #10]
 388 021c AA23     		movs	r3, #170
 389 021e FB72     		strb	r3, [r7, #11]
 220:main.c        ****             testRunner_run(test_packetCreation_packetVals(&packetBuffer, "No payload", noPayloadPac
 390              		.loc 1 220 0
 391 0220 3A00     		movs	r2, r7
 392 0222 9449     		ldr	r1, .L4+100
 393 0224 2000     		movs	r0, r4
 394 0226 FFF7FEFF 		bl	test_packetCreation_packetVals
 395              	.LVL59:
 396 022a FFF7FEFF 		bl	testRunner_run
 397              	.LVL60:
 221:main.c        ****             /* Reponse Flags */
 222:main.c        ****             sendPacket->flags = packets_FLAG_RESP;
 398              		.loc 1 222 0
 399 022e 5B46     		mov	r3, fp
 400 0230 E360     		str	r3, [r4, #12]
 223:main.c        ****             uint8 respFlagPacket[15] = {0x01, 0x05, 0xCC, 0x00, 0x00, 0x00, 0x00, 0x00, 0x01, 0xFF,
 401              		.loc 1 223 0
 402 0232 12AE     		add	r6, sp, #72
 403 0234 0F22     		movs	r2, #15
 404 0236 0021     		movs	r1, #0
ARM GAS  C:\Users\ccheney\AppData\Local\Temp\cc75Za53.s 			page 12


 405 0238 3000     		movs	r0, r6
 406 023a FFF7FEFF 		bl	memset
 407              	.LVL61:
 408 023e 5B46     		mov	r3, fp
 409 0240 3370     		strb	r3, [r6]
 410 0242 0523     		movs	r3, #5
 411 0244 7370     		strb	r3, [r6, #1]
 412 0246 4B46     		mov	r3, r9
 413 0248 B370     		strb	r3, [r6, #2]
 414 024a 5B46     		mov	r3, fp
 415 024c 3372     		strb	r3, [r6, #8]
 416 024e 4346     		mov	r3, r8
 417 0250 7372     		strb	r3, [r6, #9]
 418 0252 2D23     		movs	r3, #45
 419 0254 B372     		strb	r3, [r6, #10]
 420 0256 AA23     		movs	r3, #170
 421 0258 F372     		strb	r3, [r6, #11]
 224:main.c        ****             testRunner_run(test_packetCreation_packetVals(&packetBuffer, "Response Flag", respFlagP
 422              		.loc 1 224 0
 423 025a 3200     		movs	r2, r6
 424 025c 8649     		ldr	r1, .L4+104
 425 025e 2000     		movs	r0, r4
 426 0260 FFF7FEFF 		bl	test_packetCreation_packetVals
 427              	.LVL62:
 428 0264 FFF7FEFF 		bl	testRunner_run
 429              	.LVL63:
 225:main.c        ****             /* Response and payload */
 226:main.c        ****             sendPacket->payloadLen = 1;
 430              		.loc 1 226 0
 431 0268 5B46     		mov	r3, fp
 432 026a 6381     		strh	r3, [r4, #10]
 227:main.c        ****             dummyData[0] = 0xFF;
 433              		.loc 1 227 0
 434 026c 6B46     		mov	r3, sp
 435 026e 4246     		mov	r2, r8
 436 0270 1A76     		strb	r2, [r3, #24]
 228:main.c        ****             sendPacket->flags = packets_FLAG_RESP;
 437              		.loc 1 228 0
 438 0272 5B46     		mov	r3, fp
 439 0274 E360     		str	r3, [r4, #12]
 229:main.c        ****             uint8 respFlagPacket2[15] = {0x01, 0x05, 0xCC, 0x00, 0x01, 0xFF, 0x00, 0x00, 0x00, 0x01
 440              		.loc 1 229 0
 441 0276 0F22     		movs	r2, #15
 442 0278 0021     		movs	r1, #0
 443 027a 2800     		movs	r0, r5
 444 027c FFF7FEFF 		bl	memset
 445              	.LVL64:
 446 0280 0123     		movs	r3, #1
 447 0282 2B70     		strb	r3, [r5]
 448 0284 0523     		movs	r3, #5
 449 0286 6B70     		strb	r3, [r5, #1]
 450 0288 4B46     		mov	r3, r9
 451 028a AB70     		strb	r3, [r5, #2]
 452 028c 5B46     		mov	r3, fp
 453 028e 2B71     		strb	r3, [r5, #4]
 454 0290 4346     		mov	r3, r8
 455 0292 6B71     		strb	r3, [r5, #5]
ARM GAS  C:\Users\ccheney\AppData\Local\Temp\cc75Za53.s 			page 13


 456 0294 5B46     		mov	r3, fp
 457 0296 6B72     		strb	r3, [r5, #9]
 458 0298 FE23     		movs	r3, #254
 459 029a AB72     		strb	r3, [r5, #10]
 460 029c D13B     		subs	r3, r3, #209
 461 029e EB72     		strb	r3, [r5, #11]
 462 02a0 AA23     		movs	r3, #170
 463 02a2 2B73     		strb	r3, [r5, #12]
 230:main.c        ****             testRunner_run(test_packetCreation_packetVals(&packetBuffer, "Response Flag 2", respFla
 464              		.loc 1 230 0
 465 02a4 2A00     		movs	r2, r5
 466 02a6 7549     		ldr	r1, .L4+108
 467 02a8 2000     		movs	r0, r4
 468 02aa FFF7FEFF 		bl	test_packetCreation_packetVals
 469              	.LVL65:
 470 02ae FFF7FEFF 		bl	testRunner_run
 471              	.LVL66:
 231:main.c        ****             
 232:main.c        ****             /* Clean Up */
 233:main.c        ****             packets_destoryBuffers(&packetBuffer);
 472              		.loc 1 233 0
 473 02b2 2000     		movs	r0, r4
 474 02b4 FFF7FEFF 		bl	packets_destoryBuffers
 475              	.LVL67:
 476              	.LBE6:
 477              	.LBB7:
 234:main.c        ****         }
 235:main.c        ****         
 236:main.c        ****         /* ### Send Packet Test Suite ### */
 237:main.c        ****         {
 238:main.c        ****             usbUart_print("\r\n*** Send Packet ***\r\n");
 478              		.loc 1 238 0
 479 02b8 7148     		ldr	r0, .L4+112
 480 02ba FFF7FEFF 		bl	usbUart_print
 481              	.LVL68:
 239:main.c        ****             /* Setup - Create a packet object and initialize */
 240:main.c        ****             packets_BUFFER_FULL_S packetBuffer;
 241:main.c        ****             packets_initialize(&packetBuffer);
 482              		.loc 1 241 0
 483 02be 2000     		movs	r0, r4
 484 02c0 FFF7FEFF 		bl	packets_initialize
 485              	.LVL69:
 242:main.c        ****             packets_generateBuffers(&packetBuffer, packets_LEN_BLOCK_PACKET);
 486              		.loc 1 242 0
 487 02c4 8C21     		movs	r1, #140
 488 02c6 2000     		movs	r0, r4
 489 02c8 FFF7FEFF 		bl	packets_generateBuffers
 490              	.LVL70:
 243:main.c        ****             /* Basic Packet */
 244:main.c        ****             testRunner_run(test_sendPacket(&packetBuffer, "Send Basic Packet", packets_ERR_SUCCESS)
 491              		.loc 1 244 0
 492 02cc 0022     		movs	r2, #0
 493 02ce 6D49     		ldr	r1, .L4+116
 494 02d0 2000     		movs	r0, r4
 495 02d2 FFF7FEFF 		bl	test_sendPacket
 496              	.LVL71:
 497 02d6 FFF7FEFF 		bl	testRunner_run
ARM GAS  C:\Users\ccheney\AppData\Local\Temp\cc75Za53.s 			page 14


 498              	.LVL72:
 245:main.c        ****             testRunner_run(test_sendPacket(&packetBuffer, "Send Basic Packet 2", packets_ERR_SUCCES
 499              		.loc 1 245 0
 500 02da 0022     		movs	r2, #0
 501 02dc 6A49     		ldr	r1, .L4+120
 502 02de 2000     		movs	r0, r4
 503 02e0 FFF7FEFF 		bl	test_sendPacket
 504              	.LVL73:
 505 02e4 FFF7FEFF 		bl	testRunner_run
 506              	.LVL74:
 246:main.c        ****             
 247:main.c        ****         
 248:main.c        ****             /* Clean Up */
 249:main.c        ****             packets_destoryBuffers(&packetBuffer);
 507              		.loc 1 249 0
 508 02e8 2000     		movs	r0, r4
 509 02ea FFF7FEFF 		bl	packets_destoryBuffers
 510              	.LVL75:
 511              	.LBE7:
 512              	.LBB8:
 250:main.c        ****         }
 251:main.c        ****         
 252:main.c        ****         /* ### Process RX Byte Test Suite ### */
 253:main.c        ****         {
 254:main.c        ****             usbUart_print("\r\n*** Process RX Byte - State Errors ***\r\n");
 513              		.loc 1 254 0
 514 02ee 6748     		ldr	r0, .L4+124
 515 02f0 FFF7FEFF 		bl	usbUart_print
 516              	.LVL76:
 255:main.c        ****             /* Create a packet object and initialize */
 256:main.c        ****             packets_BUFFER_FULL_S packetBuffer;
 257:main.c        ****             packets_initialize(&packetBuffer);
 517              		.loc 1 257 0
 518 02f4 2000     		movs	r0, r4
 519 02f6 FFF7FEFF 		bl	packets_initialize
 520              	.LVL77:
 258:main.c        ****             /* No buffers generated */
 259:main.c        ****             uint8 bytes[1] = {packets_SYM_START};
 521              		.loc 1 259 0
 522 02fa 5B46     		mov	r3, fp
 523 02fc 2B70     		strb	r3, [r5]
 260:main.c        ****             testRunner_run(test_processRxByte_stateError(&packetBuffer, bytes, 1, "No Buffers", pac
 524              		.loc 1 260 0
 525 02fe 5B46     		mov	r3, fp
 526 0300 0093     		str	r3, [sp]
 527 0302 634B     		ldr	r3, .L4+128
 528 0304 0122     		movs	r2, #1
 529 0306 2900     		movs	r1, r5
 530 0308 2000     		movs	r0, r4
 531 030a FFF7FEFF 		bl	test_processRxByte_stateError
 532              	.LVL78:
 533 030e FFF7FEFF 		bl	testRunner_run
 534              	.LVL79:
 261:main.c        ****             /* Generate buffer */
 262:main.c        ****             packets_generateBuffers(&packetBuffer, 100);
 535              		.loc 1 262 0
 536 0312 6421     		movs	r1, #100
ARM GAS  C:\Users\ccheney\AppData\Local\Temp\cc75Za53.s 			page 15


 537 0314 2000     		movs	r0, r4
 538 0316 FFF7FEFF 		bl	packets_generateBuffers
 539              	.LVL80:
 263:main.c        ****             /* Buffer overflow */
 264:main.c        ****             packetBuffer.receive.processBuffer.bufferIndex = 100;
 540              		.loc 1 264 0
 541 031a 6423     		movs	r3, #100
 542 031c E387     		strh	r3, [r4, #62]
 265:main.c        ****             bytes[0] = packets_SYM_START;
 543              		.loc 1 265 0
 544 031e 5B46     		mov	r3, fp
 545 0320 2B70     		strb	r3, [r5]
 266:main.c        ****             testRunner_run(test_processRxByte_stateError(&packetBuffer, bytes, 1, "Buffer overflow"
 546              		.loc 1 266 0
 547 0322 5B46     		mov	r3, fp
 548 0324 0093     		str	r3, [sp]
 549 0326 5B4B     		ldr	r3, .L4+132
 550 0328 0122     		movs	r2, #1
 551 032a 2900     		movs	r1, r5
 552 032c 2000     		movs	r0, r4
 553 032e FFF7FEFF 		bl	test_processRxByte_stateError
 554              	.LVL81:
 555 0332 FFF7FEFF 		bl	testRunner_run
 556              	.LVL82:
 267:main.c        ****             /* Valid Start Byte */
 268:main.c        ****             bytes[0] = packets_SYM_START;
 557              		.loc 1 268 0
 558 0336 5B46     		mov	r3, fp
 559 0338 2B70     		strb	r3, [r5]
 269:main.c        ****             testRunner_run(test_processRxByte_stateError(&packetBuffer, bytes, 1, "Valid Start", pa
 560              		.loc 1 269 0
 561 033a 0023     		movs	r3, #0
 562 033c 0093     		str	r3, [sp]
 563 033e 564B     		ldr	r3, .L4+136
 564 0340 0122     		movs	r2, #1
 565 0342 2900     		movs	r1, r5
 566 0344 2000     		movs	r0, r4
 567 0346 FFF7FEFF 		bl	test_processRxByte_stateError
 568              	.LVL83:
 569 034a FFF7FEFF 		bl	testRunner_run
 570              	.LVL84:
 270:main.c        ****             /* Invalid Start Byte */
 271:main.c        ****             bytes[0] = packets_SYM_START + 1;
 571              		.loc 1 271 0
 572 034e 0223     		movs	r3, #2
 573 0350 9B46     		mov	fp, r3
 574 0352 2B70     		strb	r3, [r5]
 272:main.c        ****             testRunner_run(test_processRxByte_stateError(&packetBuffer, bytes, 1, "invalid Start", 
 575              		.loc 1 272 0
 576 0354 0093     		str	r3, [sp]
 577 0356 514B     		ldr	r3, .L4+140
 578 0358 0122     		movs	r2, #1
 579 035a 2900     		movs	r1, r5
 580 035c 2000     		movs	r0, r4
 581 035e FFF7FEFF 		bl	test_processRxByte_stateError
 582              	.LVL85:
 583 0362 FFF7FEFF 		bl	testRunner_run
ARM GAS  C:\Users\ccheney\AppData\Local\Temp\cc75Za53.s 			page 16


 584              	.LVL86:
 273:main.c        ****             
 274:main.c        ****             /* Clean up */
 275:main.c        ****             packets_destoryBuffers(&packetBuffer);
 585              		.loc 1 275 0
 586 0366 2000     		movs	r0, r4
 587 0368 FFF7FEFF 		bl	packets_destoryBuffers
 588              	.LVL87:
 589              	.LBE8:
 590              	.LBB9:
 276:main.c        ****         }
 277:main.c        ****         
 278:main.c        ****         
 279:main.c        ****         /* ### Packet parsing Test Suite - State Errors ### */
 280:main.c        ****         {
 281:main.c        ****             usbUart_print("\r\n*** Packet parsing - State Errors ***\r\n");
 591              		.loc 1 281 0
 592 036c 4C48     		ldr	r0, .L4+144
 593 036e FFF7FEFF 		bl	usbUart_print
 594              	.LVL88:
 282:main.c        ****             /* Setup - Create a packet object and initialize */
 283:main.c        ****             packets_BUFFER_FULL_S packetBuffer;
 284:main.c        ****             packets_initialize(&packetBuffer);
 595              		.loc 1 284 0
 596 0372 2000     		movs	r0, r4
 597 0374 FFF7FEFF 		bl	packets_initialize
 598              	.LVL89:
 285:main.c        ****             packets_generateBuffers(&packetBuffer, packets_LEN_BLOCK_PACKET);
 599              		.loc 1 285 0
 600 0378 8C21     		movs	r1, #140
 601 037a 2000     		movs	r0, r4
 602 037c FFF7FEFF 		bl	packets_generateBuffers
 603              	.LVL90:
 286:main.c        ****             /* Local references */
 287:main.c        ****             packets_BUFFER_PROCESS_S* txBuffer = &(packetBuffer.send.processBuffer);
 288:main.c        ****             /* No Payload, success */
 289:main.c        ****             uint8 noPayloadPacket[15] = {0x01, 0x05, 0xCC, 0x00, 0x00, 0x00, 0x00, 0x00, 0x00, 0xFF
 604              		.loc 1 289 0
 605 0380 0F22     		movs	r2, #15
 606 0382 0021     		movs	r1, #0
 607 0384 02A8     		add	r0, sp, #8
 608 0386 FFF7FEFF 		bl	memset
 609              	.LVL91:
 610 038a 6B46     		mov	r3, sp
 611 038c 5246     		mov	r2, r10
 612 038e 1A72     		strb	r2, [r3, #8]
 613 0390 0522     		movs	r2, #5
 614 0392 5A72     		strb	r2, [r3, #9]
 615 0394 4A46     		mov	r2, r9
 616 0396 9A72     		strb	r2, [r3, #10]
 617 0398 4246     		mov	r2, r8
 618 039a 5A74     		strb	r2, [r3, #17]
 619 039c 2E22     		movs	r2, #46
 620 039e 9A74     		strb	r2, [r3, #18]
 621 03a0 AA22     		movs	r2, #170
 622 03a2 DA74     		strb	r2, [r3, #19]
 290:main.c        ****             txBuffer->bufferIndex = 12;
ARM GAS  C:\Users\ccheney\AppData\Local\Temp\cc75Za53.s 			page 17


 623              		.loc 1 290 0
 624 03a4 0C23     		movs	r3, #12
 625 03a6 6383     		strh	r3, [r4, #26]
 291:main.c        ****             memcpy(txBuffer->buffer, noPayloadPacket, txBuffer->bufferIndex);
 626              		.loc 1 291 0
 627 03a8 0C22     		movs	r2, #12
 628 03aa 02A9     		add	r1, sp, #8
 629 03ac 6069     		ldr	r0, [r4, #20]
 630 03ae FFF7FEFF 		bl	memcpy
 631              	.LVL92:
 292:main.c        ****             testRunner_run(test_packetParsing_stateErrors(&packetBuffer, "Valid packet - no payload
 632              		.loc 1 292 0
 633 03b2 0022     		movs	r2, #0
 634 03b4 3B49     		ldr	r1, .L4+148
 635 03b6 2000     		movs	r0, r4
 636 03b8 FFF7FEFF 		bl	test_packetParsing_stateErrors
 637              	.LVL93:
 638 03bc FFF7FEFF 		bl	testRunner_run
 639              	.LVL94:
 293:main.c        ****             /* Success, payload */
 294:main.c        ****             uint8 basePacket[15] = {0x01, 0x05, 0xCC, 0x00, 0x02, 0xFF, 0xFF, 0x00, 0x00, 0x00, 0x0
 640              		.loc 1 294 0
 641 03c0 0F22     		movs	r2, #15
 642 03c2 0021     		movs	r1, #0
 643 03c4 06A8     		add	r0, sp, #24
 644 03c6 FFF7FEFF 		bl	memset
 645              	.LVL95:
 646 03ca 6B46     		mov	r3, sp
 647 03cc 5246     		mov	r2, r10
 648 03ce 1A76     		strb	r2, [r3, #24]
 649 03d0 0522     		movs	r2, #5
 650 03d2 5A76     		strb	r2, [r3, #25]
 651 03d4 4A46     		mov	r2, r9
 652 03d6 9A76     		strb	r2, [r3, #26]
 653 03d8 5A46     		mov	r2, fp
 654 03da 1A77     		strb	r2, [r3, #28]
 655 03dc 4246     		mov	r2, r8
 656 03de 5A77     		strb	r2, [r3, #29]
 657 03e0 9A77     		strb	r2, [r3, #30]
 658 03e2 2322     		movs	r2, #35
 659 03e4 9B18     		adds	r3, r3, r2
 660 03e6 DA32     		adds	r2, r2, #218
 661 03e8 1A70     		strb	r2, [r3]
 662 03ea 6B46     		mov	r3, sp
 663 03ec 2422     		movs	r2, #36
 664 03ee 9B18     		adds	r3, r3, r2
 665 03f0 0A32     		adds	r2, r2, #10
 666 03f2 1A70     		strb	r2, [r3]
 667 03f4 6B46     		mov	r3, sp
 668 03f6 2522     		movs	r2, #37
 669 03f8 9B18     		adds	r3, r3, r2
 670 03fa 8532     		adds	r2, r2, #133
 671 03fc 1A70     		strb	r2, [r3]
 295:main.c        ****             txBuffer->bufferIndex = 14;
 672              		.loc 1 295 0
 673 03fe 0E23     		movs	r3, #14
 674 0400 6383     		strh	r3, [r4, #26]
ARM GAS  C:\Users\ccheney\AppData\Local\Temp\cc75Za53.s 			page 18


 296:main.c        ****             memcpy(txBuffer->buffer, basePacket, txBuffer->bufferIndex);
 675              		.loc 1 296 0
 676 0402 0E22     		movs	r2, #14
 677 0404 06A9     		add	r1, sp, #24
 678 0406 6069     		ldr	r0, [r4, #20]
 679 0408 FFF7FEFF 		bl	memcpy
 680              	.LVL96:
 297:main.c        ****             testRunner_run(test_packetParsing_stateErrors(&packetBuffer, "Valid packet ", packets_E
 681              		.loc 1 297 0
 682 040c 0022     		movs	r2, #0
 683 040e 4BE0     		b	.L5
 684              	.L6:
 685              		.align	2
 686              	.L4:
 687 0410 00000000 		.word	.LC2
 688 0414 0C000000 		.word	.LC4
 689 0418 30000000 		.word	.LC6
 690 041c 3C000000 		.word	.LC8
 691 0420 00000000 		.word	usbUart_print
 692 0424 48000000 		.word	.LC11
 693 0428 68000000 		.word	.LC13
 694 042c 70000000 		.word	.LC15
 695 0430 78000000 		.word	.LC17
 696 0434 88000000 		.word	.LC19
 697 0438 A8000000 		.word	.LC21
 698 043c B8000000 		.word	.LC23
 699 0440 C4000000 		.word	.LC25
 700 0444 D8000000 		.word	.LC27
 701 0448 FC000000 		.word	.LC29
 702 044c 10010000 		.word	.LC31
 703 0450 00000000 		.word	.LANCHOR0
 704 0454 48010000 		.word	.LC34
 705 0458 58010000 		.word	.LC36
 706 045c 68010000 		.word	.LC38
 707 0460 78010000 		.word	.LC40
 708 0464 84010000 		.word	.LC42
 709 0468 A0010000 		.word	.LC44
 710 046c C4010000 		.word	.LC46
 711 0470 FC010000 		.word	.LC48
 712 0474 0C020000 		.word	.LC50
 713 0478 18020000 		.word	.LC52
 714 047c 28020000 		.word	.LC54
 715 0480 38020000 		.word	.LC56
 716 0484 50020000 		.word	.LC58
 717 0488 64020000 		.word	.LC60
 718 048c 78020000 		.word	.LC62
 719 0490 A4020000 		.word	.LC64
 720 0494 B0020000 		.word	.LC66
 721 0498 C0020000 		.word	.LC68
 722 049c CC020000 		.word	.LC70
 723 04a0 DC020000 		.word	.LC72
 724 04a4 08030000 		.word	.LC74
 725              	.L5:
 726 04a8 A249     		ldr	r1, .L7
 727 04aa 2000     		movs	r0, r4
 728 04ac FFF7FEFF 		bl	test_packetParsing_stateErrors
 729              	.LVL97:
ARM GAS  C:\Users\ccheney\AppData\Local\Temp\cc75Za53.s 			page 19


 730 04b0 FFF7FEFF 		bl	testRunner_run
 731              	.LVL98:
 298:main.c        ****             /* Incomplete packet */
 299:main.c        ****             txBuffer->bufferIndex = 11;
 732              		.loc 1 299 0
 733 04b4 0B23     		movs	r3, #11
 734 04b6 6383     		strh	r3, [r4, #26]
 300:main.c        ****             memcpy(txBuffer->buffer, noPayloadPacket,txBuffer->bufferIndex);
 735              		.loc 1 300 0
 736 04b8 0B22     		movs	r2, #11
 737 04ba 02A9     		add	r1, sp, #8
 738 04bc 6069     		ldr	r0, [r4, #20]
 739 04be FFF7FEFF 		bl	memcpy
 740              	.LVL99:
 301:main.c        ****             testRunner_run(test_packetParsing_stateErrors(&packetBuffer, "Short packet", packets_ER
 741              		.loc 1 301 0
 742 04c2 2022     		movs	r2, #32
 743 04c4 9C49     		ldr	r1, .L7+4
 744 04c6 2000     		movs	r0, r4
 745 04c8 FFF7FEFF 		bl	test_packetParsing_stateErrors
 746              	.LVL100:
 747 04cc FFF7FEFF 		bl	testRunner_run
 748              	.LVL101:
 302:main.c        ****             /* Invalid start symbol */
 303:main.c        ****             uint8 badStartPacket[15] = {0x02, 0x05, 0xCC, 0x00, 0x02, 0xFF, 0xFF, 0x00, 0x00, 0x00,
 749              		.loc 1 303 0
 750 04d0 0F22     		movs	r2, #15
 751 04d2 0021     		movs	r1, #0
 752 04d4 0AA8     		add	r0, sp, #40
 753 04d6 FFF7FEFF 		bl	memset
 754              	.LVL102:
 755 04da 6B46     		mov	r3, sp
 756 04dc 2822     		movs	r2, #40
 757 04de 9B18     		adds	r3, r3, r2
 758 04e0 5A46     		mov	r2, fp
 759 04e2 1A70     		strb	r2, [r3]
 760 04e4 6B46     		mov	r3, sp
 761 04e6 2922     		movs	r2, #41
 762 04e8 9B18     		adds	r3, r3, r2
 763 04ea 243A     		subs	r2, r2, #36
 764 04ec 1A70     		strb	r2, [r3]
 765 04ee 6B46     		mov	r3, sp
 766 04f0 2A22     		movs	r2, #42
 767 04f2 9B18     		adds	r3, r3, r2
 768 04f4 4A46     		mov	r2, r9
 769 04f6 1A70     		strb	r2, [r3]
 770 04f8 6B46     		mov	r3, sp
 771 04fa 2C22     		movs	r2, #44
 772 04fc 9B18     		adds	r3, r3, r2
 773 04fe 5A46     		mov	r2, fp
 774 0500 1A70     		strb	r2, [r3]
 775 0502 6B46     		mov	r3, sp
 776 0504 2D22     		movs	r2, #45
 777 0506 9B18     		adds	r3, r3, r2
 778 0508 4246     		mov	r2, r8
 779 050a 1A70     		strb	r2, [r3]
 780 050c 6B46     		mov	r3, sp
ARM GAS  C:\Users\ccheney\AppData\Local\Temp\cc75Za53.s 			page 20


 781 050e 2E22     		movs	r2, #46
 782 0510 9B18     		adds	r3, r3, r2
 783 0512 4246     		mov	r2, r8
 784 0514 1A70     		strb	r2, [r3]
 785 0516 6B46     		mov	r3, sp
 786 0518 3322     		movs	r2, #51
 787 051a 9B18     		adds	r3, r3, r2
 788 051c CA32     		adds	r2, r2, #202
 789 051e 1A70     		strb	r2, [r3]
 790 0520 6B46     		mov	r3, sp
 791 0522 3422     		movs	r2, #52
 792 0524 9B18     		adds	r3, r3, r2
 793 0526 063A     		subs	r2, r2, #6
 794 0528 1A70     		strb	r2, [r3]
 795 052a 6B46     		mov	r3, sp
 796 052c 3522     		movs	r2, #53
 797 052e 9B18     		adds	r3, r3, r2
 798 0530 7532     		adds	r2, r2, #117
 799 0532 1A70     		strb	r2, [r3]
 304:main.c        ****             txBuffer->bufferIndex = 14;
 800              		.loc 1 304 0
 801 0534 0E23     		movs	r3, #14
 802 0536 6383     		strh	r3, [r4, #26]
 305:main.c        ****             memcpy(txBuffer->buffer, badStartPacket, txBuffer->bufferIndex);
 803              		.loc 1 305 0
 804 0538 0E22     		movs	r2, #14
 805 053a 0AA9     		add	r1, sp, #40
 806 053c 6069     		ldr	r0, [r4, #20]
 807 053e FFF7FEFF 		bl	memcpy
 808              	.LVL103:
 306:main.c        ****             testRunner_run(test_packetParsing_stateErrors(&packetBuffer, "Invalid start sym", packe
 809              		.loc 1 306 0
 810 0542 0222     		movs	r2, #2
 811 0544 7D49     		ldr	r1, .L7+8
 812 0546 2000     		movs	r0, r4
 813 0548 FFF7FEFF 		bl	test_packetParsing_stateErrors
 814              	.LVL104:
 815 054c FFF7FEFF 		bl	testRunner_run
 816              	.LVL105:
 307:main.c        ****             /* Invalid module */
 308:main.c        ****             uint8 badModulePacket[15] = {0x01, 0x07, 0xCC, 0x00, 0x02, 0xFF, 0xFF, 0x00, 0x00, 0x00
 817              		.loc 1 308 0
 818 0550 0F22     		movs	r2, #15
 819 0552 0021     		movs	r1, #0
 820 0554 3800     		movs	r0, r7
 821 0556 FFF7FEFF 		bl	memset
 822              	.LVL106:
 823 055a 5346     		mov	r3, r10
 824 055c 3B70     		strb	r3, [r7]
 825 055e 0723     		movs	r3, #7
 826 0560 7B70     		strb	r3, [r7, #1]
 827 0562 4B46     		mov	r3, r9
 828 0564 BB70     		strb	r3, [r7, #2]
 829 0566 5B46     		mov	r3, fp
 830 0568 3B71     		strb	r3, [r7, #4]
 831 056a 4346     		mov	r3, r8
 832 056c 7B71     		strb	r3, [r7, #5]
ARM GAS  C:\Users\ccheney\AppData\Local\Temp\cc75Za53.s 			page 21


 833 056e BB71     		strb	r3, [r7, #6]
 834 0570 FD23     		movs	r3, #253
 835 0572 FB72     		strb	r3, [r7, #11]
 836 0574 2E23     		movs	r3, #46
 837 0576 3B73     		strb	r3, [r7, #12]
 838 0578 AA23     		movs	r3, #170
 839 057a 7B73     		strb	r3, [r7, #13]
 309:main.c        ****             txBuffer->bufferIndex = 14;
 840              		.loc 1 309 0
 841 057c 0E23     		movs	r3, #14
 842 057e 6383     		strh	r3, [r4, #26]
 310:main.c        ****             memcpy(txBuffer->buffer, badModulePacket, txBuffer->bufferIndex);
 843              		.loc 1 310 0
 844 0580 0E22     		movs	r2, #14
 845 0582 3900     		movs	r1, r7
 846 0584 6069     		ldr	r0, [r4, #20]
 847 0586 FFF7FEFF 		bl	memcpy
 848              	.LVL107:
 311:main.c        ****             testRunner_run(test_packetParsing_stateErrors(&packetBuffer, "Invalid Module", packets_
 849              		.loc 1 311 0
 850 058a 4022     		movs	r2, #64
 851 058c 6C49     		ldr	r1, .L7+12
 852 058e 2000     		movs	r0, r4
 853 0590 FFF7FEFF 		bl	test_packetParsing_stateErrors
 854              	.LVL108:
 855 0594 FFF7FEFF 		bl	testRunner_run
 856              	.LVL109:
 312:main.c        ****             /* Invalid Checksum */
 313:main.c        ****             uint8 badChecksumPacket[15] = {0x01, 0x05, 0xCC, 0x00, 0x02, 0xFF, 0xFF, 0x00, 0x00, 0x
 857              		.loc 1 313 0
 858 0598 0F22     		movs	r2, #15
 859 059a 0021     		movs	r1, #0
 860 059c 3000     		movs	r0, r6
 861 059e FFF7FEFF 		bl	memset
 862              	.LVL110:
 863 05a2 5346     		mov	r3, r10
 864 05a4 3370     		strb	r3, [r6]
 865 05a6 0523     		movs	r3, #5
 866 05a8 7370     		strb	r3, [r6, #1]
 867 05aa 4B46     		mov	r3, r9
 868 05ac B370     		strb	r3, [r6, #2]
 869 05ae 5B46     		mov	r3, fp
 870 05b0 3371     		strb	r3, [r6, #4]
 871 05b2 4346     		mov	r3, r8
 872 05b4 7371     		strb	r3, [r6, #5]
 873 05b6 B371     		strb	r3, [r6, #6]
 874 05b8 FD23     		movs	r3, #253
 875 05ba F372     		strb	r3, [r6, #11]
 876 05bc F023     		movs	r3, #240
 877 05be 3373     		strb	r3, [r6, #12]
 878 05c0 463B     		subs	r3, r3, #70
 879 05c2 7373     		strb	r3, [r6, #13]
 314:main.c        ****             txBuffer->bufferIndex = 14;
 880              		.loc 1 314 0
 881 05c4 0E23     		movs	r3, #14
 882 05c6 6383     		strh	r3, [r4, #26]
 315:main.c        ****             memcpy(txBuffer->buffer, badChecksumPacket, txBuffer->bufferIndex);
ARM GAS  C:\Users\ccheney\AppData\Local\Temp\cc75Za53.s 			page 22


 883              		.loc 1 315 0
 884 05c8 0E22     		movs	r2, #14
 885 05ca 3100     		movs	r1, r6
 886 05cc 6069     		ldr	r0, [r4, #20]
 887 05ce FFF7FEFF 		bl	memcpy
 888              	.LVL111:
 316:main.c        ****             testRunner_run(test_packetParsing_stateErrors(&packetBuffer, "Bad Checksum", packets_ER
 889              		.loc 1 316 0
 890 05d2 8022     		movs	r2, #128
 891 05d4 9200     		lsls	r2, r2, #2
 892 05d6 5B49     		ldr	r1, .L7+16
 893 05d8 2000     		movs	r0, r4
 894 05da FFF7FEFF 		bl	test_packetParsing_stateErrors
 895              	.LVL112:
 896 05de FFF7FEFF 		bl	testRunner_run
 897              	.LVL113:
 317:main.c        ****             /* Invalid End symbol */
 318:main.c        ****             uint8 badEndPacket[15] = {0x01, 0x05, 0xCC, 0x00, 0x02, 0xFF, 0xFF, 0x00, 0x00, 0x00, 0
 898              		.loc 1 318 0
 899 05e2 0F22     		movs	r2, #15
 900 05e4 0021     		movs	r1, #0
 901 05e6 2800     		movs	r0, r5
 902 05e8 FFF7FEFF 		bl	memset
 903              	.LVL114:
 904 05ec 17AC     		add	r4, sp, #92
 905              	.LVL115:
 906 05ee 0127     		movs	r7, #1
 907 05f0 2770     		strb	r7, [r4]
 908 05f2 0523     		movs	r3, #5
 909 05f4 9B46     		mov	fp, r3
 910 05f6 6370     		strb	r3, [r4, #1]
 911 05f8 CC23     		movs	r3, #204
 912 05fa 9A46     		mov	r10, r3
 913 05fc A370     		strb	r3, [r4, #2]
 914 05fe 0223     		movs	r3, #2
 915 0600 2371     		strb	r3, [r4, #4]
 916 0602 4346     		mov	r3, r8
 917 0604 6371     		strb	r3, [r4, #5]
 918 0606 A371     		strb	r3, [r4, #6]
 919 0608 FD23     		movs	r3, #253
 920 060a E372     		strb	r3, [r4, #11]
 921 060c 2E23     		movs	r3, #46
 922 060e 2373     		strb	r3, [r4, #12]
 923 0610 AB23     		movs	r3, #171
 924 0612 6373     		strb	r3, [r4, #13]
 319:main.c        ****             txBuffer->bufferIndex = 14;
 925              		.loc 1 319 0
 926 0614 1CAD     		add	r5, sp, #112
 927              	.LVL116:
 928 0616 9D3B     		subs	r3, r3, #157
 929 0618 6B83     		strh	r3, [r5, #26]
 320:main.c        ****             memcpy(txBuffer->buffer, badEndPacket, txBuffer->bufferIndex);
 930              		.loc 1 320 0
 931 061a 0E22     		movs	r2, #14
 932 061c 2100     		movs	r1, r4
 933 061e 2198     		ldr	r0, [sp, #132]
 934 0620 FFF7FEFF 		bl	memcpy
ARM GAS  C:\Users\ccheney\AppData\Local\Temp\cc75Za53.s 			page 23


 935              	.LVL117:
 321:main.c        ****             testRunner_run(test_packetParsing_stateErrors(&packetBuffer, "Invalid End Symbol", pack
 936              		.loc 1 321 0
 937 0624 0422     		movs	r2, #4
 938 0626 4849     		ldr	r1, .L7+20
 939 0628 2800     		movs	r0, r5
 940 062a FFF7FEFF 		bl	test_packetParsing_stateErrors
 941              	.LVL118:
 942 062e FFF7FEFF 		bl	testRunner_run
 943              	.LVL119:
 322:main.c        ****         
 323:main.c        ****             /* Clean up */
 324:main.c        ****             packets_destoryBuffers(&packetBuffer);
 944              		.loc 1 324 0
 945 0632 2800     		movs	r0, r5
 946 0634 FFF7FEFF 		bl	packets_destoryBuffers
 947              	.LVL120:
 948              	.LBE9:
 949              	.LBB10:
 325:main.c        ****         }
 326:main.c        ****         
 327:main.c        ****         
 328:main.c        ****         /* ### Packet parsing Test Suite - Packet vals ### */
 329:main.c        ****         {
 330:main.c        ****             usbUart_print("\r\n*** Packet parsing - Packet Values ***\r\n");
 950              		.loc 1 330 0
 951 0638 4448     		ldr	r0, .L7+24
 952 063a FFF7FEFF 		bl	usbUart_print
 953              	.LVL121:
 331:main.c        ****             /* Setup - Create a packet object and initialize */
 332:main.c        ****             packets_BUFFER_FULL_S packetBuffer1;
 333:main.c        ****             packets_initialize(&packetBuffer1);
 954              		.loc 1 333 0
 955 063e 2800     		movs	r0, r5
 956 0640 FFF7FEFF 		bl	packets_initialize
 957              	.LVL122:
 334:main.c        ****             packets_generateBuffers(&packetBuffer1, packets_LEN_BLOCK_PACKET);
 958              		.loc 1 334 0
 959 0644 8C21     		movs	r1, #140
 960 0646 2800     		movs	r0, r5
 961 0648 FFF7FEFF 		bl	packets_generateBuffers
 962              	.LVL123:
 335:main.c        ****             /* Local references */
 336:main.c        ****             packets_BUFFER_PROCESS_S* txBuffer = &(packetBuffer1.send.processBuffer);
 337:main.c        ****             /* No Payload, success */
 338:main.c        ****             uint8 noPayloadPacket[15] = {0x01, 0x05, 0xCC, 0x00, 0x00, 0x00, 0x00, 0x00, 0x00, 0xFF
 963              		.loc 1 338 0
 964 064c 02AE     		add	r6, sp, #8
 965 064e 0F22     		movs	r2, #15
 966 0650 0021     		movs	r1, #0
 967 0652 3000     		movs	r0, r6
 968 0654 FFF7FEFF 		bl	memset
 969              	.LVL124:
 970 0658 3770     		strb	r7, [r6]
 971 065a 5B46     		mov	r3, fp
 972 065c 7370     		strb	r3, [r6, #1]
 973 065e 5346     		mov	r3, r10
ARM GAS  C:\Users\ccheney\AppData\Local\Temp\cc75Za53.s 			page 24


 974 0660 B370     		strb	r3, [r6, #2]
 975 0662 4346     		mov	r3, r8
 976 0664 7372     		strb	r3, [r6, #9]
 977 0666 2E23     		movs	r3, #46
 978 0668 B372     		strb	r3, [r6, #10]
 979 066a AA23     		movs	r3, #170
 980 066c F372     		strb	r3, [r6, #11]
 339:main.c        ****             txBuffer->bufferIndex = 12;
 981              		.loc 1 339 0
 982 066e 0C23     		movs	r3, #12
 983 0670 6B83     		strh	r3, [r5, #26]
 340:main.c        ****             memcpy(txBuffer->buffer, noPayloadPacket, txBuffer->bufferIndex);
 984              		.loc 1 340 0
 985 0672 0C22     		movs	r2, #12
 986 0674 3100     		movs	r1, r6
 987 0676 6869     		ldr	r0, [r5, #20]
 988 0678 FFF7FEFF 		bl	memcpy
 989              	.LVL125:
 341:main.c        ****             uint8 payload[15];
 342:main.c        ****             packets_PACKET_S expectedPacket = {
 990              		.loc 1 342 0
 991 067c 12AA     		add	r2, sp, #72
 992 067e 5B46     		mov	r3, fp
 993 0680 1370     		strb	r3, [r2]
 994 0682 5346     		mov	r3, r10
 995 0684 5370     		strb	r3, [r2, #1]
 996 0686 06AB     		add	r3, sp, #24
 997 0688 5360     		str	r3, [r2, #4]
 998 068a 8C23     		movs	r3, #140
 999 068c 1381     		strh	r3, [r2, #8]
 1000 068e 0023     		movs	r3, #0
 1001 0690 9946     		mov	r9, r3
 1002 0692 5381     		strh	r3, [r2, #10]
 1003 0694 D360     		str	r3, [r2, #12]
 1004 0696 1361     		str	r3, [r2, #16]
 343:main.c        ****                 .moduleId = 0x05,
 344:main.c        ****                 .cmd = 0xCC,
 345:main.c        ****                 .payload = payload,
 346:main.c        ****                 .payloadLen = 0,
 347:main.c        ****                 .payloadMax = packets_LEN_BLOCK_PACKET,
 348:main.c        ****                 .flags = ZERO,
 349:main.c        ****                 .error = ZERO
 350:main.c        ****             };
 351:main.c        ****             testRunner_run(test_packetParsing_packetVals(&packetBuffer1, "No payload ", &expectedPa
 1005              		.loc 1 351 0
 1006 0698 2D49     		ldr	r1, .L7+28
 1007 069a 2800     		movs	r0, r5
 1008 069c FFF7FEFF 		bl	test_packetParsing_packetVals
 1009              	.LVL126:
 1010 06a0 FFF7FEFF 		bl	testRunner_run
 1011              	.LVL127:
 352:main.c        ****             
 353:main.c        ****             /* No Payload, success */
 354:main.c        ****             uint8 basePacket[15] = {0x01, 0x05, 0xCC, 0x00, 0x02, 0xFF, 0xFF, 0x00, 0x00, 0x00, 0x0
 1012              		.loc 1 354 0
 1013 06a4 0AAE     		add	r6, sp, #40
 1014 06a6 0F22     		movs	r2, #15
ARM GAS  C:\Users\ccheney\AppData\Local\Temp\cc75Za53.s 			page 25


 1015 06a8 0021     		movs	r1, #0
 1016 06aa 3000     		movs	r0, r6
 1017 06ac FFF7FEFF 		bl	memset
 1018              	.LVL128:
 1019 06b0 3770     		strb	r7, [r6]
 1020 06b2 5B46     		mov	r3, fp
 1021 06b4 7370     		strb	r3, [r6, #1]
 1022 06b6 5346     		mov	r3, r10
 1023 06b8 B370     		strb	r3, [r6, #2]
 1024 06ba 0223     		movs	r3, #2
 1025 06bc 3371     		strb	r3, [r6, #4]
 1026 06be 4346     		mov	r3, r8
 1027 06c0 7371     		strb	r3, [r6, #5]
 1028 06c2 B371     		strb	r3, [r6, #6]
 1029 06c4 FD23     		movs	r3, #253
 1030 06c6 F372     		strb	r3, [r6, #11]
 1031 06c8 2E23     		movs	r3, #46
 1032 06ca 3373     		strb	r3, [r6, #12]
 1033 06cc AA23     		movs	r3, #170
 1034 06ce 7373     		strb	r3, [r6, #13]
 355:main.c        ****             uint8 payload2[15] = {0xFF, 0xFF};
 1035              		.loc 1 355 0
 1036 06d0 0EAF     		add	r7, sp, #56
 1037 06d2 0F22     		movs	r2, #15
 1038 06d4 0021     		movs	r1, #0
 1039 06d6 3800     		movs	r0, r7
 1040 06d8 FFF7FEFF 		bl	memset
 1041              	.LVL129:
 1042 06dc 4346     		mov	r3, r8
 1043 06de 3B70     		strb	r3, [r7]
 1044 06e0 7B70     		strb	r3, [r7, #1]
 356:main.c        ****             
 357:main.c        ****             txBuffer->bufferIndex = 14;
 1045              		.loc 1 357 0
 1046 06e2 0E23     		movs	r3, #14
 1047 06e4 6B83     		strh	r3, [r5, #26]
 358:main.c        ****             memcpy(txBuffer->buffer, basePacket, txBuffer->bufferIndex);
 1048              		.loc 1 358 0
 1049 06e6 0E22     		movs	r2, #14
 1050 06e8 3100     		movs	r1, r6
 1051 06ea 6869     		ldr	r0, [r5, #20]
 1052 06ec FFF7FEFF 		bl	memcpy
 1053              	.LVL130:
 359:main.c        ****             packets_PACKET_S expectedPacket2 = {
 1054              		.loc 1 359 0
 1055 06f0 5B46     		mov	r3, fp
 1056 06f2 2370     		strb	r3, [r4]
 1057 06f4 5346     		mov	r3, r10
 1058 06f6 6370     		strb	r3, [r4, #1]
 1059 06f8 6760     		str	r7, [r4, #4]
 1060 06fa 8C23     		movs	r3, #140
 1061 06fc 2381     		strh	r3, [r4, #8]
 1062 06fe 0223     		movs	r3, #2
 1063 0700 6381     		strh	r3, [r4, #10]
 1064 0702 4B46     		mov	r3, r9
 1065 0704 E360     		str	r3, [r4, #12]
 1066 0706 2361     		str	r3, [r4, #16]
ARM GAS  C:\Users\ccheney\AppData\Local\Temp\cc75Za53.s 			page 26


 360:main.c        ****                 .moduleId = 0x05,
 361:main.c        ****                 .cmd = 0xCC,
 362:main.c        ****                 .payload = payload2,
 363:main.c        ****                 .payloadLen = 2,
 364:main.c        ****                 .payloadMax = packets_LEN_BLOCK_PACKET,
 365:main.c        ****                 .flags = ZERO,
 366:main.c        ****                 .error = ZERO
 367:main.c        ****             };
 368:main.c        ****             testRunner_run(test_packetParsing_packetVals(&packetBuffer1, "Payload payload ", &expec
 1067              		.loc 1 368 0
 1068 0708 2200     		movs	r2, r4
 1069 070a 1249     		ldr	r1, .L7+32
 1070 070c 2800     		movs	r0, r5
 1071 070e FFF7FEFF 		bl	test_packetParsing_packetVals
 1072              	.LVL131:
 1073 0712 FFF7FEFF 		bl	testRunner_run
 1074              	.LVL132:
 369:main.c        ****             /* Clean up */
 370:main.c        ****             packets_destoryBuffers(&packetBuffer1);
 1075              		.loc 1 370 0
 1076 0716 2800     		movs	r0, r5
 1077 0718 FFF7FEFF 		bl	packets_destoryBuffers
 1078              	.LVL133:
 1079              	.LBE10:
 371:main.c        ****         }
 372:main.c        ****         
 373:main.c        ****         /* Display test suite results */
 374:main.c        ****         testRunner_printCount();
 1080              		.loc 1 374 0
 1081 071c FFF7FEFF 		bl	testRunner_printCount
 1082              	.LVL134:
 375:main.c        **** 
 376:main.c        ****         /* Enable the button */
 377:main.c        ****         usbUart_print("Press any key to re-run tests\r\n");
 1083              		.loc 1 377 0
 1084 0720 0D48     		ldr	r0, .L7+36
 1085 0722 FFF7FEFF 		bl	usbUart_print
 1086              	.LVL135:
 1087              	.L2:
 378:main.c        ****         /* Infinite loop */
 379:main.c        ****         for(;;) {
 380:main.c        ****             /* Reset on buton press */
 381:main.c        ****             if(usbUart_getChar()){
 1088              		.loc 1 381 0
 1089 0726 FFF7FEFF 		bl	UART_USB_UartGetChar
 1090              	.LVL136:
 1091 072a 0028     		cmp	r0, #0
 1092 072c FBD0     		beq	.L2
 382:main.c        ****                 /*Reset the device*/
 383:main.c        ****                 CySoftwareReset();   
 1093              		.loc 1 383 0
 1094 072e FFF7FEFF 		bl	CySoftwareReset
 1095              	.LVL137:
 1096 0732 F8E7     		b	.L2
 1097              	.L8:
 1098              		.align	2
 1099              	.L7:
ARM GAS  C:\Users\ccheney\AppData\Local\Temp\cc75Za53.s 			page 27


 1100 0734 24030000 		.word	.LC76
 1101 0738 34030000 		.word	.LC78
 1102 073c 44030000 		.word	.LC80
 1103 0740 58030000 		.word	.LC82
 1104 0744 68030000 		.word	.LC84
 1105 0748 78030000 		.word	.LC86
 1106 074c 8C030000 		.word	.LC88
 1107 0750 B8030000 		.word	.LC90
 1108 0754 C4030000 		.word	.LC92
 1109 0758 D8030000 		.word	.LC94
 1110              		.cfi_endproc
 1111              	.LFE36:
 1112              		.size	main, .-main
 1113              		.section	.text.ISR_imuUart,"ax",%progbits
 1114              		.align	2
 1115              		.global	ISR_imuUart
 1116              		.code	16
 1117              		.thumb_func
 1118              		.type	ISR_imuUart, %function
 1119              	ISR_imuUart:
 1120              	.LFB37:
 384:main.c        ****             }
 385:main.c        ****         }
 386:main.c        ****         
 387:main.c        ****     /* End MICA_TEST_PACKETS_ERRORS */
 388:main.c        ****     #elif defined MICA_TEST_PACKETS
 389:main.c        ****         /* Receive a packet from the IMU and print the result via the USB uart */
 390:main.c        ****         /* Start the Components */
 391:main.c        ****         UART_USB_Start();
 392:main.c        ****         UART_IMU_Start();
 393:main.c        ****         LEDS_Write(LEDS_ON_GREEN);
 394:main.c        ****         /* Initialize variables */
 395:main.c        ****         packets_BUFFER_FULL_S packetBuffer;
 396:main.c        ****         packets_initialize(&packetBuffer);
 397:main.c        ****         uint32 error = packets_generateBuffers(&packetBuffer, packets_LEN_BLOCK_PACKET);
 398:main.c        ****         /* Ensure packet buffers were created properly */
 399:main.c        ****         if(error){
 400:main.c        ****             LEDS_Write(LEDS_ON_RED);
 401:main.c        ****             for(;;){}
 402:main.c        ****         }
 403:main.c        ****         /* Infinite loop */
 404:main.c        ****         for(;;){
 405:main.c        ****             uint32 data = UART_IMU_UartGetByte();
 406:main.c        ****             /* See if data is available */
 407:main.c        ****             if( !(data & UART_IMU_UART_RX_UNDERFLOW) ){
 408:main.c        ****                 /* Process packet byte, check if packet complete */
 409:main.c        ****                 uint32 err = packets_processRxByte(&packetBuffer, (uint8) data); 
 410:main.c        ****                 /* Inidicate errors */
 411:main.c        ****                 if(err){
 412:main.c        ****                     LEDS_G_Toggle();   
 413:main.c        ****                     /* Reset the receive packet */
 414:main.c        ****                     packets_flushRxBuffers(&packetBuffer);
 415:main.c        ****                 }
 416:main.c        ****                 /* Check if complete */
 417:main.c        ****                 if(packetBuffer.receive.bufferState == packets_BUFFER_RECEIVE_COMPLETE) {
 418:main.c        ****                     LEDS_B_Toggle();
 419:main.c        ****                     /* Parse the packet */
ARM GAS  C:\Users\ccheney\AppData\Local\Temp\cc75Za53.s 			page 28


 420:main.c        ****                     packets_parsePacket(&packetBuffer);
 421:main.c        ****                     packets_PACKET_S* rxPacket = &(packetBuffer.receive.packet);
 422:main.c        ****                     /* Clear the screen and print out the data */
 423:main.c        ****                     usbUart_print("\n\r\nModule: %x \r\nCommand: %x\r\nPayload Len: %x\r\n", rxPack
 424:main.c        ****                     usbUart_print("Payload:");
 425:main.c        ****                     uint8 i;
 426:main.c        ****                     for(i=ZERO; i< rxPacket->payloadLen; i++){
 427:main.c        ****                         usbUart_print(" %x", rxPacket->payload[i]);
 428:main.c        ****                     }
 429:main.c        ****                 }
 430:main.c        ****             }
 431:main.c        ****         }
 432:main.c        ****     /* End MICA_TEST_PACKETS */
 433:main.c        ****     #elif defined MICA_TEST_PACKETS_ISR
 434:main.c        ****         /* Receive a packet from the IMU Uart via an interrupt and print the result via the USB uar
 435:main.c        ****         /* Start the Components */
 436:main.c        ****         UART_USB_Start();
 437:main.c        ****         UART_IMU_Start();
 438:main.c        ****         LEDS_Write(LEDS_ON_GREEN);
 439:main.c        ****         /* Initialize variables */
 440:main.c        ****         packets_BUFFER_FULL_S packetBuffer;
 441:main.c        ****         packets_initialize(&packetBuffer);
 442:main.c        ****         uint32 error = packets_generateBuffers(&packetBuffer, packets_LEN_BLOCK_PACKET);
 443:main.c        ****         /* Ensure packet buffers were created properly */
 444:main.c        ****         if(error){
 445:main.c        ****             LEDS_Write(LEDS_ON_RED);
 446:main.c        ****             for(;;){}
 447:main.c        ****         }
 448:main.c        ****         /* Enable the uart interrupts */
 449:main.c        ****         UART_IMU_EnableInt();
 450:main.c        ****         UART_IMU_SetCustomInterruptHandler(ISR_imuUart);
 451:main.c        **** 
 452:main.c        ****         /* Infinite loop */
 453:main.c        ****         for(;;){
 454:main.c        ****             /* See if there are any pending bytes */
 455:main.c        ****             if(flag_pendingRxByte){
 456:main.c        ****                 /* Reset the flag */
 457:main.c        ****                 flag_pendingRxByte = false;
 458:main.c        ****                 /* Read in the byte */
 459:main.c        ****                 uint8 newData = imuUart_getChar();
 460:main.c        ****                 uint32 err = packets_processRxByte(&packetBuffer, newData);
 461:main.c        ****                 /* Inidicate errors */
 462:main.c        ****                 if(err){ 
 463:main.c        ****                     /* Reset the receive packet */
 464:main.c        ****                     packets_flushRxBuffers(&packetBuffer);
 465:main.c        ****                 }
 466:main.c        ****                 /* Check if complete */
 467:main.c        ****                 if(packetBuffer.receive.bufferState == packets_BUFFER_RECEIVE_COMPLETE) {
 468:main.c        ****                     LEDS_B_Toggle();
 469:main.c        ****                     /* Parse the packet */
 470:main.c        ****                     packets_parsePacket(&packetBuffer);
 471:main.c        ****                     packets_PACKET_S* rxPacket = &(packetBuffer.receive.packet);
 472:main.c        ****                     /* Clear the screen and print out the data */
 473:main.c        ****                     usbUart_print("\n\r\nModule: %x \r\nCommand: %x\r\nPayload Len: %x\r\n", rxPack
 474:main.c        ****                     usbUart_print("Payload:");
 475:main.c        ****                     uint8 i;
 476:main.c        ****                     for(i=ZERO; i< rxPacket->payloadLen; i++){
ARM GAS  C:\Users\ccheney\AppData\Local\Temp\cc75Za53.s 			page 29


 477:main.c        ****                         usbUart_print(" %x", rxPacket->payload[i]);
 478:main.c        ****                     }
 479:main.c        ****                 }
 480:main.c        ****             }
 481:main.c        ****         }
 482:main.c        ****     /* End MICA_TEST_PACKETS_ISR */
 483:main.c        ****     #else 
 484:main.c        ****         #error "At least ONE MICA_TEST_<case> must be defined if MICA_TEST is defined"
 485:main.c        ****     #endif
 486:main.c        ****     #if defined(MICA_DEBUG) && defined(MICA_TEST)
 487:main.c        ****         #error "MICA_DEBUG and MICA_TEST may not be defined at the same time"
 488:main.c        ****     #endif
 489:main.c        **** #endif /* MICA_TEST */
 490:main.c        **** /* %%%%%%%%%%%%%%%%%%  End Debugging & Testing  %%%%%%%%%%%%%%%%%% */
 491:main.c        ****     
 492:main.c        ****     /* Infinite Loop */
 493:main.c        ****     for(;;)
 494:main.c        ****     {
 495:main.c        **** 
 496:main.c        ****     }
 497:main.c        **** }
 498:main.c        **** 
 499:main.c        **** /*******************************************************************************
 500:main.c        **** * ISR Name: ISR_processRxByte()
 501:main.c        **** ********************************************************************************
 502:main.c        **** * Summary:
 503:main.c        **** *   ISR when data is received over the imu UART
 504:main.c        **** * Interrupt: 
 505:main.c        **** *       Button pressed
 506:main.c        **** *
 507:main.c        **** *******************************************************************************/
 508:main.c        **** void ISR_imuUart(void){
 1121              		.loc 1 508 0
 1122              		.cfi_startproc
 1123              		@ args = 0, pretend = 0, frame = 0
 1124              		@ frame_needed = 0, uses_anonymous_args = 0
 1125              		@ link register save eliminated.
 509:main.c        ****     /* Check if new data is available */
 510:main.c        ****     if( UART_IMU_GetRxInterruptSourceMasked() & UART_IMU_INTR_RX_NOT_EMPTY){
 1126              		.loc 1 510 0
 1127 0000 034B     		ldr	r3, .L11
 1128 0002 1B68     		ldr	r3, [r3]
 1129 0004 5B07     		lsls	r3, r3, #29
 1130 0006 02D5     		bpl	.L9
 511:main.c        ****         flag_pendingRxByte = true;
 1131              		.loc 1 511 0
 1132 0008 0122     		movs	r2, #1
 1133 000a 024B     		ldr	r3, .L11+4
 1134 000c 1A70     		strb	r2, [r3]
 1135              	.L9:
 512:main.c        ****     }
 513:main.c        **** }
 1136              		.loc 1 513 0
 1137              		@ sp needed
 1138 000e 7047     		bx	lr
 1139              	.L12:
 1140              		.align	2
ARM GAS  C:\Users\ccheney\AppData\Local\Temp\cc75Za53.s 			page 30


 1141              	.L11:
 1142 0010 CC0F2440 		.word	1076105164
 1143 0014 00000000 		.word	.LANCHOR1
 1144              		.cfi_endproc
 1145              	.LFE37:
 1146              		.size	ISR_imuUart, .-ISR_imuUart
 1147              		.global	timerExpired
 1148              		.global	flag_pendingRxByte
 1149              		.section	.rodata
 1150              		.align	2
 1151              		.set	.LANCHOR0,. + 0
 1152              	.LC0:
 1153 0000 01       		.byte	1
 1154 0001 03       		.byte	3
 1155 0002 05       		.byte	5
 1156 0003 00       		.space	1
 1157              	.LC1:
 1158 0004 01       		.byte	1
 1159 0005 05       		.byte	5
 1160 0006 CC       		.byte	-52
 1161 0007 00       		.byte	0
 1162 0008 03       		.byte	3
 1163 0009 01       		.byte	1
 1164 000a 03       		.byte	3
 1165 000b 05       		.byte	5
 1166 000c 00       		.byte	0
 1167 000d 00       		.byte	0
 1168 000e 00       		.byte	0
 1169 000f 00       		.byte	0
 1170 0010 FF       		.byte	-1
 1171 0011 22       		.byte	34
 1172 0012 AA       		.byte	-86
 1173              		.section	.rodata.str1.4,"aMS",%progbits,1
 1174              		.align	2
 1175              	.LC2:
 1176 0000 1B5B324A 		.ascii	"\033[2J\033[1;1H\000"
 1176      1B5B313B 
 1176      314800
 1177 000b 00       		.space	1
 1178              	.LC4:
 1179 000c 20202020 		.ascii	"      PACKET TESTING UNIT TESTS \000"
 1179      20205041 
 1179      434B4554 
 1179      20544553 
 1179      54494E47 
 1180 002d 000000   		.space	3
 1181              	.LC6:
 1182 0030 53657020 		.ascii	"Sep 17 2018\000"
 1182      31372032 
 1182      30313800 
 1183              	.LC8:
 1184 003c 31363A30 		.ascii	"16:00:31\000"
 1184      303A3331 
 1184      00
 1185 0045 000000   		.space	3
 1186              	.LC11:
 1187 0048 0D0A2A2A 		.ascii	"\015\012*** Buffer generation ***\015\012\000"
ARM GAS  C:\Users\ccheney\AppData\Local\Temp\cc75Za53.s 			page 31


 1187      2A204275 
 1187      66666572 
 1187      2067656E 
 1187      65726174 
 1188 0066 0000     		.space	2
 1189              	.LC13:
 1190 0068 4E6F726D 		.ascii	"Normal\000"
 1190      616C00
 1191 006f 00       		.space	1
 1192              	.LC15:
 1193 0070 4C6F6E67 		.ascii	"Long\000"
 1193      00
 1194 0075 000000   		.space	3
 1195              	.LC17:
 1196 0078 4D756C74 		.ascii	"Multiple Create\000"
 1196      69706C65 
 1196      20437265 
 1196      61746500 
 1197              	.LC19:
 1198 0088 0D0A2A2A 		.ascii	"\015\012*** Buffer Destruction ***\015\012\000"
 1198      2A204275 
 1198      66666572 
 1198      20446573 
 1198      74727563 
 1199 00a7 00       		.space	1
 1200              	.LC21:
 1201 00a8 4E6F6E2D 		.ascii	"Non-generated\000"
 1201      67656E65 
 1201      72617465 
 1201      6400
 1202 00b6 0000     		.space	2
 1203              	.LC23:
 1204 00b8 4661696C 		.ascii	"Failed Gen\000"
 1204      65642047 
 1204      656E00
 1205 00c3 00       		.space	1
 1206              	.LC25:
 1207 00c4 4D756C74 		.ascii	"Multiple destroy\000"
 1207      69706C65 
 1207      20646573 
 1207      74726F79 
 1207      00
 1208 00d5 000000   		.space	3
 1209              	.LC27:
 1210 00d8 0D0A2A2A 		.ascii	"\015\012*** Memroy Leak Generation ***\015\012\000"
 1210      2A204D65 
 1210      6D726F79 
 1210      204C6561 
 1210      6B204765 
 1211 00fb 00       		.space	1
 1212              	.LC29:
 1213 00fc 52657065 		.ascii	"Repeat Generations\000"
 1213      61742047 
 1213      656E6572 
 1213      6174696F 
 1213      6E7300
 1214 010f 00       		.space	1
ARM GAS  C:\Users\ccheney\AppData\Local\Temp\cc75Za53.s 			page 32


 1215              	.LC31:
 1216 0110 0D0A2A2A 		.ascii	"\015\012*** Construct Packet Test Suite - State Err"
 1216      2A20436F 
 1216      6E737472 
 1216      75637420 
 1216      5061636B 
 1217 013d 6F727320 		.ascii	"ors ***\015\012\000"
 1217      2A2A2A0D 
 1217      0A00
 1218 0147 00       		.space	1
 1219              	.LC34:
 1220 0148 42617369 		.ascii	"Basic Packet\000"
 1220      63205061 
 1220      636B6574 
 1220      00
 1221 0155 000000   		.space	3
 1222              	.LC36:
 1223 0158 4D6F6475 		.ascii	"Module ID: 10\000"
 1223      6C652049 
 1223      443A2031 
 1223      3000
 1224 0166 0000     		.space	2
 1225              	.LC38:
 1226 0168 4D6F6475 		.ascii	"Module ID: 0\000"
 1226      6C652049 
 1226      443A2030 
 1226      00
 1227 0175 000000   		.space	3
 1228              	.LC40:
 1229 0178 4E6F2050 		.ascii	"No Payload\000"
 1229      61796C6F 
 1229      616400
 1230 0183 00       		.space	1
 1231              	.LC42:
 1232 0184 4C6F6E67 		.ascii	"Long Payload - no memory\000"
 1232      20506179 
 1232      6C6F6164 
 1232      202D206E 
 1232      6F206D65 
 1233 019d 000000   		.space	3
 1234              	.LC44:
 1235 01a0 4C6F6E67 		.ascii	"Long Payload - max payload, memory\000"
 1235      20506179 
 1235      6C6F6164 
 1235      202D206D 
 1235      61782070 
 1236 01c3 00       		.space	1
 1237              	.LC46:
 1238 01c4 0D0A2A2A 		.ascii	"\015\012*** Construct Packet Test Suite - Packet Va"
 1238      2A20436F 
 1238      6E737472 
 1238      75637420 
 1238      5061636B 
 1239 01f1 6C756573 		.ascii	"lues ***\015\012\000"
 1239      202A2A2A 
 1239      0D0A00
 1240              	.LC48:
ARM GAS  C:\Users\ccheney\AppData\Local\Temp\cc75Za53.s 			page 33


 1241 01fc 53696D70 		.ascii	"Simple Packet\000"
 1241      6C652050 
 1241      61636B65 
 1241      7400
 1242 020a 0000     		.space	2
 1243              	.LC50:
 1244 020c 4E6F2070 		.ascii	"No payload\000"
 1244      61796C6F 
 1244      616400
 1245 0217 00       		.space	1
 1246              	.LC52:
 1247 0218 52657370 		.ascii	"Response Flag\000"
 1247      6F6E7365 
 1247      20466C61 
 1247      6700
 1248 0226 0000     		.space	2
 1249              	.LC54:
 1250 0228 52657370 		.ascii	"Response Flag 2\000"
 1250      6F6E7365 
 1250      20466C61 
 1250      67203200 
 1251              	.LC56:
 1252 0238 0D0A2A2A 		.ascii	"\015\012*** Send Packet ***\015\012\000"
 1252      2A205365 
 1252      6E642050 
 1252      61636B65 
 1252      74202A2A 
 1253              	.LC58:
 1254 0250 53656E64 		.ascii	"Send Basic Packet\000"
 1254      20426173 
 1254      69632050 
 1254      61636B65 
 1254      7400
 1255 0262 0000     		.space	2
 1256              	.LC60:
 1257 0264 53656E64 		.ascii	"Send Basic Packet 2\000"
 1257      20426173 
 1257      69632050 
 1257      61636B65 
 1257      74203200 
 1258              	.LC62:
 1259 0278 0D0A2A2A 		.ascii	"\015\012*** Process RX Byte - State Errors ***\015\012"
 1259      2A205072 
 1259      6F636573 
 1259      73205258 
 1259      20427974 
 1260 02a2 00       		.ascii	"\000"
 1261 02a3 00       		.space	1
 1262              	.LC64:
 1263 02a4 4E6F2042 		.ascii	"No Buffers\000"
 1263      75666665 
 1263      727300
 1264 02af 00       		.space	1
 1265              	.LC66:
 1266 02b0 42756666 		.ascii	"Buffer overflow\000"
 1266      6572206F 
 1266      76657266 
ARM GAS  C:\Users\ccheney\AppData\Local\Temp\cc75Za53.s 			page 34


 1266      6C6F7700 
 1267              	.LC68:
 1268 02c0 56616C69 		.ascii	"Valid Start\000"
 1268      64205374 
 1268      61727400 
 1269              	.LC70:
 1270 02cc 696E7661 		.ascii	"invalid Start\000"
 1270      6C696420 
 1270      53746172 
 1270      7400
 1271 02da 0000     		.space	2
 1272              	.LC72:
 1273 02dc 0D0A2A2A 		.ascii	"\015\012*** Packet parsing - State Errors ***\015\012"
 1273      2A205061 
 1273      636B6574 
 1273      20706172 
 1273      73696E67 
 1274 0305 00       		.ascii	"\000"
 1275 0306 0000     		.space	2
 1276              	.LC74:
 1277 0308 56616C69 		.ascii	"Valid packet - no payload \000"
 1277      64207061 
 1277      636B6574 
 1277      202D206E 
 1277      6F207061 
 1278 0323 00       		.space	1
 1279              	.LC76:
 1280 0324 56616C69 		.ascii	"Valid packet \000"
 1280      64207061 
 1280      636B6574 
 1280      2000
 1281 0332 0000     		.space	2
 1282              	.LC78:
 1283 0334 53686F72 		.ascii	"Short packet\000"
 1283      74207061 
 1283      636B6574 
 1283      00
 1284 0341 000000   		.space	3
 1285              	.LC80:
 1286 0344 496E7661 		.ascii	"Invalid start sym\000"
 1286      6C696420 
 1286      73746172 
 1286      74207379 
 1286      6D00
 1287 0356 0000     		.space	2
 1288              	.LC82:
 1289 0358 496E7661 		.ascii	"Invalid Module\000"
 1289      6C696420 
 1289      4D6F6475 
 1289      6C6500
 1290 0367 00       		.space	1
 1291              	.LC84:
 1292 0368 42616420 		.ascii	"Bad Checksum\000"
 1292      43686563 
 1292      6B73756D 
 1292      00
 1293 0375 000000   		.space	3
ARM GAS  C:\Users\ccheney\AppData\Local\Temp\cc75Za53.s 			page 35


 1294              	.LC86:
 1295 0378 496E7661 		.ascii	"Invalid End Symbol\000"
 1295      6C696420 
 1295      456E6420 
 1295      53796D62 
 1295      6F6C00
 1296 038b 00       		.space	1
 1297              	.LC88:
 1298 038c 0D0A2A2A 		.ascii	"\015\012*** Packet parsing - Packet Values ***\015\012"
 1298      2A205061 
 1298      636B6574 
 1298      20706172 
 1298      73696E67 
 1299 03b6 00       		.ascii	"\000"
 1300 03b7 00       		.space	1
 1301              	.LC90:
 1302 03b8 4E6F2070 		.ascii	"No payload \000"
 1302      61796C6F 
 1302      61642000 
 1303              	.LC92:
 1304 03c4 5061796C 		.ascii	"Payload payload \000"
 1304      6F616420 
 1304      7061796C 
 1304      6F616420 
 1304      00
 1305 03d5 000000   		.space	3
 1306              	.LC94:
 1307 03d8 50726573 		.ascii	"Press any key to re-run tests\015\012\000"
 1307      7320616E 
 1307      79206B65 
 1307      7920746F 
 1307      2072652D 
 1308              		.bss
 1309              		.set	.LANCHOR1,. + 0
 1310              		.type	flag_pendingRxByte, %object
 1311              		.size	flag_pendingRxByte, 1
 1312              	flag_pendingRxByte:
 1313 0000 00       		.space	1
 1314              		.type	timerExpired, %object
 1315              		.size	timerExpired, 1
 1316              	timerExpired:
 1317 0001 00       		.space	1
 1318              		.text
 1319              	.Letext0:
 1320              		.file 2 "c:\\program files (x86)\\cypress\\psoc creator\\4.2\\psoc creator\\import\\gnu\\arm\\5.4.
 1321              		.file 3 "c:\\program files (x86)\\cypress\\psoc creator\\4.2\\psoc creator\\import\\gnu\\arm\\5.4.
 1322              		.file 4 "Generated_Source\\PSoC4/cytypes.h"
 1323              		.file 5 "Generated_Source\\PSoC4/packets.h"
 1324              		.file 6 "Generated_Source\\PSoC4/usbUart.h"
 1325              		.file 7 "packet_testing.h"
 1326              		.file 8 "Generated_Source\\PSoC4/testRunner.h"
 1327              		.file 9 "Generated_Source\\PSoC4/LEDS.h"
 1328              		.file 10 "Generated_Source\\PSoC4/UART_USB.h"
 1329              		.file 11 "Generated_Source\\PSoC4/UART_USB_SPI_UART.h"
 1330              		.file 12 "Generated_Source\\PSoC4/CyLib.h"