ARM GAS  C:\Users\ccheney\AppData\Local\Temp\ccB8VlRP.s 			page 1


   1              		.syntax unified
   2              		.cpu cortex-m0
   3              		.fpu softvfp
   4              		.eabi_attribute 20, 1
   5              		.eabi_attribute 21, 1
   6              		.eabi_attribute 23, 3
   7              		.eabi_attribute 24, 1
   8              		.eabi_attribute 25, 1
   9              		.eabi_attribute 26, 1
  10              		.eabi_attribute 30, 1
  11              		.eabi_attribute 34, 0
  12              		.eabi_attribute 18, 4
  13              		.thumb
  14              		.syntax unified
  15              		.file	"packet_testing.c"
  16              		.text
  17              	.Ltext0:
  18              		.cfi_sections	.debug_frame
  19              		.section	.text.test_generateBuffers,"ax",%progbits
  20              		.align	2
  21              		.global	test_generateBuffers
  22              		.code	16
  23              		.thumb_func
  24              		.type	test_generateBuffers, %function
  25              	test_generateBuffers:
  26              	.LFB36:
  27              		.file 1 "packet_testing.c"
   1:packet_testing.c **** /***************************************************************************
   2:packet_testing.c **** *                                       MICA
   3:packet_testing.c **** * File: packet_testing.h
   4:packet_testing.c **** * Workspace: micaComponents_testing
   5:packet_testing.c **** * Project Name: libMica
   6:packet_testing.c **** * Version: v1.packetTesting_v1
   7:packet_testing.c **** * Author: Craig Cheney
   8:packet_testing.c **** *
   9:packet_testing.c **** * Brief:
  10:packet_testing.c **** *  Unit tests for the packets
  11:packet_testing.c **** * 
  12:packet_testing.c **** * Authors:
  13:packet_testing.c **** *   Craig Cheney
  14:packet_testing.c **** *
  15:packet_testing.c **** * Change Log:
  16:packet_testing.c **** *   2018.08.03 CC - Document created
  17:packet_testing.c **** ********************************************************************************/
  18:packet_testing.c **** #include "packet_testing.h"
  19:packet_testing.c **** #include "testRunner.h"
  20:packet_testing.c **** #include <stdio.h>
  21:packet_testing.c **** #include "project.h"
  22:packet_testing.c **** 
  23:packet_testing.c **** /*******************************************************************************
  24:packet_testing.c **** * Function Name: test_generateBuffers()
  25:packet_testing.c **** ****************************************************************************//**
  26:packet_testing.c **** * \brief
  27:packet_testing.c **** *  Runner that assists with unit tests of generating buffers
  28:packet_testing.c **** *
  29:packet_testing.c **** * \param packetBuffer
  30:packet_testing.c **** *   Pointer to buffers
ARM GAS  C:\Users\ccheney\AppData\Local\Temp\ccB8VlRP.s 			page 2


  31:packet_testing.c **** *
  32:packet_testing.c **** * \param dataArray
  33:packet_testing.c **** *   buffer that contains the data
  34:packet_testing.c **** *
  35:packet_testing.c **** * \param dataLen
  36:packet_testing.c **** *   The length of data to send
  37:packet_testing.c **** *
  38:packet_testing.c **** * \param testName
  39:packet_testing.c **** *   Name of test
  40:packet_testing.c **** *
  41:packet_testing.c **** * \param expectedResult
  42:packet_testing.c **** *   The Error code of the expected result
  43:packet_testing.c **** *
  44:packet_testing.c **** * \return
  45:packet_testing.c **** *  Boolean indicating if the test passed
  46:packet_testing.c **** *******************************************************************************/  
  47:packet_testing.c **** bool test_generateBuffers(packets_BUFFER_FULL_S* packetBuffer, char* testName, uint16 len, uint32_t
  28              		.loc 1 47 0
  29              		.cfi_startproc
  30              		@ args = 0, pretend = 0, frame = 0
  31              		@ frame_needed = 0, uses_anonymous_args = 0
  32              	.LVL0:
  33 0000 F8B5     		push	{r3, r4, r5, r6, r7, lr}
  34              		.cfi_def_cfa_offset 24
  35              		.cfi_offset 3, -24
  36              		.cfi_offset 4, -20
  37              		.cfi_offset 5, -16
  38              		.cfi_offset 6, -12
  39              		.cfi_offset 7, -8
  40              		.cfi_offset 14, -4
  41 0002 0500     		movs	r5, r0
  42 0004 0E00     		movs	r6, r1
  43 0006 1F00     		movs	r7, r3
  48:packet_testing.c ****     /* Blocks too large are not created */
  49:packet_testing.c ****     uint32_t error = packets_generateBuffers(packetBuffer, len);
  44              		.loc 1 49 0
  45 0008 1100     		movs	r1, r2
  46              	.LVL1:
  47 000a FFF7FEFF 		bl	packets_generateBuffers
  48              	.LVL2:
  49 000e 0400     		movs	r4, r0
  50              	.LVL3:
  50:packet_testing.c ****     /* Print results */
  51:packet_testing.c ****     bool result = testRunner_printResults(testName, error, expectedResult, "");
  51              		.loc 1 51 0
  52 0010 064B     		ldr	r3, .L3
  53 0012 3A00     		movs	r2, r7
  54 0014 0100     		movs	r1, r0
  55 0016 3000     		movs	r0, r6
  56              	.LVL4:
  57 0018 FFF7FEFF 		bl	testRunner_printResults
  58              	.LVL5:
  59 001c 0600     		movs	r6, r0
  60              	.LVL6:
  52:packet_testing.c ****     /* Destroy buffers */
  53:packet_testing.c ****     if(!error){
  61              		.loc 1 53 0
ARM GAS  C:\Users\ccheney\AppData\Local\Temp\ccB8VlRP.s 			page 3


  62 001e 002C     		cmp	r4, #0
  63 0020 02D1     		bne	.L2
  54:packet_testing.c ****         packets_destoryBuffers(packetBuffer);
  64              		.loc 1 54 0
  65 0022 2800     		movs	r0, r5
  66 0024 FFF7FEFF 		bl	packets_destoryBuffers
  67              	.LVL7:
  68              	.L2:
  55:packet_testing.c ****     }
  56:packet_testing.c ****     return result;
  57:packet_testing.c **** }
  69              		.loc 1 57 0
  70 0028 3000     		movs	r0, r6
  71              		@ sp needed
  72              	.LVL8:
  73              	.LVL9:
  74              	.LVL10:
  75              	.LVL11:
  76 002a F8BD     		pop	{r3, r4, r5, r6, r7, pc}
  77              	.L4:
  78              		.align	2
  79              	.L3:
  80 002c 00000000 		.word	.LC0
  81              		.cfi_endproc
  82              	.LFE36:
  83              		.size	test_generateBuffers, .-test_generateBuffers
  84              		.section	.text.test_generateBuffers_iteration,"ax",%progbits
  85              		.align	2
  86              		.global	test_generateBuffers_iteration
  87              		.code	16
  88              		.thumb_func
  89              		.type	test_generateBuffers_iteration, %function
  90              	test_generateBuffers_iteration:
  91              	.LFB37:
  58:packet_testing.c **** 
  59:packet_testing.c **** /*******************************************************************************
  60:packet_testing.c **** * Function Name: test_generateBuffers_iteration()
  61:packet_testing.c **** ****************************************************************************//**
  62:packet_testing.c **** * \brief
  63:packet_testing.c **** *  Create and destroy buffers repeatedly
  64:packet_testing.c **** *
  65:packet_testing.c **** * \param packetBuffer
  66:packet_testing.c **** *   Pointer to buffers
  67:packet_testing.c **** *
  68:packet_testing.c **** * \param testName
  69:packet_testing.c **** *   Name of test
  70:packet_testing.c **** *
  71:packet_testing.c **** * \param iterations
  72:packet_testing.c **** *  Number of times to run the test
  73:packet_testing.c **** *
  74:packet_testing.c **** * \return
  75:packet_testing.c **** *  Boolean indicating if the test passed
  76:packet_testing.c **** *******************************************************************************/  
  77:packet_testing.c **** bool test_generateBuffers_iteration(packets_BUFFER_FULL_S* packetBuffer, char* testName, uint16 ite
  92              		.loc 1 77 0
  93              		.cfi_startproc
  94              		@ args = 0, pretend = 0, frame = 0
ARM GAS  C:\Users\ccheney\AppData\Local\Temp\ccB8VlRP.s 			page 4


  95              		@ frame_needed = 0, uses_anonymous_args = 0
  96              	.LVL12:
  97 0000 F8B5     		push	{r3, r4, r5, r6, r7, lr}
  98              		.cfi_def_cfa_offset 24
  99              		.cfi_offset 3, -24
 100              		.cfi_offset 4, -20
 101              		.cfi_offset 5, -16
 102              		.cfi_offset 6, -12
 103              		.cfi_offset 7, -8
 104              		.cfi_offset 14, -4
 105 0002 0500     		movs	r5, r0
 106 0004 0E00     		movs	r6, r1
 107 0006 1700     		movs	r7, r2
 108              	.LVL13:
  78:packet_testing.c ****     uint16 i;
  79:packet_testing.c ****     /* Create and destroy a whole buch of times */
  80:packet_testing.c ****     for(i = ZERO; i < iterations; i++){
 109              		.loc 1 80 0
 110 0008 0024     		movs	r4, #0
 111 000a 08E0     		b	.L6
 112              	.LVL14:
 113              	.L7:
  81:packet_testing.c ****         packets_generateBuffers(packetBuffer, packets_LEN_BLOCK_PACKET);
 114              		.loc 1 81 0 discriminator 3
 115 000c 8C21     		movs	r1, #140
 116 000e 2800     		movs	r0, r5
 117 0010 FFF7FEFF 		bl	packets_generateBuffers
 118              	.LVL15:
  82:packet_testing.c ****         packets_destoryBuffers(packetBuffer);
 119              		.loc 1 82 0 discriminator 3
 120 0014 2800     		movs	r0, r5
 121 0016 FFF7FEFF 		bl	packets_destoryBuffers
 122              	.LVL16:
  80:packet_testing.c ****         packets_generateBuffers(packetBuffer, packets_LEN_BLOCK_PACKET);
 123              		.loc 1 80 0 discriminator 3
 124 001a 0134     		adds	r4, r4, #1
 125              	.LVL17:
 126 001c A4B2     		uxth	r4, r4
 127              	.LVL18:
 128              	.L6:
  80:packet_testing.c ****         packets_generateBuffers(packetBuffer, packets_LEN_BLOCK_PACKET);
 129              		.loc 1 80 0 is_stmt 0 discriminator 1
 130 001e BC42     		cmp	r4, r7
 131 0020 F4D3     		bcc	.L7
  83:packet_testing.c ****     }
  84:packet_testing.c ****     /* Succeed if we get here */
  85:packet_testing.c ****     return testRunner_printResults(testName, ZERO, ZERO, "");
 132              		.loc 1 85 0 is_stmt 1
 133 0022 034B     		ldr	r3, .L8
 134 0024 0022     		movs	r2, #0
 135 0026 0021     		movs	r1, #0
 136 0028 3000     		movs	r0, r6
 137 002a FFF7FEFF 		bl	testRunner_printResults
 138              	.LVL19:
  86:packet_testing.c **** }
 139              		.loc 1 86 0
 140              		@ sp needed
ARM GAS  C:\Users\ccheney\AppData\Local\Temp\ccB8VlRP.s 			page 5


 141              	.LVL20:
 142              	.LVL21:
 143              	.LVL22:
 144 002e F8BD     		pop	{r3, r4, r5, r6, r7, pc}
 145              	.L9:
 146              		.align	2
 147              	.L8:
 148 0030 00000000 		.word	.LC0
 149              		.cfi_endproc
 150              	.LFE37:
 151              		.size	test_generateBuffers_iteration, .-test_generateBuffers_iteration
 152              		.section	.text.test_destroyBuffers,"ax",%progbits
 153              		.align	2
 154              		.global	test_destroyBuffers
 155              		.code	16
 156              		.thumb_func
 157              		.type	test_destroyBuffers, %function
 158              	test_destroyBuffers:
 159              	.LFB38:
  87:packet_testing.c **** 
  88:packet_testing.c **** 
  89:packet_testing.c **** 
  90:packet_testing.c **** /*******************************************************************************
  91:packet_testing.c **** * Function Name: test_destroyBuffers()
  92:packet_testing.c **** ****************************************************************************//**
  93:packet_testing.c **** * \brief
  94:packet_testing.c **** *  Runner that assists with unit tests of generating buffers
  95:packet_testing.c **** *
  96:packet_testing.c **** * \param packetBuffer
  97:packet_testing.c **** *   Pointer to buffers
  98:packet_testing.c **** *
  99:packet_testing.c **** * \param dataArray
 100:packet_testing.c **** *   buffer that contains the data
 101:packet_testing.c **** *
 102:packet_testing.c **** * \param dataLen
 103:packet_testing.c **** *   The length of data to send
 104:packet_testing.c **** *
 105:packet_testing.c **** * \param testName
 106:packet_testing.c **** *   Name of test
 107:packet_testing.c **** *
 108:packet_testing.c **** * \param expectedResult
 109:packet_testing.c **** *   The Error code of the expected result
 110:packet_testing.c **** *
 111:packet_testing.c **** * \return
 112:packet_testing.c **** *   Boolean indicating if the test passed
 113:packet_testing.c **** *******************************************************************************/  
 114:packet_testing.c **** bool test_destroyBuffers(packets_BUFFER_FULL_S* packetBuffer, char* testName, uint32_t expectedResu
 160              		.loc 1 114 0
 161              		.cfi_startproc
 162              		@ args = 0, pretend = 0, frame = 0
 163              		@ frame_needed = 0, uses_anonymous_args = 0
 164              	.LVL23:
 165 0000 70B5     		push	{r4, r5, r6, lr}
 166              		.cfi_def_cfa_offset 16
 167              		.cfi_offset 4, -16
 168              		.cfi_offset 5, -12
 169              		.cfi_offset 6, -8
ARM GAS  C:\Users\ccheney\AppData\Local\Temp\ccB8VlRP.s 			page 6


 170              		.cfi_offset 14, -4
 171 0002 0C00     		movs	r4, r1
 172 0004 1500     		movs	r5, r2
 115:packet_testing.c ****     uint32_t error = packets_destoryBuffers(packetBuffer);
 173              		.loc 1 115 0
 174 0006 FFF7FEFF 		bl	packets_destoryBuffers
 175              	.LVL24:
 176 000a 0100     		movs	r1, r0
 177              	.LVL25:
 116:packet_testing.c ****     /* Print the results */
 117:packet_testing.c ****     return testRunner_printResults(testName, error, expectedResult, "");
 178              		.loc 1 117 0
 179 000c 024B     		ldr	r3, .L11
 180 000e 2A00     		movs	r2, r5
 181 0010 2000     		movs	r0, r4
 182              	.LVL26:
 183 0012 FFF7FEFF 		bl	testRunner_printResults
 184              	.LVL27:
 118:packet_testing.c **** }
 185              		.loc 1 118 0
 186              		@ sp needed
 187              	.LVL28:
 188              	.LVL29:
 189 0016 70BD     		pop	{r4, r5, r6, pc}
 190              	.L12:
 191              		.align	2
 192              	.L11:
 193 0018 00000000 		.word	.LC0
 194              		.cfi_endproc
 195              	.LFE38:
 196              		.size	test_destroyBuffers, .-test_destroyBuffers
 197              		.section	.text.test_packetCreation_stateErrors,"ax",%progbits
 198              		.align	2
 199              		.global	test_packetCreation_stateErrors
 200              		.code	16
 201              		.thumb_func
 202              		.type	test_packetCreation_stateErrors, %function
 203              	test_packetCreation_stateErrors:
 204              	.LFB39:
 119:packet_testing.c **** 
 120:packet_testing.c **** /*******************************************************************************
 121:packet_testing.c **** * Function Name: test_packetCreation_stateErrors()
 122:packet_testing.c **** ****************************************************************************//**
 123:packet_testing.c **** * \brief
 124:packet_testing.c **** *  Test the creation of the packets, evaaluating the state errors
 125:packet_testing.c **** *
 126:packet_testing.c **** * \param packetBuffer
 127:packet_testing.c **** *   Pointer to buffers
 128:packet_testing.c **** *
 129:packet_testing.c **** * \param testName
 130:packet_testing.c **** *   Name of test
 131:packet_testing.c **** *
 132:packet_testing.c **** * \param expectedResult
 133:packet_testing.c **** *   The Error code of the expected result
 134:packet_testing.c **** *
 135:packet_testing.c **** * \return
 136:packet_testing.c **** *   Boolean indicating if the test passed
ARM GAS  C:\Users\ccheney\AppData\Local\Temp\ccB8VlRP.s 			page 7


 137:packet_testing.c **** *******************************************************************************/
 138:packet_testing.c **** bool test_packetCreation_stateErrors(packets_BUFFER_FULL_S* packetBuffer, char* testName, uint32_t 
 205              		.loc 1 138 0
 206              		.cfi_startproc
 207              		@ args = 0, pretend = 0, frame = 0
 208              		@ frame_needed = 0, uses_anonymous_args = 0
 209              	.LVL30:
 210 0000 70B5     		push	{r4, r5, r6, lr}
 211              		.cfi_def_cfa_offset 16
 212              		.cfi_offset 4, -16
 213              		.cfi_offset 5, -12
 214              		.cfi_offset 6, -8
 215              		.cfi_offset 14, -4
 216 0002 0400     		movs	r4, r0
 217 0004 0D00     		movs	r5, r1
 218 0006 1600     		movs	r6, r2
 139:packet_testing.c ****     uint32_t error = packets_constructPacket(packetBuffer);
 219              		.loc 1 139 0
 220 0008 FFF7FEFF 		bl	packets_constructPacket
 221              	.LVL31:
 222 000c 0100     		movs	r1, r0
 223              	.LVL32:
 140:packet_testing.c ****     /* Print out results */
 141:packet_testing.c ****     bool result = testRunner_printResults(testName, error, expectedResult, "");
 224              		.loc 1 141 0
 225 000e 054B     		ldr	r3, .L14
 226 0010 3200     		movs	r2, r6
 227 0012 2800     		movs	r0, r5
 228              	.LVL33:
 229 0014 FFF7FEFF 		bl	testRunner_printResults
 230              	.LVL34:
 231 0018 0500     		movs	r5, r0
 232              	.LVL35:
 142:packet_testing.c ****     /* Flush the buffer */
 143:packet_testing.c ****     packets_flushTxBuffers(packetBuffer);
 233              		.loc 1 143 0
 234 001a 2000     		movs	r0, r4
 235 001c FFF7FEFF 		bl	packets_flushTxBuffers
 236              	.LVL36:
 144:packet_testing.c ****     return result;
 145:packet_testing.c **** }
 237              		.loc 1 145 0
 238 0020 2800     		movs	r0, r5
 239              		@ sp needed
 240              	.LVL37:
 241              	.LVL38:
 242              	.LVL39:
 243 0022 70BD     		pop	{r4, r5, r6, pc}
 244              	.L15:
 245              		.align	2
 246              	.L14:
 247 0024 00000000 		.word	.LC0
 248              		.cfi_endproc
 249              	.LFE39:
 250              		.size	test_packetCreation_stateErrors, .-test_packetCreation_stateErrors
 251              		.section	.text.test_packetCreation_packetVals,"ax",%progbits
 252              		.align	2
ARM GAS  C:\Users\ccheney\AppData\Local\Temp\ccB8VlRP.s 			page 8


 253              		.global	test_packetCreation_packetVals
 254              		.code	16
 255              		.thumb_func
 256              		.type	test_packetCreation_packetVals, %function
 257              	test_packetCreation_packetVals:
 258              	.LFB40:
 146:packet_testing.c **** 
 147:packet_testing.c **** /*******************************************************************************
 148:packet_testing.c **** * Function Name: test_packetCreation_packetVals()
 149:packet_testing.c **** ****************************************************************************//**
 150:packet_testing.c **** * \brief
 151:packet_testing.c **** *  Test the creation of the packets, looking at the value of the packet created
 152:packet_testing.c **** *
 153:packet_testing.c **** * \param packetBuffer
 154:packet_testing.c **** *   Pointer to buffers
 155:packet_testing.c **** *
 156:packet_testing.c **** * \param testName
 157:packet_testing.c **** *   Name of test
 158:packet_testing.c **** *
 159:packet_testing.c **** * \param expectedPacket
 160:packet_testing.c **** *   Pointer to array that is evaluated against the created txBuffer packet
 161:packet_testing.c **** *
 162:packet_testing.c **** * \return
 163:packet_testing.c **** *   Boolean indicating if the test passed
 164:packet_testing.c **** *******************************************************************************/
 165:packet_testing.c **** bool test_packetCreation_packetVals(packets_BUFFER_FULL_S* packetBuffer, char* testName, uint8_t* e
 259              		.loc 1 165 0
 260              		.cfi_startproc
 261              		@ args = 0, pretend = 0, frame = 120
 262              		@ frame_needed = 0, uses_anonymous_args = 0
 263              	.LVL40:
 264 0000 F0B5     		push	{r4, r5, r6, r7, lr}
 265              		.cfi_def_cfa_offset 20
 266              		.cfi_offset 4, -20
 267              		.cfi_offset 5, -16
 268              		.cfi_offset 6, -12
 269              		.cfi_offset 7, -8
 270              		.cfi_offset 14, -4
 271 0002 A1B0     		sub	sp, sp, #132
 272              		.cfi_def_cfa_offset 152
 273 0004 0700     		movs	r7, r0
 274 0006 0591     		str	r1, [sp, #20]
 275 0008 1600     		movs	r6, r2
 166:packet_testing.c ****     uint32_t error = packets_constructPacket(packetBuffer);
 276              		.loc 1 166 0
 277 000a FFF7FEFF 		bl	packets_constructPacket
 278              	.LVL41:
 279 000e 0490     		str	r0, [sp, #16]
 280              	.LVL42:
 167:packet_testing.c ****     /* There should be no errors returned from the contructPacket function (even for failing testin
 168:packet_testing.c ****     if(error){
 281              		.loc 1 168 0
 282 0010 0028     		cmp	r0, #0
 283 0012 27D0     		beq	.L21
 169:packet_testing.c ****         /* Log the error */
 170:packet_testing.c ****         return testRunner_printResults(testName, error, ZERO, "");
 284              		.loc 1 170 0
ARM GAS  C:\Users\ccheney\AppData\Local\Temp\ccB8VlRP.s 			page 9


 285 0014 1B4B     		ldr	r3, .L22
 286 0016 0022     		movs	r2, #0
 287 0018 0100     		movs	r1, r0
 288 001a 0598     		ldr	r0, [sp, #20]
 289              	.LVL43:
 290 001c FFF7FEFF 		bl	testRunner_printResults
 291              	.LVL44:
 292 0020 2EE0     		b	.L18
 293              	.LVL45:
 294              	.L20:
 171:packet_testing.c ****     }
 172:packet_testing.c ****     
 173:packet_testing.c ****     /* Compare the buffer arrays */
 174:packet_testing.c ****     uint16_t i;
 175:packet_testing.c ****     packets_BUFFER_PROCESS_S* txBuffer  = &(packetBuffer->send.processBuffer);
 176:packet_testing.c ****     bool match = true;
 177:packet_testing.c ****     for(i = ZERO; i < txBuffer->bufferIndex; i++){
 178:packet_testing.c ****         /* Check to see if the values match */
 179:packet_testing.c ****         match &= expectedPacket[i] == txBuffer->buffer[i];   
 295              		.loc 1 179 0
 296 0022 0394     		str	r4, [sp, #12]
 297 0024 3519     		adds	r5, r6, r4
 298 0026 2B78     		ldrb	r3, [r5]
 299 0028 7969     		ldr	r1, [r7, #20]
 300 002a 095D     		ldrb	r1, [r1, r4]
 301 002c 5B1A     		subs	r3, r3, r1
 302 002e 5842     		rsbs	r0, r3, #0
 303 0030 5841     		adcs	r0, r0, r3
 304 0032 0240     		ands	r2, r0
 305              	.LVL46:
 180:packet_testing.c ****         /* Stop if they don't match */
 181:packet_testing.c ****         if(!match){ 
 306              		.loc 1 181 0
 307 0034 13D1     		bne	.L19
 308              	.LBB2:
 182:packet_testing.c ****             /* Flush the buffer */
 183:packet_testing.c ****             packets_flushTxBuffers(packetBuffer);
 309              		.loc 1 183 0
 310 0036 3800     		movs	r0, r7
 311 0038 FFF7FEFF 		bl	packets_flushTxBuffers
 312              	.LVL47:
 184:packet_testing.c ****             /* Log an error */
 185:packet_testing.c ****             char msg[100];
 186:packet_testing.c ****             sprintf(msg, "Mismatch at index [%d]: expect: 0x%02x, got: 0x%02x", i, expectedPacket[i
 313              		.loc 1 186 0
 314 003c 2B78     		ldrb	r3, [r5]
 315 003e 7A69     		ldr	r2, [r7, #20]
 316 0040 0399     		ldr	r1, [sp, #12]
 317 0042 525C     		ldrb	r2, [r2, r1]
 318 0044 0092     		str	r2, [sp]
 319 0046 2200     		movs	r2, r4
 320 0048 0F49     		ldr	r1, .L22+4
 321 004a 07A8     		add	r0, sp, #28
 322 004c FFF7FEFF 		bl	sprintf
 323              	.LVL48:
 187:packet_testing.c ****             return testRunner_printResults(testName, error, ZERO, msg);
 324              		.loc 1 187 0
ARM GAS  C:\Users\ccheney\AppData\Local\Temp\ccB8VlRP.s 			page 10


 325 0050 07AB     		add	r3, sp, #28
 326 0052 0022     		movs	r2, #0
 327 0054 0499     		ldr	r1, [sp, #16]
 328 0056 0598     		ldr	r0, [sp, #20]
 329 0058 FFF7FEFF 		bl	testRunner_printResults
 330              	.LVL49:
 331 005c 10E0     		b	.L18
 332              	.LVL50:
 333              	.L19:
 334              	.LBE2:
 177:packet_testing.c ****         /* Check to see if the values match */
 335              		.loc 1 177 0 discriminator 2
 336 005e 0134     		adds	r4, r4, #1
 337              	.LVL51:
 338 0060 A4B2     		uxth	r4, r4
 339              	.LVL52:
 340 0062 01E0     		b	.L17
 341              	.LVL53:
 342              	.L21:
 343 0064 0122     		movs	r2, #1
 344 0066 0024     		movs	r4, #0
 345              	.LVL54:
 346              	.L17:
 177:packet_testing.c ****         /* Check to see if the values match */
 347              		.loc 1 177 0 is_stmt 0 discriminator 1
 348 0068 7B8B     		ldrh	r3, [r7, #26]
 349 006a 9C42     		cmp	r4, r3
 350 006c D9D3     		bcc	.L20
 188:packet_testing.c ****         }
 189:packet_testing.c ****     }
 190:packet_testing.c ****     /* Flush the buffer */
 191:packet_testing.c ****     packets_flushTxBuffers(packetBuffer);
 351              		.loc 1 191 0 is_stmt 1
 352 006e 3800     		movs	r0, r7
 353 0070 FFF7FEFF 		bl	packets_flushTxBuffers
 354              	.LVL55:
 192:packet_testing.c ****     /* Print out success results */
 193:packet_testing.c ****     return testRunner_printResults(testName, error, ZERO, "");
 355              		.loc 1 193 0
 356 0074 034B     		ldr	r3, .L22
 357 0076 0022     		movs	r2, #0
 358 0078 0499     		ldr	r1, [sp, #16]
 359 007a 0598     		ldr	r0, [sp, #20]
 360 007c FFF7FEFF 		bl	testRunner_printResults
 361              	.LVL56:
 362              	.L18:
 194:packet_testing.c **** }
 363              		.loc 1 194 0 discriminator 1
 364 0080 21B0     		add	sp, sp, #132
 365              		@ sp needed
 366              	.LVL57:
 367              	.LVL58:
 368 0082 F0BD     		pop	{r4, r5, r6, r7, pc}
 369              	.L23:
 370              		.align	2
 371              	.L22:
 372 0084 00000000 		.word	.LC0
ARM GAS  C:\Users\ccheney\AppData\Local\Temp\ccB8VlRP.s 			page 11


 373 0088 04000000 		.word	.LC6
 374              		.cfi_endproc
 375              	.LFE40:
 376              		.size	test_packetCreation_packetVals, .-test_packetCreation_packetVals
 377              		.section	.text.test_sendPacket,"ax",%progbits
 378              		.align	2
 379              		.global	test_sendPacket
 380              		.code	16
 381              		.thumb_func
 382              		.type	test_sendPacket, %function
 383              	test_sendPacket:
 384              	.LFB41:
 195:packet_testing.c **** 
 196:packet_testing.c **** /*******************************************************************************
 197:packet_testing.c **** * Function Name: test_sendPacket()
 198:packet_testing.c **** ****************************************************************************//**
 199:packet_testing.c **** * \brief
 200:packet_testing.c **** *  Test the sending fucntion
 201:packet_testing.c **** *
 202:packet_testing.c **** * \param packetBuffer
 203:packet_testing.c **** *   Pointer to buffers
 204:packet_testing.c **** *
 205:packet_testing.c **** * \param testName
 206:packet_testing.c **** *   Name of test
 207:packet_testing.c **** *
 208:packet_testing.c **** * \param expectedPacket
 209:packet_testing.c **** *   Pointer to array that is evaluated against the created txBuffer packet
 210:packet_testing.c **** *
 211:packet_testing.c **** * \return
 212:packet_testing.c **** *   Boolean indicating if the test passed
 213:packet_testing.c **** *******************************************************************************/
 214:packet_testing.c **** bool test_sendPacket(packets_BUFFER_FULL_S* packetBuffer, char* testName, uint32_t expectedResult){
 385              		.loc 1 214 0
 386              		.cfi_startproc
 387              		@ args = 0, pretend = 0, frame = 0
 388              		@ frame_needed = 0, uses_anonymous_args = 0
 389              	.LVL59:
 390 0000 70B5     		push	{r4, r5, r6, lr}
 391              		.cfi_def_cfa_offset 16
 392              		.cfi_offset 4, -16
 393              		.cfi_offset 5, -12
 394              		.cfi_offset 6, -8
 395              		.cfi_offset 14, -4
 396 0002 0C00     		movs	r4, r1
 397 0004 1500     		movs	r5, r2
 215:packet_testing.c ****     /* Send the packet */
 216:packet_testing.c ****     uint32 error = packets_sendPacket(packetBuffer);
 398              		.loc 1 216 0
 399 0006 FFF7FEFF 		bl	packets_sendPacket
 400              	.LVL60:
 401 000a 0100     		movs	r1, r0
 402              	.LVL61:
 217:packet_testing.c ****     /* Display the results */
 218:packet_testing.c ****     return testRunner_printResults(testName, error, expectedResult, "");
 403              		.loc 1 218 0
 404 000c 024B     		ldr	r3, .L25
 405 000e 2A00     		movs	r2, r5
ARM GAS  C:\Users\ccheney\AppData\Local\Temp\ccB8VlRP.s 			page 12


 406 0010 2000     		movs	r0, r4
 407              	.LVL62:
 408 0012 FFF7FEFF 		bl	testRunner_printResults
 409              	.LVL63:
 219:packet_testing.c **** }
 410              		.loc 1 219 0
 411              		@ sp needed
 412              	.LVL64:
 413              	.LVL65:
 414 0016 70BD     		pop	{r4, r5, r6, pc}
 415              	.L26:
 416              		.align	2
 417              	.L25:
 418 0018 00000000 		.word	.LC0
 419              		.cfi_endproc
 420              	.LFE41:
 421              		.size	test_sendPacket, .-test_sendPacket
 422              		.section	.text.test_processRxByte_stateError,"ax",%progbits
 423              		.align	2
 424              		.global	test_processRxByte_stateError
 425              		.code	16
 426              		.thumb_func
 427              		.type	test_processRxByte_stateError, %function
 428              	test_processRxByte_stateError:
 429              	.LFB42:
 220:packet_testing.c **** 
 221:packet_testing.c ****     
 222:packet_testing.c **** /*******************************************************************************
 223:packet_testing.c **** * Function Name: test_processRxByte_stateError()
 224:packet_testing.c **** ****************************************************************************//**
 225:packet_testing.c **** * \brief
 226:packet_testing.c **** *  Runner that assists with unit tests of generating buffers
 227:packet_testing.c **** *
 228:packet_testing.c **** * \param packetBuffer
 229:packet_testing.c **** *   Pointer to buffers
 230:packet_testing.c **** *
 231:packet_testing.c **** * \param bytes
 232:packet_testing.c **** *   Next byte of data
 233:packet_testing.c **** *
 234:packet_testing.c **** * \param testName
 235:packet_testing.c **** *   Name of test
 236:packet_testing.c **** *
 237:packet_testing.c **** * \param expectedResult
 238:packet_testing.c **** *   The Error code of the expected result
 239:packet_testing.c **** *
 240:packet_testing.c **** * \return
 241:packet_testing.c **** *   Boolean indicating if the test passed
 242:packet_testing.c **** *******************************************************************************/
 243:packet_testing.c **** bool test_processRxByte_stateError(packets_BUFFER_FULL_S* packetBuffer, uint8_t * dataArr, uint16 l
 430              		.loc 1 243 0
 431              		.cfi_startproc
 432              		@ args = 4, pretend = 0, frame = 8
 433              		@ frame_needed = 0, uses_anonymous_args = 0
 434              	.LVL66:
 435 0000 F0B5     		push	{r4, r5, r6, r7, lr}
 436              		.cfi_def_cfa_offset 20
 437              		.cfi_offset 4, -20
ARM GAS  C:\Users\ccheney\AppData\Local\Temp\ccB8VlRP.s 			page 13


 438              		.cfi_offset 5, -16
 439              		.cfi_offset 6, -12
 440              		.cfi_offset 7, -8
 441              		.cfi_offset 14, -4
 442 0002 83B0     		sub	sp, sp, #12
 443              		.cfi_def_cfa_offset 32
 444 0004 0090     		str	r0, [sp]
 445 0006 0D00     		movs	r5, r1
 446 0008 1600     		movs	r6, r2
 447 000a 0193     		str	r3, [sp, #4]
 448              	.LVL67:
 244:packet_testing.c ****     uint32_t error = ZERO;
 245:packet_testing.c ****     uint16 i;
 246:packet_testing.c ****     for(i = ZERO; i < len; i++){
 449              		.loc 1 246 0
 450 000c 0024     		movs	r4, #0
 244:packet_testing.c ****     uint32_t error = ZERO;
 451              		.loc 1 244 0
 452 000e 0027     		movs	r7, #0
 453              		.loc 1 246 0
 454 0010 06E0     		b	.L28
 455              	.LVL68:
 456              	.L29:
 247:packet_testing.c ****         error |= packets_processRxByte(packetBuffer, dataArr[i]);
 457              		.loc 1 247 0 discriminator 3
 458 0012 295D     		ldrb	r1, [r5, r4]
 459 0014 0098     		ldr	r0, [sp]
 460 0016 FFF7FEFF 		bl	packets_processRxByte
 461              	.LVL69:
 462 001a 0743     		orrs	r7, r0
 463              	.LVL70:
 246:packet_testing.c ****         error |= packets_processRxByte(packetBuffer, dataArr[i]);
 464              		.loc 1 246 0 discriminator 3
 465 001c 0134     		adds	r4, r4, #1
 466              	.LVL71:
 467 001e A4B2     		uxth	r4, r4
 468              	.LVL72:
 469              	.L28:
 246:packet_testing.c ****         error |= packets_processRxByte(packetBuffer, dataArr[i]);
 470              		.loc 1 246 0 is_stmt 0 discriminator 1
 471 0020 B442     		cmp	r4, r6
 472 0022 F6D3     		bcc	.L29
 248:packet_testing.c ****     }
 249:packet_testing.c **** 
 250:packet_testing.c ****     /* flush the buffers */
 251:packet_testing.c ****     packets_flushBuffers(packetBuffer);
 473              		.loc 1 251 0 is_stmt 1
 474 0024 0098     		ldr	r0, [sp]
 475 0026 FFF7FEFF 		bl	packets_flushBuffers
 476              	.LVL73:
 252:packet_testing.c ****     /* Record the result */
 253:packet_testing.c ****     return testRunner_printResults(testName, error, expectedResult, "");
 477              		.loc 1 253 0
 478 002a 044B     		ldr	r3, .L30
 479 002c 089A     		ldr	r2, [sp, #32]
 480 002e 3900     		movs	r1, r7
 481 0030 0198     		ldr	r0, [sp, #4]
ARM GAS  C:\Users\ccheney\AppData\Local\Temp\ccB8VlRP.s 			page 14


 482 0032 FFF7FEFF 		bl	testRunner_printResults
 483              	.LVL74:
 254:packet_testing.c ****     
 255:packet_testing.c **** }
 484              		.loc 1 255 0
 485 0036 03B0     		add	sp, sp, #12
 486              	.LVL75:
 487              		@ sp needed
 488              	.LVL76:
 489              	.LVL77:
 490              	.LVL78:
 491 0038 F0BD     		pop	{r4, r5, r6, r7, pc}
 492              	.L31:
 493 003a C046     		.align	2
 494              	.L30:
 495 003c 00000000 		.word	.LC0
 496              		.cfi_endproc
 497              	.LFE42:
 498              		.size	test_processRxByte_stateError, .-test_processRxByte_stateError
 499              		.section	.text.test_packetParsing_stateErrors,"ax",%progbits
 500              		.align	2
 501              		.global	test_packetParsing_stateErrors
 502              		.code	16
 503              		.thumb_func
 504              		.type	test_packetParsing_stateErrors, %function
 505              	test_packetParsing_stateErrors:
 506              	.LFB43:
 256:packet_testing.c **** 
 257:packet_testing.c **** /*******************************************************************************
 258:packet_testing.c **** * Function Name: test_packetParsing_stateErrors()
 259:packet_testing.c **** ****************************************************************************//**
 260:packet_testing.c **** * \brief
 261:packet_testing.c **** *  Takes the data in the tx process buffer, passes it to the processRxByte,
 262:packet_testing.c **** *   then parses the data. Evaluate based on returned errors
 263:packet_testing.c **** *
 264:packet_testing.c **** * \param packetBuffer
 265:packet_testing.c **** *   Pointer to buffers
 266:packet_testing.c **** *
 267:packet_testing.c **** * \param testName
 268:packet_testing.c **** *   Name of test
 269:packet_testing.c **** *
 270:packet_testing.c **** * \param expectedResult
 271:packet_testing.c **** *   The Error code of the expected result
 272:packet_testing.c **** *
 273:packet_testing.c **** * \return
 274:packet_testing.c **** *   Boolean indicating if the test passed
 275:packet_testing.c **** *******************************************************************************/
 276:packet_testing.c **** bool test_packetParsing_stateErrors(packets_BUFFER_FULL_S* packetBuffer, char* testName, uint32_t e
 507              		.loc 1 276 0
 508              		.cfi_startproc
 509              		@ args = 0, pretend = 0, frame = 8
 510              		@ frame_needed = 0, uses_anonymous_args = 0
 511              	.LVL79:
 512 0000 F0B5     		push	{r4, r5, r6, r7, lr}
 513              		.cfi_def_cfa_offset 20
 514              		.cfi_offset 4, -20
 515              		.cfi_offset 5, -16
ARM GAS  C:\Users\ccheney\AppData\Local\Temp\ccB8VlRP.s 			page 15


 516              		.cfi_offset 6, -12
 517              		.cfi_offset 7, -8
 518              		.cfi_offset 14, -4
 519 0002 83B0     		sub	sp, sp, #12
 520              		.cfi_def_cfa_offset 32
 521 0004 0700     		movs	r7, r0
 522 0006 0191     		str	r1, [sp, #4]
 523 0008 1600     		movs	r6, r2
 277:packet_testing.c ****    /* Reset the RX Buffer */
 278:packet_testing.c ****     packets_flushRxBuffers(packetBuffer);
 524              		.loc 1 278 0
 525 000a FFF7FEFF 		bl	packets_flushRxBuffers
 526              	.LVL80:
 279:packet_testing.c ****     /* Send data to txProcessBuffer */
 280:packet_testing.c ****     uint32 error = packets_ERR_SUCCESS;
 281:packet_testing.c ****      /* 'Transfer' the data */
 282:packet_testing.c ****     uint16_t j;
 283:packet_testing.c ****     for(j=ZERO; j < packetBuffer->send.processBuffer.bufferIndex; j++){
 527              		.loc 1 283 0
 528 000e 0024     		movs	r4, #0
 280:packet_testing.c ****      /* 'Transfer' the data */
 529              		.loc 1 280 0
 530 0010 0025     		movs	r5, #0
 531              		.loc 1 283 0
 532 0012 09E0     		b	.L33
 533              	.LVL81:
 534              	.L35:
 284:packet_testing.c ****         if(!error){
 535              		.loc 1 284 0
 536 0014 002D     		cmp	r5, #0
 537 0016 05D1     		bne	.L34
 538              	.LBB3:
 285:packet_testing.c ****             uint8 dataByte = packetBuffer->send.processBuffer.buffer[j];
 539              		.loc 1 285 0
 540 0018 7B69     		ldr	r3, [r7, #20]
 541 001a 195D     		ldrb	r1, [r3, r4]
 542              	.LVL82:
 286:packet_testing.c ****             error |= packets_processRxByte(packetBuffer, dataByte);
 543              		.loc 1 286 0
 544 001c 3800     		movs	r0, r7
 545 001e FFF7FEFF 		bl	packets_processRxByte
 546              	.LVL83:
 547 0022 0543     		orrs	r5, r0
 548              	.LVL84:
 549              	.L34:
 550              	.LBE3:
 283:packet_testing.c ****         if(!error){
 551              		.loc 1 283 0 discriminator 2
 552 0024 0134     		adds	r4, r4, #1
 553              	.LVL85:
 554 0026 A4B2     		uxth	r4, r4
 555              	.LVL86:
 556              	.L33:
 283:packet_testing.c ****         if(!error){
 557              		.loc 1 283 0 is_stmt 0 discriminator 1
 558 0028 7B8B     		ldrh	r3, [r7, #26]
 559 002a 9C42     		cmp	r4, r3
ARM GAS  C:\Users\ccheney\AppData\Local\Temp\ccB8VlRP.s 			page 16


 560 002c F2D3     		bcc	.L35
 287:packet_testing.c ****         }
 288:packet_testing.c ****     }
 289:packet_testing.c ****     if(!error){
 561              		.loc 1 289 0 is_stmt 1
 562 002e 002D     		cmp	r5, #0
 563 0030 03D1     		bne	.L36
 290:packet_testing.c ****         /* Parse the packet */
 291:packet_testing.c ****         error |= packets_parsePacket(packetBuffer);
 564              		.loc 1 291 0
 565 0032 3800     		movs	r0, r7
 566 0034 FFF7FEFF 		bl	packets_parsePacket
 567              	.LVL87:
 568 0038 0543     		orrs	r5, r0
 569              	.LVL88:
 570              	.L36:
 292:packet_testing.c ****     }   
 293:packet_testing.c ****     /* Flush TX buffers */
 294:packet_testing.c ****     packets_flushTxBuffers(packetBuffer);
 571              		.loc 1 294 0
 572 003a 3800     		movs	r0, r7
 573 003c FFF7FEFF 		bl	packets_flushTxBuffers
 574              	.LVL89:
 295:packet_testing.c ****         
 296:packet_testing.c ****     return testRunner_printResults(testName, error, expectedResult, "");
 575              		.loc 1 296 0
 576 0040 034B     		ldr	r3, .L37
 577 0042 3200     		movs	r2, r6
 578 0044 2900     		movs	r1, r5
 579 0046 0198     		ldr	r0, [sp, #4]
 580 0048 FFF7FEFF 		bl	testRunner_printResults
 581              	.LVL90:
 297:packet_testing.c **** }
 582              		.loc 1 297 0
 583 004c 03B0     		add	sp, sp, #12
 584              		@ sp needed
 585              	.LVL91:
 586              	.LVL92:
 587              	.LVL93:
 588              	.LVL94:
 589 004e F0BD     		pop	{r4, r5, r6, r7, pc}
 590              	.L38:
 591              		.align	2
 592              	.L37:
 593 0050 00000000 		.word	.LC0
 594              		.cfi_endproc
 595              	.LFE43:
 596              		.size	test_packetParsing_stateErrors, .-test_packetParsing_stateErrors
 597              		.section	.text.comparePackets,"ax",%progbits
 598              		.align	2
 599              		.global	comparePackets
 600              		.code	16
 601              		.thumb_func
 602              		.type	comparePackets, %function
 603              	comparePackets:
 604              	.LFB46:
 298:packet_testing.c **** 
ARM GAS  C:\Users\ccheney\AppData\Local\Temp\ccB8VlRP.s 			page 17


 299:packet_testing.c **** /*******************************************************************************
 300:packet_testing.c **** * Function Name: test_packetParsing_packetVals()
 301:packet_testing.c **** ****************************************************************************//**
 302:packet_testing.c **** * \brief
 303:packet_testing.c **** *  Takes the data in the tx process buffer, passes it to the processRxByte,
 304:packet_testing.c **** *   then parses the data
 305:packet_testing.c **** *
 306:packet_testing.c **** * \param packetBuffer
 307:packet_testing.c **** *   Pointer to buffers
 308:packet_testing.c **** *
 309:packet_testing.c **** * \param testName
 310:packet_testing.c **** *   Name of test
 311:packet_testing.c **** *
 312:packet_testing.c **** * \param expectedResult
 313:packet_testing.c **** *   The Error code of the expected result
 314:packet_testing.c **** *
 315:packet_testing.c **** * \return
 316:packet_testing.c **** *   Boolean indicating if the test passed
 317:packet_testing.c **** *******************************************************************************/
 318:packet_testing.c **** bool test_packetParsing_packetVals(packets_BUFFER_FULL_S* packetBuffer, char* testName, packets_PAC
 319:packet_testing.c ****        /* Reset the RX Buffer */
 320:packet_testing.c ****     packets_flushRxBuffers(packetBuffer);
 321:packet_testing.c ****     /* Send data to txProcessBuffer */
 322:packet_testing.c ****     uint32 error = packets_ERR_SUCCESS;
 323:packet_testing.c ****      /* 'Transfer' the data */
 324:packet_testing.c ****     uint16_t j;
 325:packet_testing.c ****     for(j=ZERO; j < packetBuffer->send.processBuffer.bufferIndex; j++){
 326:packet_testing.c ****         if(!error){
 327:packet_testing.c ****             uint8 dataByte = packetBuffer->send.processBuffer.buffer[j];
 328:packet_testing.c ****             error |= packets_processRxByte(packetBuffer, dataByte);
 329:packet_testing.c ****         }
 330:packet_testing.c ****     }
 331:packet_testing.c ****     if(!error){
 332:packet_testing.c ****         /* Parse the packet */
 333:packet_testing.c ****         error |= packets_parsePacket(packetBuffer);
 334:packet_testing.c ****     }
 335:packet_testing.c ****     
 336:packet_testing.c ****     /* Compare the packets */
 337:packet_testing.c ****     bool match = comparePackets( &(packetBuffer->receive.packet), expectedPacket);
 338:packet_testing.c ****     char msg[20] = "";
 339:packet_testing.c ****     if(!match){
 340:packet_testing.c ****         sprintf(msg, "Packets do not match");
 341:packet_testing.c ****     }
 342:packet_testing.c ****     /* Flush TX buffers */
 343:packet_testing.c ****     packets_flushTxBuffers(packetBuffer);
 344:packet_testing.c ****     return testRunner_printResults(testName, error, ZERO, msg);
 345:packet_testing.c **** }
 346:packet_testing.c **** 
 347:packet_testing.c **** /*******************************************************************************
 348:packet_testing.c **** * Function Name: comparePacketBuffer()
 349:packet_testing.c **** ****************************************************************************//**
 350:packet_testing.c **** * \brief
 351:packet_testing.c **** *  Compares two full buffers
 352:packet_testing.c **** *
 353:packet_testing.c **** * \param p1
 354:packet_testing.c **** *   Pointer to the first buffer
 355:packet_testing.c **** *
ARM GAS  C:\Users\ccheney\AppData\Local\Temp\ccB8VlRP.s 			page 18


 356:packet_testing.c **** * \param p2
 357:packet_testing.c **** *   Pointer to the second buffer
 358:packet_testing.c **** *
 359:packet_testing.c **** * \return
 360:packet_testing.c **** *   Boolean indicating if the buffers match
 361:packet_testing.c **** *******************************************************************************/  
 362:packet_testing.c **** bool comparePacketBuffer(packets_BUFFER_FULL_S* b1, packets_BUFFER_FULL_S* b2){
 363:packet_testing.c ****     bool match = true;
 364:packet_testing.c ****     /* State */
 365:packet_testing.c ****     match &= b1->receive.bufferState == b2->receive.bufferState;
 366:packet_testing.c ****     /* Receive packet and buffer */
 367:packet_testing.c ****     match &= comparePackets(&(b1->receive.packet), &(b2->receive.packet));
 368:packet_testing.c ****     match &= compareProcessBuffer(&(b1->receive.processBuffer), &(b2->receive.processBuffer));
 369:packet_testing.c ****     /* send packet and buffer */
 370:packet_testing.c ****     match &= comparePackets(&(b1->send.packet), &(b2->send.packet));
 371:packet_testing.c ****     match &= compareProcessBuffer(&(b1->send.processBuffer), &(b2->send.processBuffer));
 372:packet_testing.c **** 
 373:packet_testing.c ****     return match;
 374:packet_testing.c **** }
 375:packet_testing.c **** 
 376:packet_testing.c **** 
 377:packet_testing.c **** /*******************************************************************************
 378:packet_testing.c **** * Function Name: comparePackets()
 379:packet_testing.c **** ****************************************************************************//**
 380:packet_testing.c **** * \brief
 381:packet_testing.c **** *  Compares two Send or Receive Buffers
 382:packet_testing.c **** *
 383:packet_testing.c **** * \param p1
 384:packet_testing.c **** *   Pointer to the first buffer
 385:packet_testing.c **** *
 386:packet_testing.c **** * \param p2
 387:packet_testing.c **** *   Pointer to the second buffer
 388:packet_testing.c **** *
 389:packet_testing.c **** * \return
 390:packet_testing.c **** *   Boolean indicating if the buffers match
 391:packet_testing.c **** *******************************************************************************/  
 392:packet_testing.c **** bool comparePackets(packets_PACKET_S* p1, packets_PACKET_S* p2){
 605              		.loc 1 392 0
 606              		.cfi_startproc
 607              		@ args = 0, pretend = 0, frame = 0
 608              		@ frame_needed = 0, uses_anonymous_args = 0
 609              	.LVL95:
 610 0000 F0B5     		push	{r4, r5, r6, r7, lr}
 611              		.cfi_def_cfa_offset 20
 612              		.cfi_offset 4, -20
 613              		.cfi_offset 5, -16
 614              		.cfi_offset 6, -12
 615              		.cfi_offset 7, -8
 616              		.cfi_offset 14, -4
 617 0002 5746     		mov	r7, r10
 618 0004 4E46     		mov	r6, r9
 619 0006 4546     		mov	r5, r8
 620 0008 E0B4     		push	{r5, r6, r7}
 621              		.cfi_def_cfa_offset 32
 622              		.cfi_offset 8, -32
 623              		.cfi_offset 9, -28
 624              		.cfi_offset 10, -24
ARM GAS  C:\Users\ccheney\AppData\Local\Temp\ccB8VlRP.s 			page 19


 625 000a 0400     		movs	r4, r0
 626              	.LVL96:
 393:packet_testing.c ****     bool match = true;
 394:packet_testing.c **** 
 395:packet_testing.c ****     match &= p1->moduleId == p2->moduleId;
 627              		.loc 1 395 0
 628 000c 0378     		ldrb	r3, [r0]
 629 000e 0A78     		ldrb	r2, [r1]
 630 0010 9A1A     		subs	r2, r3, r2
 631 0012 5642     		rsbs	r6, r2, #0
 632 0014 5641     		adcs	r6, r6, r2
 633              	.LVL97:
 396:packet_testing.c ****     match &= p1->cmd == p2->cmd;
 634              		.loc 1 396 0
 635 0016 4378     		ldrb	r3, [r0, #1]
 636 0018 4A78     		ldrb	r2, [r1, #1]
 637 001a 9A1A     		subs	r2, r3, r2
 638 001c 5042     		rsbs	r0, r2, #0
 639 001e 5041     		adcs	r0, r0, r2
 640              	.LVL98:
 641 0020 8146     		mov	r9, r0
 642              	.LVL99:
 397:packet_testing.c ****     match &= p1->payloadMax == p2->payloadMax;
 643              		.loc 1 397 0
 644 0022 2389     		ldrh	r3, [r4, #8]
 645 0024 0889     		ldrh	r0, [r1, #8]
 646 0026 1B1A     		subs	r3, r3, r0
 647 0028 5A42     		rsbs	r2, r3, #0
 648 002a 5A41     		adcs	r2, r2, r3
 649 002c 9046     		mov	r8, r2
 650              	.LVL100:
 398:packet_testing.c ****     match &= p1->payloadLen == p2->payloadLen;
 651              		.loc 1 398 0
 652 002e 6589     		ldrh	r5, [r4, #10]
 653 0030 4B89     		ldrh	r3, [r1, #10]
 654 0032 EB1A     		subs	r3, r5, r3
 655 0034 5A42     		rsbs	r2, r3, #0
 656 0036 5A41     		adcs	r2, r2, r3
 657 0038 9246     		mov	r10, r2
 658              	.LVL101:
 399:packet_testing.c ****     match &= p1->flags == p2->flags;
 659              		.loc 1 399 0
 660 003a E368     		ldr	r3, [r4, #12]
 661 003c CA68     		ldr	r2, [r1, #12]
 662 003e 9F1A     		subs	r7, r3, r2
 663 0040 7B42     		rsbs	r3, r7, #0
 664 0042 7B41     		adcs	r3, r3, r7
 665 0044 9C46     		mov	ip, r3
 666              	.LVL102:
 400:packet_testing.c ****     match &= p1->error == p2->error;
 667              		.loc 1 400 0
 668 0046 2369     		ldr	r3, [r4, #16]
 669 0048 0A69     		ldr	r2, [r1, #16]
 670 004a 9F1A     		subs	r7, r3, r2
 671 004c 7842     		rsbs	r0, r7, #0
 672 004e 7841     		adcs	r0, r0, r7
 673 0050 4A46     		mov	r2, r9
ARM GAS  C:\Users\ccheney\AppData\Local\Temp\ccB8VlRP.s 			page 20


 674 0052 3240     		ands	r2, r6
 675 0054 4346     		mov	r3, r8
 676 0056 1A40     		ands	r2, r3
 677 0058 5346     		mov	r3, r10
 678 005a 1340     		ands	r3, r2
 679 005c 6246     		mov	r2, ip
 680 005e 1340     		ands	r3, r2
 681 0060 1840     		ands	r0, r3
 682              	.LVL103:
 401:packet_testing.c ****     /* Compare each element of the payload if everything valid so far */
 402:packet_testing.c ****     if(match){
 683              		.loc 1 402 0
 684 0062 0BD1     		bne	.L43
 685              	.LBB4:
 686 0064 0DE0     		b	.L41
 687              	.LVL104:
 688              	.L42:
 403:packet_testing.c ****         uint16 i;
 404:packet_testing.c ****         for(i = ZERO; i < p1->payloadLen; i++){
 405:packet_testing.c ****             match &= p1->payload[i] == p2->payload[i];
 689              		.loc 1 405 0 discriminator 3
 690 0066 6268     		ldr	r2, [r4, #4]
 691 0068 D25C     		ldrb	r2, [r2, r3]
 692 006a 4E68     		ldr	r6, [r1, #4]
 693 006c F65C     		ldrb	r6, [r6, r3]
 694 006e 921B     		subs	r2, r2, r6
 695 0070 5742     		rsbs	r7, r2, #0
 696 0072 5741     		adcs	r7, r7, r2
 697 0074 3840     		ands	r0, r7
 698              	.LVL105:
 404:packet_testing.c ****             match &= p1->payload[i] == p2->payload[i];
 699              		.loc 1 404 0 discriminator 3
 700 0076 0133     		adds	r3, r3, #1
 701              	.LVL106:
 702 0078 9BB2     		uxth	r3, r3
 703              	.LVL107:
 704 007a 00E0     		b	.L40
 705              	.LVL108:
 706              	.L43:
 707              	.LBE4:
 708 007c 0023     		movs	r3, #0
 709              	.L40:
 710              	.LVL109:
 711              	.LBB5:
 404:packet_testing.c ****             match &= p1->payload[i] == p2->payload[i];
 712              		.loc 1 404 0 is_stmt 0 discriminator 1
 713 007e AB42     		cmp	r3, r5
 714 0080 F1D3     		bcc	.L42
 715              	.LVL110:
 716              	.L41:
 717              	.LBE5:
 406:packet_testing.c **** 
 407:packet_testing.c ****         }
 408:packet_testing.c ****     }
 409:packet_testing.c **** 
 410:packet_testing.c ****     return match;
 411:packet_testing.c **** }
ARM GAS  C:\Users\ccheney\AppData\Local\Temp\ccB8VlRP.s 			page 21


 718              		.loc 1 411 0 is_stmt 1
 719              		@ sp needed
 720              	.LVL111:
 721 0082 1CBC     		pop	{r2, r3, r4}
 722 0084 9046     		mov	r8, r2
 723 0086 9946     		mov	r9, r3
 724 0088 A246     		mov	r10, r4
 725 008a F0BD     		pop	{r4, r5, r6, r7, pc}
 726              		.cfi_endproc
 727              	.LFE46:
 728              		.size	comparePackets, .-comparePackets
 729              		.section	.text.test_packetParsing_packetVals,"ax",%progbits
 730              		.align	2
 731              		.global	test_packetParsing_packetVals
 732              		.code	16
 733              		.thumb_func
 734              		.type	test_packetParsing_packetVals, %function
 735              	test_packetParsing_packetVals:
 736              	.LFB44:
 318:packet_testing.c ****        /* Reset the RX Buffer */
 737              		.loc 1 318 0
 738              		.cfi_startproc
 739              		@ args = 0, pretend = 0, frame = 32
 740              		@ frame_needed = 0, uses_anonymous_args = 0
 741              	.LVL112:
 742 0000 F0B5     		push	{r4, r5, r6, r7, lr}
 743              		.cfi_def_cfa_offset 20
 744              		.cfi_offset 4, -20
 745              		.cfi_offset 5, -16
 746              		.cfi_offset 6, -12
 747              		.cfi_offset 7, -8
 748              		.cfi_offset 14, -4
 749 0002 89B0     		sub	sp, sp, #36
 750              		.cfi_def_cfa_offset 56
 751 0004 0700     		movs	r7, r0
 752 0006 0191     		str	r1, [sp, #4]
 753 0008 1600     		movs	r6, r2
 320:packet_testing.c ****     /* Send data to txProcessBuffer */
 754              		.loc 1 320 0
 755 000a FFF7FEFF 		bl	packets_flushRxBuffers
 756              	.LVL113:
 325:packet_testing.c ****         if(!error){
 757              		.loc 1 325 0
 758 000e 0024     		movs	r4, #0
 322:packet_testing.c ****      /* 'Transfer' the data */
 759              		.loc 1 322 0
 760 0010 0025     		movs	r5, #0
 325:packet_testing.c ****         if(!error){
 761              		.loc 1 325 0
 762 0012 09E0     		b	.L45
 763              	.LVL114:
 764              	.L47:
 326:packet_testing.c ****             uint8 dataByte = packetBuffer->send.processBuffer.buffer[j];
 765              		.loc 1 326 0
 766 0014 002D     		cmp	r5, #0
 767 0016 05D1     		bne	.L46
 768              	.LBB6:
ARM GAS  C:\Users\ccheney\AppData\Local\Temp\ccB8VlRP.s 			page 22


 327:packet_testing.c ****             error |= packets_processRxByte(packetBuffer, dataByte);
 769              		.loc 1 327 0
 770 0018 7B69     		ldr	r3, [r7, #20]
 771 001a 195D     		ldrb	r1, [r3, r4]
 772              	.LVL115:
 328:packet_testing.c ****         }
 773              		.loc 1 328 0
 774 001c 3800     		movs	r0, r7
 775 001e FFF7FEFF 		bl	packets_processRxByte
 776              	.LVL116:
 777 0022 0543     		orrs	r5, r0
 778              	.LVL117:
 779              	.L46:
 780              	.LBE6:
 325:packet_testing.c ****         if(!error){
 781              		.loc 1 325 0 discriminator 2
 782 0024 0134     		adds	r4, r4, #1
 783              	.LVL118:
 784 0026 A4B2     		uxth	r4, r4
 785              	.LVL119:
 786              	.L45:
 325:packet_testing.c ****         if(!error){
 787              		.loc 1 325 0 is_stmt 0 discriminator 1
 788 0028 7B8B     		ldrh	r3, [r7, #26]
 789 002a 9C42     		cmp	r4, r3
 790 002c F2D3     		bcc	.L47
 331:packet_testing.c ****         /* Parse the packet */
 791              		.loc 1 331 0 is_stmt 1
 792 002e 002D     		cmp	r5, #0
 793 0030 03D1     		bne	.L48
 333:packet_testing.c ****     }
 794              		.loc 1 333 0
 795 0032 3800     		movs	r0, r7
 796 0034 FFF7FEFF 		bl	packets_parsePacket
 797              	.LVL120:
 798 0038 0543     		orrs	r5, r0
 799              	.LVL121:
 800              	.L48:
 337:packet_testing.c ****     char msg[20] = "";
 801              		.loc 1 337 0
 802 003a 3800     		movs	r0, r7
 803 003c 2430     		adds	r0, r0, #36
 804 003e 3100     		movs	r1, r6
 805 0040 FFF7FEFF 		bl	comparePackets
 806              	.LVL122:
 807 0044 0400     		movs	r4, r0
 808              	.LVL123:
 338:packet_testing.c ****     if(!match){
 809              		.loc 1 338 0
 810 0046 0023     		movs	r3, #0
 811 0048 0393     		str	r3, [sp, #12]
 812 004a 1022     		movs	r2, #16
 813 004c 0021     		movs	r1, #0
 814 004e 04A8     		add	r0, sp, #16
 815 0050 FFF7FEFF 		bl	memset
 816              	.LVL124:
 339:packet_testing.c ****         sprintf(msg, "Packets do not match");
ARM GAS  C:\Users\ccheney\AppData\Local\Temp\ccB8VlRP.s 			page 23


 817              		.loc 1 339 0
 818 0054 002C     		cmp	r4, #0
 819 0056 09D1     		bne	.L49
 340:packet_testing.c ****     }
 820              		.loc 1 340 0
 821 0058 03A9     		add	r1, sp, #12
 822 005a 0A48     		ldr	r0, .L50
 823 005c 0B00     		movs	r3, r1
 824 005e 0200     		movs	r2, r0
 825 0060 13CA     		ldmia	r2!, {r0, r1, r4}
 826 0062 13C3     		stmia	r3!, {r0, r1, r4}
 827              	.LVL125:
 828 0064 03CA     		ldmia	r2!, {r0, r1}
 829 0066 03C3     		stmia	r3!, {r0, r1}
 830 0068 1278     		ldrb	r2, [r2]
 831 006a 1A70     		strb	r2, [r3]
 832              	.L49:
 343:packet_testing.c ****     return testRunner_printResults(testName, error, ZERO, msg);
 833              		.loc 1 343 0
 834 006c 3800     		movs	r0, r7
 835 006e FFF7FEFF 		bl	packets_flushTxBuffers
 836              	.LVL126:
 344:packet_testing.c **** }
 837              		.loc 1 344 0
 838 0072 03AB     		add	r3, sp, #12
 839 0074 0022     		movs	r2, #0
 840 0076 2900     		movs	r1, r5
 841 0078 0198     		ldr	r0, [sp, #4]
 842 007a FFF7FEFF 		bl	testRunner_printResults
 843              	.LVL127:
 345:packet_testing.c **** 
 844              		.loc 1 345 0
 845 007e 09B0     		add	sp, sp, #36
 846              		@ sp needed
 847              	.LVL128:
 848              	.LVL129:
 849              	.LVL130:
 850 0080 F0BD     		pop	{r4, r5, r6, r7, pc}
 851              	.L51:
 852 0082 C046     		.align	2
 853              	.L50:
 854 0084 38000000 		.word	.LC11
 855              		.cfi_endproc
 856              	.LFE44:
 857              		.size	test_packetParsing_packetVals, .-test_packetParsing_packetVals
 858              		.section	.text.compareProcessBuffer,"ax",%progbits
 859              		.align	2
 860              		.global	compareProcessBuffer
 861              		.code	16
 862              		.thumb_func
 863              		.type	compareProcessBuffer, %function
 864              	compareProcessBuffer:
 865              	.LFB47:
 412:packet_testing.c **** 
 413:packet_testing.c **** /*******************************************************************************
 414:packet_testing.c **** * Function Name: compareProcessBuffer()
 415:packet_testing.c **** ****************************************************************************//**
ARM GAS  C:\Users\ccheney\AppData\Local\Temp\ccB8VlRP.s 			page 24


 416:packet_testing.c **** * \brief
 417:packet_testing.c **** *  Compares two process Buffers
 418:packet_testing.c **** *
 419:packet_testing.c **** * \param p1
 420:packet_testing.c **** *   Pointer to the first buffer
 421:packet_testing.c **** *
 422:packet_testing.c **** * \param p2
 423:packet_testing.c **** *   Pointer to the second buffer
 424:packet_testing.c **** *
 425:packet_testing.c **** * \return
 426:packet_testing.c **** *   Boolean indicating if the buffers match
 427:packet_testing.c **** *******************************************************************************/  
 428:packet_testing.c **** bool compareProcessBuffer(packets_BUFFER_PROCESS_S* p1, packets_BUFFER_PROCESS_S* p2) {
 866              		.loc 1 428 0
 867              		.cfi_startproc
 868              		@ args = 0, pretend = 0, frame = 0
 869              		@ frame_needed = 0, uses_anonymous_args = 0
 870              	.LVL131:
 871 0000 F0B5     		push	{r4, r5, r6, r7, lr}
 872              		.cfi_def_cfa_offset 20
 873              		.cfi_offset 4, -20
 874              		.cfi_offset 5, -16
 875              		.cfi_offset 6, -12
 876              		.cfi_offset 7, -8
 877              		.cfi_offset 14, -4
 878 0002 0400     		movs	r4, r0
 879              	.LVL132:
 429:packet_testing.c ****     bool match = true;
 430:packet_testing.c **** 
 431:packet_testing.c ****     match &= p1->bufferLen == p2->bufferLen;
 880              		.loc 1 431 0
 881 0004 8588     		ldrh	r5, [r0, #4]
 882 0006 8B88     		ldrh	r3, [r1, #4]
 883 0008 EB1A     		subs	r3, r5, r3
 884 000a 5A42     		rsbs	r2, r3, #0
 885 000c 5A41     		adcs	r2, r2, r3
 886              	.LVL133:
 432:packet_testing.c ****     match &= p1->bufferIndex == p2->bufferIndex;
 887              		.loc 1 432 0
 888 000e C388     		ldrh	r3, [r0, #6]
 889 0010 C888     		ldrh	r0, [r1, #6]
 890              	.LVL134:
 891 0012 181A     		subs	r0, r3, r0
 892 0014 4742     		rsbs	r7, r0, #0
 893 0016 4741     		adcs	r7, r7, r0
 894              	.LVL135:
 433:packet_testing.c ****     match &= p1->timeCount == p2->timeCount;
 895              		.loc 1 433 0
 896 0018 A368     		ldr	r3, [r4, #8]
 897 001a 8868     		ldr	r0, [r1, #8]
 898 001c 1E1A     		subs	r6, r3, r0
 899 001e 7042     		rsbs	r0, r6, #0
 900 0020 7041     		adcs	r0, r0, r6
 901 0022 3B00     		movs	r3, r7
 902 0024 1340     		ands	r3, r2
 903 0026 1840     		ands	r0, r3
 904              	.LVL136:
ARM GAS  C:\Users\ccheney\AppData\Local\Temp\ccB8VlRP.s 			page 25


 434:packet_testing.c **** 
 435:packet_testing.c ****     uint16 i;
 436:packet_testing.c ****     for(i = ZERO; i < p1->bufferLen; i++){
 905              		.loc 1 436 0
 906 0028 0023     		movs	r3, #0
 907 002a 09E0     		b	.L53
 908              	.LVL137:
 909              	.L54:
 437:packet_testing.c ****         match &= p1->buffer[i] == p2->buffer[i];
 910              		.loc 1 437 0 discriminator 3
 911 002c 2268     		ldr	r2, [r4]
 912 002e D25C     		ldrb	r2, [r2, r3]
 913 0030 0E68     		ldr	r6, [r1]
 914 0032 F65C     		ldrb	r6, [r6, r3]
 915 0034 921B     		subs	r2, r2, r6
 916 0036 5742     		rsbs	r7, r2, #0
 917 0038 5741     		adcs	r7, r7, r2
 918 003a 3840     		ands	r0, r7
 919              	.LVL138:
 436:packet_testing.c ****         match &= p1->buffer[i] == p2->buffer[i];
 920              		.loc 1 436 0 discriminator 3
 921 003c 0133     		adds	r3, r3, #1
 922              	.LVL139:
 923 003e 9BB2     		uxth	r3, r3
 924              	.LVL140:
 925              	.L53:
 436:packet_testing.c ****         match &= p1->buffer[i] == p2->buffer[i];
 926              		.loc 1 436 0 is_stmt 0 discriminator 1
 927 0040 AB42     		cmp	r3, r5
 928 0042 F3D3     		bcc	.L54
 438:packet_testing.c **** 
 439:packet_testing.c ****     }
 440:packet_testing.c **** 
 441:packet_testing.c ****     return match;
 442:packet_testing.c **** }
 929              		.loc 1 442 0 is_stmt 1
 930              		@ sp needed
 931              	.LVL141:
 932 0044 F0BD     		pop	{r4, r5, r6, r7, pc}
 933              		.cfi_endproc
 934              	.LFE47:
 935              		.size	compareProcessBuffer, .-compareProcessBuffer
 936 0046 C046     		.section	.text.comparePacketBuffer,"ax",%progbits
 937              		.align	2
 938              		.global	comparePacketBuffer
 939              		.code	16
 940              		.thumb_func
 941              		.type	comparePacketBuffer, %function
 942              	comparePacketBuffer:
 943              	.LFB45:
 362:packet_testing.c ****     bool match = true;
 944              		.loc 1 362 0
 945              		.cfi_startproc
 946              		@ args = 0, pretend = 0, frame = 0
 947              		@ frame_needed = 0, uses_anonymous_args = 0
 948              	.LVL142:
 949 0000 70B5     		push	{r4, r5, r6, lr}
ARM GAS  C:\Users\ccheney\AppData\Local\Temp\ccB8VlRP.s 			page 26


 950              		.cfi_def_cfa_offset 16
 951              		.cfi_offset 4, -16
 952              		.cfi_offset 5, -12
 953              		.cfi_offset 6, -8
 954              		.cfi_offset 14, -4
 955 0002 0500     		movs	r5, r0
 956 0004 0E00     		movs	r6, r1
 957              	.LVL143:
 365:packet_testing.c ****     /* Receive packet and buffer */
 958              		.loc 1 365 0
 959 0006 4422     		movs	r2, #68
 960 0008 835C     		ldrb	r3, [r0, r2]
 961 000a 8C5C     		ldrb	r4, [r1, r2]
 962 000c 1C1B     		subs	r4, r3, r4
 963 000e 6042     		rsbs	r0, r4, #0
 964 0010 4441     		adcs	r4, r4, r0
 965              	.LVL144:
 966 0012 E4B2     		uxtb	r4, r4
 967              	.LVL145:
 367:packet_testing.c ****     match &= compareProcessBuffer(&(b1->receive.processBuffer), &(b2->receive.processBuffer));
 968              		.loc 1 367 0
 969 0014 2431     		adds	r1, r1, #36
 970              	.LVL146:
 971 0016 2800     		movs	r0, r5
 972 0018 2430     		adds	r0, r0, #36
 973 001a FFF7FEFF 		bl	comparePackets
 974              	.LVL147:
 975 001e 0440     		ands	r4, r0
 976              	.LVL148:
 368:packet_testing.c ****     /* send packet and buffer */
 977              		.loc 1 368 0
 978 0020 3100     		movs	r1, r6
 979 0022 3831     		adds	r1, r1, #56
 980 0024 2800     		movs	r0, r5
 981 0026 3830     		adds	r0, r0, #56
 982 0028 FFF7FEFF 		bl	compareProcessBuffer
 983              	.LVL149:
 984 002c 0440     		ands	r4, r0
 985              	.LVL150:
 370:packet_testing.c ****     match &= compareProcessBuffer(&(b1->send.processBuffer), &(b2->send.processBuffer));
 986              		.loc 1 370 0
 987 002e 3100     		movs	r1, r6
 988 0030 2800     		movs	r0, r5
 989 0032 FFF7FEFF 		bl	comparePackets
 990              	.LVL151:
 991 0036 0440     		ands	r4, r0
 992              	.LVL152:
 371:packet_testing.c **** 
 993              		.loc 1 371 0
 994 0038 3100     		movs	r1, r6
 995 003a 1431     		adds	r1, r1, #20
 996 003c 2800     		movs	r0, r5
 997 003e 1430     		adds	r0, r0, #20
 998 0040 FFF7FEFF 		bl	compareProcessBuffer
 999              	.LVL153:
 373:packet_testing.c **** }
 1000              		.loc 1 373 0
ARM GAS  C:\Users\ccheney\AppData\Local\Temp\ccB8VlRP.s 			page 27


 1001 0044 2040     		ands	r0, r4
 1002              	.LVL154:
 374:packet_testing.c **** 
 1003              		.loc 1 374 0
 1004              		@ sp needed
 1005              	.LVL155:
 1006              	.LVL156:
 1007 0046 70BD     		pop	{r4, r5, r6, pc}
 1008              		.cfi_endproc
 1009              	.LFE45:
 1010              		.size	comparePacketBuffer, .-comparePacketBuffer
 1011              		.section	.rodata.str1.4,"aMS",%progbits,1
 1012              		.align	2
 1013              	.LC0:
 1014 0000 00       		.ascii	"\000"
 1015 0001 000000   		.space	3
 1016              	.LC6:
 1017 0004 4D69736D 		.ascii	"Mismatch at index [%d]: expect: 0x%02x, got: 0x%02x"
 1017      61746368 
 1017      20617420 
 1017      696E6465 
 1017      78205B25 
 1018 0037 00       		.ascii	"\000"
 1019              	.LC11:
 1020 0038 5061636B 		.ascii	"Packets do not match\000"
 1020      65747320 
 1020      646F206E 
 1020      6F74206D 
 1020      61746368 
 1021              		.text
 1022              	.Letext0:
 1023              		.file 2 "c:\\program files (x86)\\cypress\\psoc creator\\4.2\\psoc creator\\import\\gnu\\arm\\5.4.
 1024              		.file 3 "c:\\program files (x86)\\cypress\\psoc creator\\4.2\\psoc creator\\import\\gnu\\arm\\5.4.
 1025              		.file 4 "Generated_Source\\PSoC4/cytypes.h"
 1026              		.file 5 "Generated_Source\\PSoC4/packets.h"
 1027              		.file 6 "Generated_Source\\PSoC4/testRunner.h"
 1028              		.file 7 "c:\\program files (x86)\\cypress\\psoc creator\\4.2\\psoc creator\\import\\gnu\\arm\\5.4.