ARM GAS  C:\Users\ccheney\AppData\Local\Temp\ccHegA34.s 			page 1


   1              		.syntax unified
   2              		.cpu cortex-m0
   3              		.fpu softvfp
   4              		.eabi_attribute 20, 1
   5              		.eabi_attribute 21, 1
   6              		.eabi_attribute 23, 3
   7              		.eabi_attribute 24, 1
   8              		.eabi_attribute 25, 1
   9              		.eabi_attribute 26, 1
  10              		.eabi_attribute 30, 1
  11              		.eabi_attribute 34, 0
  12              		.eabi_attribute 18, 4
  13              		.thumb
  14              		.syntax unified
  15              		.file	"packets.c"
  16              		.text
  17              	.Ltext0:
  18              		.cfi_sections	.debug_frame
  19              		.section	.text.packets_initialize,"ax",%progbits
  20              		.align	2
  21              		.global	packets_initialize
  22              		.code	16
  23              		.thumb_func
  24              		.type	packets_initialize, %function
  25              	packets_initialize:
  26              	.LFB2:
  27              		.file 1 "Generated_Source\\PSoC4\\packets.c"
   1:Generated_Source\PSoC4/packets.c **** /***************************************************************************
   2:Generated_Source\PSoC4/packets.c **** *                                       MICA
   3:Generated_Source\PSoC4/packets.c **** * File: packets.c
   4:Generated_Source\PSoC4/packets.c **** * Workspace: micaComponents
   5:Generated_Source\PSoC4/packets.c **** * Project Name: libMica
   6:Generated_Source\PSoC4/packets.c **** * Version: v1.3
   7:Generated_Source\PSoC4/packets.c **** * Author: Craig Cheney
   8:Generated_Source\PSoC4/packets.c **** *
   9:Generated_Source\PSoC4/packets.c **** * Brief:
  10:Generated_Source\PSoC4/packets.c **** *   Binary packet specification for MICA
  11:Generated_Source\PSoC4/packets.c **** * 
  12:Generated_Source\PSoC4/packets.c **** * Authors:
  13:Generated_Source\PSoC4/packets.c **** *   Craig Cheney
  14:Generated_Source\PSoC4/packets.c **** *
  15:Generated_Source\PSoC4/packets.c **** * Change Log:
  16:Generated_Source\PSoC4/packets.c **** *   2018.04.19 CC - Document created
  17:Generated_Source\PSoC4/packets.c **** ********************************************************************************/
  18:Generated_Source\PSoC4/packets.c **** #include "packets.h"
  19:Generated_Source\PSoC4/packets.c **** #include "micaCommon.h"
  20:Generated_Source\PSoC4/packets.c **** #include "usbUart.h"
  21:Generated_Source\PSoC4/packets.c **** #include <stdlib.h>
  22:Generated_Source\PSoC4/packets.c **** 
  23:Generated_Source\PSoC4/packets.c **** 
  24:Generated_Source\PSoC4/packets.c **** /*******************************************************************************
  25:Generated_Source\PSoC4/packets.c **** * Function Name: packets_initialize()
  26:Generated_Source\PSoC4/packets.c **** ****************************************************************************//**
  27:Generated_Source\PSoC4/packets.c **** * \brief
  28:Generated_Source\PSoC4/packets.c **** *  Initializes the packet structure to default values
  29:Generated_Source\PSoC4/packets.c **** *
  30:Generated_Source\PSoC4/packets.c **** * \param buffer
ARM GAS  C:\Users\ccheney\AppData\Local\Temp\ccHegA34.s 			page 2


  31:Generated_Source\PSoC4/packets.c **** *   Pointer to the packet to be initialized. 
  32:Generated_Source\PSoC4/packets.c **** *
  33:Generated_Source\PSoC4/packets.c **** * \return
  34:Generated_Source\PSoC4/packets.c **** *  A number indicating the error code
  35:Generated_Source\PSoC4/packets.c **** *  Errors codes                             | Description
  36:Generated_Source\PSoC4/packets.c **** *   ------------                            | -----------
  37:Generated_Source\PSoC4/packets.c **** *   packets_ERR_SUCCESS            | On Successful init
  38:Generated_Source\PSoC4/packets.c **** *******************************************************************************/
  39:Generated_Source\PSoC4/packets.c **** uint32_t packets_initialize(packets_BUFFER_FULL_S *packetBuffer) {
  28              		.loc 1 39 0
  29              		.cfi_startproc
  30              		@ args = 0, pretend = 0, frame = 0
  31              		@ frame_needed = 0, uses_anonymous_args = 0
  32              		@ link register save eliminated.
  33              	.LVL0:
  40:Generated_Source\PSoC4/packets.c ****     uint32_t error = packets_ERR_SUCCESS;
  41:Generated_Source\PSoC4/packets.c ****     /*  Receive Local references */
  42:Generated_Source\PSoC4/packets.c ****     packets_BUFFER_PROCESS_S* rxBuffer = &(packetBuffer->send.processBuffer);
  43:Generated_Source\PSoC4/packets.c ****     packets_PACKET_S* rxPacket = &(packetBuffer->send.packet);
  44:Generated_Source\PSoC4/packets.c ****     /* Set send process buffer to zero */
  45:Generated_Source\PSoC4/packets.c ****     rxBuffer->buffer = NULL;
  34              		.loc 1 45 0
  35 0000 0023     		movs	r3, #0
  36 0002 4361     		str	r3, [r0, #20]
  46:Generated_Source\PSoC4/packets.c ****     rxBuffer->bufferLen = ZERO;
  37              		.loc 1 46 0
  38 0004 0022     		movs	r2, #0
  39 0006 0383     		strh	r3, [r0, #24]
  47:Generated_Source\PSoC4/packets.c ****     rxBuffer->timeCount = ZERO;
  40              		.loc 1 47 0
  41 0008 C361     		str	r3, [r0, #28]
  48:Generated_Source\PSoC4/packets.c ****     rxBuffer->bufferIndex = ZERO;
  42              		.loc 1 48 0
  43 000a 4383     		strh	r3, [r0, #26]
  49:Generated_Source\PSoC4/packets.c ****     /* Set packet values */
  50:Generated_Source\PSoC4/packets.c ****     rxPacket->moduleId = ZERO;
  44              		.loc 1 50 0
  45 000c 0270     		strb	r2, [r0]
  51:Generated_Source\PSoC4/packets.c ****     rxPacket->cmd = ZERO;
  46              		.loc 1 51 0
  47 000e 4270     		strb	r2, [r0, #1]
  52:Generated_Source\PSoC4/packets.c ****     rxPacket->payload = NULL;
  48              		.loc 1 52 0
  49 0010 4360     		str	r3, [r0, #4]
  53:Generated_Source\PSoC4/packets.c ****     rxPacket->payloadLen = ZERO;
  50              		.loc 1 53 0
  51 0012 4381     		strh	r3, [r0, #10]
  54:Generated_Source\PSoC4/packets.c ****     rxPacket->payloadMax = ZERO;
  52              		.loc 1 54 0
  53 0014 0381     		strh	r3, [r0, #8]
  55:Generated_Source\PSoC4/packets.c ****     rxPacket->flags = ZERO;
  54              		.loc 1 55 0
  55 0016 C360     		str	r3, [r0, #12]
  56:Generated_Source\PSoC4/packets.c ****     rxPacket->error = ZERO;
  56              		.loc 1 56 0
  57 0018 0361     		str	r3, [r0, #16]
  57:Generated_Source\PSoC4/packets.c **** 
ARM GAS  C:\Users\ccheney\AppData\Local\Temp\ccHegA34.s 			page 3


  58:Generated_Source\PSoC4/packets.c ****     /* Reset the state */
  59:Generated_Source\PSoC4/packets.c ****     packetBuffer->send.bufferState = packets_BUFFER_SEND_WAIT;
  58              		.loc 1 59 0
  59 001a 2021     		movs	r1, #32
  60 001c 4254     		strb	r2, [r0, r1]
  61              	.LVL1:
  60:Generated_Source\PSoC4/packets.c **** 
  61:Generated_Source\PSoC4/packets.c ****     /*  Receive Local references */
  62:Generated_Source\PSoC4/packets.c ****     packets_BUFFER_PROCESS_S* txBuffer = &(packetBuffer->receive.processBuffer);
  63:Generated_Source\PSoC4/packets.c ****     packets_PACKET_S* txPacket = &(packetBuffer->receive.packet);
  64:Generated_Source\PSoC4/packets.c ****     /* Set receive process buffer to zero */
  65:Generated_Source\PSoC4/packets.c ****     txBuffer->buffer = NULL;
  62              		.loc 1 65 0
  63 001e 8363     		str	r3, [r0, #56]
  66:Generated_Source\PSoC4/packets.c ****     txBuffer->bufferLen = ZERO;
  64              		.loc 1 66 0
  65 0020 8387     		strh	r3, [r0, #60]
  67:Generated_Source\PSoC4/packets.c ****     txBuffer->timeCount = ZERO;
  66              		.loc 1 67 0
  67 0022 0364     		str	r3, [r0, #64]
  68:Generated_Source\PSoC4/packets.c ****     txBuffer->bufferIndex = ZERO;
  68              		.loc 1 68 0
  69 0024 C387     		strh	r3, [r0, #62]
  69:Generated_Source\PSoC4/packets.c ****     /* Set the packet values */
  70:Generated_Source\PSoC4/packets.c ****     txPacket->moduleId = ZERO;
  70              		.loc 1 70 0
  71 0026 0431     		adds	r1, r1, #4
  72 0028 4254     		strb	r2, [r0, r1]
  71:Generated_Source\PSoC4/packets.c ****     txPacket->cmd = ZERO;
  73              		.loc 1 71 0
  74 002a 0100     		movs	r1, r0
  75 002c 2431     		adds	r1, r1, #36
  76              	.LVL2:
  77 002e 4A70     		strb	r2, [r1, #1]
  72:Generated_Source\PSoC4/packets.c ****     txPacket->payload = NULL;
  78              		.loc 1 72 0
  79 0030 8362     		str	r3, [r0, #40]
  73:Generated_Source\PSoC4/packets.c ****     txPacket->payloadLen = ZERO;
  80              		.loc 1 73 0
  81 0032 C385     		strh	r3, [r0, #46]
  74:Generated_Source\PSoC4/packets.c ****     txPacket->payloadMax = ZERO;
  82              		.loc 1 74 0
  83 0034 8385     		strh	r3, [r0, #44]
  75:Generated_Source\PSoC4/packets.c ****     txPacket->flags = ZERO;
  84              		.loc 1 75 0
  85 0036 0363     		str	r3, [r0, #48]
  76:Generated_Source\PSoC4/packets.c ****     txPacket->error = ZERO;
  86              		.loc 1 76 0
  87 0038 4363     		str	r3, [r0, #52]
  77:Generated_Source\PSoC4/packets.c ****     /* Reset the tx state */
  78:Generated_Source\PSoC4/packets.c ****     packetBuffer->receive.bufferState = packets_BUFFER_RECEIVE_WAIT_FOR_START;
  88              		.loc 1 78 0
  89 003a 4433     		adds	r3, r3, #68
  90 003c C254     		strb	r2, [r0, r3]
  79:Generated_Source\PSoC4/packets.c **** 
  80:Generated_Source\PSoC4/packets.c ****     return error;
  81:Generated_Source\PSoC4/packets.c **** }
ARM GAS  C:\Users\ccheney\AppData\Local\Temp\ccHegA34.s 			page 4


  91              		.loc 1 81 0
  92 003e 0020     		movs	r0, #0
  93              	.LVL3:
  94              		@ sp needed
  95 0040 7047     		bx	lr
  96              		.cfi_endproc
  97              	.LFE2:
  98              		.size	packets_initialize, .-packets_initialize
  99 0042 C046     		.section	.text.packets_generateBuffers,"ax",%progbits
 100              		.align	2
 101              		.global	packets_generateBuffers
 102              		.code	16
 103              		.thumb_func
 104              		.type	packets_generateBuffers, %function
 105              	packets_generateBuffers:
 106              	.LFB3:
  82:Generated_Source\PSoC4/packets.c **** 
  83:Generated_Source\PSoC4/packets.c **** /*******************************************************************************
  84:Generated_Source\PSoC4/packets.c **** * Function Name: packets_generateBuffers()
  85:Generated_Source\PSoC4/packets.c **** ****************************************************************************//**
  86:Generated_Source\PSoC4/packets.c **** * \brief
  87:Generated_Source\PSoC4/packets.c **** *  Allocates memory for a new packet buffer
  88:Generated_Source\PSoC4/packets.c **** *
  89:Generated_Source\PSoC4/packets.c **** * \param buffer
  90:Generated_Source\PSoC4/packets.c **** *   Pointer to the packet to be initialized. 
  91:Generated_Source\PSoC4/packets.c **** *
  92:Generated_Source\PSoC4/packets.c **** * \return
  93:Generated_Source\PSoC4/packets.c **** *  A number indicating the error code
  94:Generated_Source\PSoC4/packets.c **** *  Errors codes                             | Description
  95:Generated_Source\PSoC4/packets.c **** *   ------------                            | -----------
  96:Generated_Source\PSoC4/packets.c **** *   packets_ERR_SUCCESS            | On Successful init
  97:Generated_Source\PSoC4/packets.c **** *******************************************************************************/
  98:Generated_Source\PSoC4/packets.c **** uint32_t packets_generateBuffers(packets_BUFFER_FULL_S *packetBuffer, uint16_t bufferSize) {
 107              		.loc 1 98 0
 108              		.cfi_startproc
 109              		@ args = 0, pretend = 0, frame = 0
 110              		@ frame_needed = 0, uses_anonymous_args = 0
 111              	.LVL4:
 112 0000 F0B5     		push	{r4, r5, r6, r7, lr}
 113              		.cfi_def_cfa_offset 20
 114              		.cfi_offset 4, -20
 115              		.cfi_offset 5, -16
 116              		.cfi_offset 6, -12
 117              		.cfi_offset 7, -8
 118              		.cfi_offset 14, -4
 119 0002 4746     		mov	r7, r8
 120 0004 80B4     		push	{r7}
 121              		.cfi_def_cfa_offset 24
 122              		.cfi_offset 8, -24
 123 0006 0400     		movs	r4, r0
 124 0008 0E00     		movs	r6, r1
 125              	.LVL5:
  99:Generated_Source\PSoC4/packets.c ****     uint32_t error = packets_ERR_SUCCESS;
 100:Generated_Source\PSoC4/packets.c ****     /* Local References */
 101:Generated_Source\PSoC4/packets.c ****     packets_BUFFER_PROCESS_S* rxBuffer = &(packetBuffer->receive.processBuffer);
 102:Generated_Source\PSoC4/packets.c ****     packets_BUFFER_PROCESS_S* txBuffer = &(packetBuffer->send.processBuffer);
 103:Generated_Source\PSoC4/packets.c ****     uint8_t* rxPayload = packetBuffer->receive.packet.payload;
ARM GAS  C:\Users\ccheney\AppData\Local\Temp\ccHegA34.s 			page 5


 126              		.loc 1 103 0
 127 000a 836A     		ldr	r3, [r0, #40]
 128              	.LVL6:
 104:Generated_Source\PSoC4/packets.c ****     
 105:Generated_Source\PSoC4/packets.c ****     /* Make sure that buffers have not already been allocated */
 106:Generated_Source\PSoC4/packets.c ****     if(rxBuffer->buffer != NULL || txBuffer->buffer != NULL || rxPayload != NULL){
 129              		.loc 1 106 0
 130 000c 826B     		ldr	r2, [r0, #56]
 131 000e 002A     		cmp	r2, #0
 132 0010 06D1     		bne	.L11
 133              		.loc 1 106 0 is_stmt 0 discriminator 1
 134 0012 4269     		ldr	r2, [r0, #20]
 135 0014 002A     		cmp	r2, #0
 136 0016 06D1     		bne	.L12
 137              		.loc 1 106 0 discriminator 2
 138 0018 002B     		cmp	r3, #0
 139 001a 07D1     		bne	.L13
  99:Generated_Source\PSoC4/packets.c ****     uint32_t error = packets_ERR_SUCCESS;
 140              		.loc 1 99 0 is_stmt 1
 141 001c 0025     		movs	r5, #0
 142 001e 07E0     		b	.L3
 143              	.L11:
 107:Generated_Source\PSoC4/packets.c ****         error |= packets_ERR_STATE;
 144              		.loc 1 107 0
 145 0020 8025     		movs	r5, #128
 146 0022 ED00     		lsls	r5, r5, #3
 147 0024 04E0     		b	.L3
 148              	.L12:
 149 0026 8025     		movs	r5, #128
 150 0028 ED00     		lsls	r5, r5, #3
 151 002a 01E0     		b	.L3
 152              	.L13:
 153 002c 8025     		movs	r5, #128
 154 002e ED00     		lsls	r5, r5, #3
 155              	.L3:
 156              	.LVL7:
 108:Generated_Source\PSoC4/packets.c ****     }
 109:Generated_Source\PSoC4/packets.c **** 
 110:Generated_Source\PSoC4/packets.c ****     if(!error) {
 157              		.loc 1 110 0
 158 0030 002D     		cmp	r5, #0
 159 0032 31D1     		bne	.L4
 160              	.LBB2:
 111:Generated_Source\PSoC4/packets.c ****         /* Create receive process buffer */
 112:Generated_Source\PSoC4/packets.c ****         uint8* processRxBufferAdr = (uint8 *) calloc(ONE, bufferSize);
 161              		.loc 1 112 0
 162 0034 3100     		movs	r1, r6
 163              	.LVL8:
 164 0036 0120     		movs	r0, #1
 165              	.LVL9:
 166 0038 FFF7FEFF 		bl	calloc
 167              	.LVL10:
 168 003c 071E     		subs	r7, r0, #0
 169              	.LVL11:
 113:Generated_Source\PSoC4/packets.c ****         if(processRxBufferAdr == NULL){
 170              		.loc 1 113 0
 171 003e 02D1     		bne	.L5
ARM GAS  C:\Users\ccheney\AppData\Local\Temp\ccHegA34.s 			page 6


 114:Generated_Source\PSoC4/packets.c ****             error |= packets_ERR_MEMORY; 
 172              		.loc 1 114 0
 173 0040 0123     		movs	r3, #1
 174 0042 1D43     		orrs	r5, r3
 175              	.LVL12:
 115:Generated_Source\PSoC4/packets.c ****             /* Do not try to allocate again */
 116:Generated_Source\PSoC4/packets.c ****             goto packets_clean1;
 176              		.loc 1 116 0
 177 0044 25E0     		b	.L6
 178              	.L5:
 117:Generated_Source\PSoC4/packets.c ****         }
 118:Generated_Source\PSoC4/packets.c ****         packetBuffer->receive.processBuffer.buffer = processRxBufferAdr;
 179              		.loc 1 118 0
 180 0046 A063     		str	r0, [r4, #56]
 119:Generated_Source\PSoC4/packets.c ****         packetBuffer->receive.processBuffer.bufferLen = bufferSize;
 181              		.loc 1 119 0
 182 0048 A687     		strh	r6, [r4, #60]
 120:Generated_Source\PSoC4/packets.c **** 
 121:Generated_Source\PSoC4/packets.c ****         /* Create Send process buffer */
 122:Generated_Source\PSoC4/packets.c ****         uint8* processTxBufferAdr = (uint8 *) calloc(ONE, bufferSize);
 183              		.loc 1 122 0
 184 004a 3100     		movs	r1, r6
 185 004c 0120     		movs	r0, #1
 186              	.LVL13:
 187 004e FFF7FEFF 		bl	calloc
 188              	.LVL14:
 189 0052 8046     		mov	r8, r0
 190              	.LVL15:
 123:Generated_Source\PSoC4/packets.c ****         if(processTxBufferAdr == NULL){
 191              		.loc 1 123 0
 192 0054 031E     		subs	r3, r0, #0
 193 0056 02D1     		bne	.L7
 124:Generated_Source\PSoC4/packets.c ****             error |= packets_ERR_MEMORY; 
 194              		.loc 1 124 0
 195 0058 0133     		adds	r3, r3, #1
 196 005a 1D43     		orrs	r5, r3
 197              	.LVL16:
 125:Generated_Source\PSoC4/packets.c ****             goto packets_clean2;
 198              		.loc 1 125 0
 199 005c 16E0     		b	.L8
 200              	.L7:
 126:Generated_Source\PSoC4/packets.c ****         }
 127:Generated_Source\PSoC4/packets.c ****         packetBuffer->send.processBuffer.buffer = processTxBufferAdr;
 201              		.loc 1 127 0
 202 005e 6061     		str	r0, [r4, #20]
 128:Generated_Source\PSoC4/packets.c ****         packetBuffer->send.processBuffer.bufferLen = bufferSize;
 203              		.loc 1 128 0
 204 0060 2683     		strh	r6, [r4, #24]
 129:Generated_Source\PSoC4/packets.c ****         
 130:Generated_Source\PSoC4/packets.c ****         /*  Create the rxPayload */
 131:Generated_Source\PSoC4/packets.c ****         uint8* rxPayloadAdr = (uint8 *) calloc(ONE, bufferSize);
 205              		.loc 1 131 0
 206 0062 3100     		movs	r1, r6
 207 0064 0120     		movs	r0, #1
 208              	.LVL17:
 209 0066 FFF7FEFF 		bl	calloc
 210              	.LVL18:
ARM GAS  C:\Users\ccheney\AppData\Local\Temp\ccHegA34.s 			page 7


 132:Generated_Source\PSoC4/packets.c ****         if(rxPayloadAdr == NULL){
 211              		.loc 1 132 0
 212 006a 0028     		cmp	r0, #0
 213 006c 02D1     		bne	.L9
 133:Generated_Source\PSoC4/packets.c ****             error |= packets_ERR_MEMORY; 
 214              		.loc 1 133 0
 215 006e 0123     		movs	r3, #1
 216 0070 1D43     		orrs	r5, r3
 217              	.LVL19:
 134:Generated_Source\PSoC4/packets.c ****             goto packets_clean3;
 218              		.loc 1 134 0
 219 0072 09E0     		b	.L10
 220              	.L9:
 135:Generated_Source\PSoC4/packets.c ****         }
 136:Generated_Source\PSoC4/packets.c ****         packetBuffer->receive.packet.payload = rxPayloadAdr;
 221              		.loc 1 136 0
 222 0074 A062     		str	r0, [r4, #40]
 137:Generated_Source\PSoC4/packets.c ****         packetBuffer->receive.packet.payloadMax = bufferSize;
 223              		.loc 1 137 0
 224 0076 A685     		strh	r6, [r4, #44]
 138:Generated_Source\PSoC4/packets.c ****         
 139:Generated_Source\PSoC4/packets.c ****         /* Set initial values to zero */
 140:Generated_Source\PSoC4/packets.c ****         packetBuffer->receive.bufferState = packets_BUFFER_RECEIVE_WAIT_FOR_START;
 225              		.loc 1 140 0
 226 0078 0023     		movs	r3, #0
 227 007a 4422     		movs	r2, #68
 228 007c A354     		strb	r3, [r4, r2]
 141:Generated_Source\PSoC4/packets.c ****         packetBuffer->send.bufferState = packets_BUFFER_SEND_WAIT;
 229              		.loc 1 141 0
 230 007e 243A     		subs	r2, r2, #36
 231 0080 A354     		strb	r3, [r4, r2]
 142:Generated_Source\PSoC4/packets.c ****         packetBuffer->send.packet.payloadMax = ZERO;
 232              		.loc 1 142 0
 233 0082 2381     		strh	r3, [r4, #8]
 143:Generated_Source\PSoC4/packets.c **** 
 144:Generated_Source\PSoC4/packets.c ****         /* Clean up on error */
 145:Generated_Source\PSoC4/packets.c ****         if(error) {  
 234              		.loc 1 145 0
 235 0084 002D     		cmp	r5, #0
 236 0086 07D0     		beq	.L4
 237              	.L10:
 146:Generated_Source\PSoC4/packets.c **** packets_clean3:
 147:Generated_Source\PSoC4/packets.c ****             free(rxPayloadAdr);
 238              		.loc 1 147 0
 239 0088 FFF7FEFF 		bl	free
 240              	.LVL20:
 241              	.L8:
 148:Generated_Source\PSoC4/packets.c **** packets_clean2:
 149:Generated_Source\PSoC4/packets.c ****             free(processTxBufferAdr);
 242              		.loc 1 149 0
 243 008c 4046     		mov	r0, r8
 244 008e FFF7FEFF 		bl	free
 245              	.LVL21:
 246              	.L6:
 150:Generated_Source\PSoC4/packets.c **** packets_clean1:
 151:Generated_Source\PSoC4/packets.c ****             free(processRxBufferAdr);
 247              		.loc 1 151 0
ARM GAS  C:\Users\ccheney\AppData\Local\Temp\ccHegA34.s 			page 8


 248 0092 3800     		movs	r0, r7
 249 0094 FFF7FEFF 		bl	free
 250              	.LVL22:
 251              	.L4:
 252              	.LBE2:
 152:Generated_Source\PSoC4/packets.c ****         }
 153:Generated_Source\PSoC4/packets.c ****     }
 154:Generated_Source\PSoC4/packets.c ****     /* return error flags */
 155:Generated_Source\PSoC4/packets.c ****     return error;
 156:Generated_Source\PSoC4/packets.c **** }
 253              		.loc 1 156 0
 254 0098 2800     		movs	r0, r5
 255              		@ sp needed
 256              	.LVL23:
 257              	.LVL24:
 258 009a 04BC     		pop	{r2}
 259 009c 9046     		mov	r8, r2
 260 009e F0BD     		pop	{r4, r5, r6, r7, pc}
 261              		.cfi_endproc
 262              	.LFE3:
 263              		.size	packets_generateBuffers, .-packets_generateBuffers
 264              		.section	.text.packets_destoryBuffers,"ax",%progbits
 265              		.align	2
 266              		.global	packets_destoryBuffers
 267              		.code	16
 268              		.thumb_func
 269              		.type	packets_destoryBuffers, %function
 270              	packets_destoryBuffers:
 271              	.LFB4:
 157:Generated_Source\PSoC4/packets.c **** 
 158:Generated_Source\PSoC4/packets.c **** /*******************************************************************************
 159:Generated_Source\PSoC4/packets.c **** * Function Name: packets_destoryBuffers()
 160:Generated_Source\PSoC4/packets.c **** ****************************************************************************//**
 161:Generated_Source\PSoC4/packets.c **** * \brief
 162:Generated_Source\PSoC4/packets.c **** *  Deallocates memory from a packet
 163:Generated_Source\PSoC4/packets.c **** *
 164:Generated_Source\PSoC4/packets.c **** * \param buffer
 165:Generated_Source\PSoC4/packets.c **** *   Pointer to the packet to be initialized. 
 166:Generated_Source\PSoC4/packets.c **** *
 167:Generated_Source\PSoC4/packets.c **** * \return
 168:Generated_Source\PSoC4/packets.c **** *  A number indicating the error code
 169:Generated_Source\PSoC4/packets.c **** *  Errors codes                             | Description
 170:Generated_Source\PSoC4/packets.c **** *   ------------                            | -----------
 171:Generated_Source\PSoC4/packets.c **** *   packets_ERR_SUCCESS            | On Successful init
 172:Generated_Source\PSoC4/packets.c **** *******************************************************************************/
 173:Generated_Source\PSoC4/packets.c **** uint32_t packets_destoryBuffers(packets_BUFFER_FULL_S *buffer) {
 272              		.loc 1 173 0
 273              		.cfi_startproc
 274              		@ args = 0, pretend = 0, frame = 0
 275              		@ frame_needed = 0, uses_anonymous_args = 0
 276              	.LVL25:
 277 0000 70B5     		push	{r4, r5, r6, lr}
 278              		.cfi_def_cfa_offset 16
 279              		.cfi_offset 4, -16
 280              		.cfi_offset 5, -12
 281              		.cfi_offset 6, -8
 282              		.cfi_offset 14, -4
ARM GAS  C:\Users\ccheney\AppData\Local\Temp\ccHegA34.s 			page 9


 283 0002 0400     		movs	r4, r0
 284              	.LVL26:
 174:Generated_Source\PSoC4/packets.c ****     uint32_t error = packets_ERR_SUCCESS;
 175:Generated_Source\PSoC4/packets.c ****     /* Free the Send process buffer is it exists */
 176:Generated_Source\PSoC4/packets.c ****     if(buffer->send.processBuffer.buffer != NULL){ 
 285              		.loc 1 176 0
 286 0004 4069     		ldr	r0, [r0, #20]
 287              	.LVL27:
 288 0006 0028     		cmp	r0, #0
 289 0008 08D0     		beq	.L20
 177:Generated_Source\PSoC4/packets.c ****         free(buffer->send.processBuffer.buffer);   
 290              		.loc 1 177 0
 291 000a FFF7FEFF 		bl	free
 292              	.LVL28:
 178:Generated_Source\PSoC4/packets.c ****         buffer->send.processBuffer.buffer = NULL;
 293              		.loc 1 178 0
 294 000e 0023     		movs	r3, #0
 295 0010 6361     		str	r3, [r4, #20]
 179:Generated_Source\PSoC4/packets.c ****         buffer->send.processBuffer.bufferLen = ZERO;
 296              		.loc 1 179 0
 297 0012 2383     		strh	r3, [r4, #24]
 180:Generated_Source\PSoC4/packets.c ****         buffer->send.processBuffer.bufferIndex = ZERO;
 298              		.loc 1 180 0
 299 0014 6383     		strh	r3, [r4, #26]
 181:Generated_Source\PSoC4/packets.c ****         buffer->send.processBuffer.timeCount = ZERO;
 300              		.loc 1 181 0
 301 0016 E361     		str	r3, [r4, #28]
 174:Generated_Source\PSoC4/packets.c ****     /* Free the Send process buffer is it exists */
 302              		.loc 1 174 0
 303 0018 0025     		movs	r5, #0
 304 001a 00E0     		b	.L15
 305              	.L20:
 182:Generated_Source\PSoC4/packets.c ****     } else {
 183:Generated_Source\PSoC4/packets.c ****         error |= packets_ERR_MEMORY;
 306              		.loc 1 183 0
 307 001c 0125     		movs	r5, #1
 308              	.L15:
 309              	.LVL29:
 184:Generated_Source\PSoC4/packets.c ****     }
 185:Generated_Source\PSoC4/packets.c ****     /* Free the receive process buffer is it exists */
 186:Generated_Source\PSoC4/packets.c ****     if(buffer->receive.processBuffer.buffer != NULL){ 
 310              		.loc 1 186 0
 311 001e A06B     		ldr	r0, [r4, #56]
 312 0020 0028     		cmp	r0, #0
 313 0022 07D0     		beq	.L16
 187:Generated_Source\PSoC4/packets.c ****         free(buffer->receive.processBuffer.buffer);   
 314              		.loc 1 187 0
 315 0024 FFF7FEFF 		bl	free
 316              	.LVL30:
 188:Generated_Source\PSoC4/packets.c ****         buffer->receive.processBuffer.buffer = NULL;
 317              		.loc 1 188 0
 318 0028 0023     		movs	r3, #0
 319 002a A363     		str	r3, [r4, #56]
 189:Generated_Source\PSoC4/packets.c ****         buffer->receive.processBuffer.bufferLen = ZERO;
 320              		.loc 1 189 0
 321 002c A387     		strh	r3, [r4, #60]
 190:Generated_Source\PSoC4/packets.c ****         buffer->receive.processBuffer.bufferIndex = ZERO;
ARM GAS  C:\Users\ccheney\AppData\Local\Temp\ccHegA34.s 			page 10


 322              		.loc 1 190 0
 323 002e E387     		strh	r3, [r4, #62]
 191:Generated_Source\PSoC4/packets.c ****         buffer->receive.processBuffer.timeCount = ZERO;
 324              		.loc 1 191 0
 325 0030 2364     		str	r3, [r4, #64]
 326 0032 01E0     		b	.L17
 327              	.L16:
 192:Generated_Source\PSoC4/packets.c ****     } else {
 193:Generated_Source\PSoC4/packets.c ****         error |= packets_ERR_MEMORY;
 328              		.loc 1 193 0
 329 0034 0123     		movs	r3, #1
 330 0036 1D43     		orrs	r5, r3
 331              	.LVL31:
 332              	.L17:
 194:Generated_Source\PSoC4/packets.c ****     }
 195:Generated_Source\PSoC4/packets.c ****     /* Free the receive payload buffer is it exists */
 196:Generated_Source\PSoC4/packets.c ****     if(buffer->receive.packet.payload != NULL) { 
 333              		.loc 1 196 0
 334 0038 A06A     		ldr	r0, [r4, #40]
 335 003a 0028     		cmp	r0, #0
 336 003c 06D0     		beq	.L18
 197:Generated_Source\PSoC4/packets.c ****         free(buffer->receive.packet.payload);   
 337              		.loc 1 197 0
 338 003e FFF7FEFF 		bl	free
 339              	.LVL32:
 198:Generated_Source\PSoC4/packets.c ****         buffer->receive.packet.payload = NULL;
 340              		.loc 1 198 0
 341 0042 0023     		movs	r3, #0
 342 0044 A362     		str	r3, [r4, #40]
 199:Generated_Source\PSoC4/packets.c ****         buffer->receive.packet.payloadMax = ZERO;
 343              		.loc 1 199 0
 344 0046 A385     		strh	r3, [r4, #44]
 200:Generated_Source\PSoC4/packets.c ****         buffer->receive.packet.payloadLen = ZERO;
 345              		.loc 1 200 0
 346 0048 E385     		strh	r3, [r4, #46]
 347 004a 01E0     		b	.L19
 348              	.L18:
 201:Generated_Source\PSoC4/packets.c ****     } else {
 202:Generated_Source\PSoC4/packets.c ****         error |= packets_ERR_MEMORY;
 349              		.loc 1 202 0
 350 004c 0123     		movs	r3, #1
 351 004e 1D43     		orrs	r5, r3
 352              	.LVL33:
 353              	.L19:
 203:Generated_Source\PSoC4/packets.c ****     }
 204:Generated_Source\PSoC4/packets.c ****     /* Return error */
 205:Generated_Source\PSoC4/packets.c ****     return error;
 206:Generated_Source\PSoC4/packets.c **** }
 354              		.loc 1 206 0
 355 0050 2800     		movs	r0, r5
 356              		@ sp needed
 357              	.LVL34:
 358              	.LVL35:
 359 0052 70BD     		pop	{r4, r5, r6, pc}
 360              		.cfi_endproc
 361              	.LFE4:
 362              		.size	packets_destoryBuffers, .-packets_destoryBuffers
ARM GAS  C:\Users\ccheney\AppData\Local\Temp\ccHegA34.s 			page 11


 363              		.section	.text.packets_flushRxBuffers,"ax",%progbits
 364              		.align	2
 365              		.global	packets_flushRxBuffers
 366              		.code	16
 367              		.thumb_func
 368              		.type	packets_flushRxBuffers, %function
 369              	packets_flushRxBuffers:
 370              	.LFB5:
 207:Generated_Source\PSoC4/packets.c **** 
 208:Generated_Source\PSoC4/packets.c **** 
 209:Generated_Source\PSoC4/packets.c **** /*******************************************************************************
 210:Generated_Source\PSoC4/packets.c **** * Function Name: packets_flushRxBuffers()
 211:Generated_Source\PSoC4/packets.c **** ****************************************************************************//**
 212:Generated_Source\PSoC4/packets.c **** * \brief
 213:Generated_Source\PSoC4/packets.c **** *  Flush the RX and TX process buffer
 214:Generated_Source\PSoC4/packets.c **** *
 215:Generated_Source\PSoC4/packets.c **** * \param buffer
 216:Generated_Source\PSoC4/packets.c **** *  Pointer to the full buffers
 217:Generated_Source\PSoC4/packets.c **** *
 218:Generated_Source\PSoC4/packets.c **** * \return
 219:Generated_Source\PSoC4/packets.c **** * A error code with the result of packing
 220:Generated_Source\PSoC4/packets.c **** *
 221:Generated_Source\PSoC4/packets.c **** *******************************************************************************/
 222:Generated_Source\PSoC4/packets.c **** void packets_flushRxBuffers(packets_BUFFER_FULL_S* buffer){
 371              		.loc 1 222 0
 372              		.cfi_startproc
 373              		@ args = 0, pretend = 0, frame = 0
 374              		@ frame_needed = 0, uses_anonymous_args = 0
 375              		@ link register save eliminated.
 376              	.LVL36:
 223:Generated_Source\PSoC4/packets.c ****     /* Reset RX buffers */
 224:Generated_Source\PSoC4/packets.c ****     buffer->receive.processBuffer.bufferIndex = ZERO;
 377              		.loc 1 224 0
 378 0000 0023     		movs	r3, #0
 379 0002 C387     		strh	r3, [r0, #62]
 225:Generated_Source\PSoC4/packets.c ****     buffer->receive.bufferState = packets_BUFFER_RECEIVE_WAIT_FOR_START;   
 380              		.loc 1 225 0
 381 0004 4433     		adds	r3, r3, #68
 382 0006 0022     		movs	r2, #0
 383 0008 C254     		strb	r2, [r0, r3]
 226:Generated_Source\PSoC4/packets.c **** }
 384              		.loc 1 226 0
 385              		@ sp needed
 386 000a 7047     		bx	lr
 387              		.cfi_endproc
 388              	.LFE5:
 389              		.size	packets_flushRxBuffers, .-packets_flushRxBuffers
 390              		.section	.text.packets_flushTxBuffers,"ax",%progbits
 391              		.align	2
 392              		.global	packets_flushTxBuffers
 393              		.code	16
 394              		.thumb_func
 395              		.type	packets_flushTxBuffers, %function
 396              	packets_flushTxBuffers:
 397              	.LFB6:
 227:Generated_Source\PSoC4/packets.c **** 
 228:Generated_Source\PSoC4/packets.c **** 
ARM GAS  C:\Users\ccheney\AppData\Local\Temp\ccHegA34.s 			page 12


 229:Generated_Source\PSoC4/packets.c **** /*******************************************************************************
 230:Generated_Source\PSoC4/packets.c **** * Function Name: packets_flushTxBuffers()
 231:Generated_Source\PSoC4/packets.c **** ****************************************************************************//**
 232:Generated_Source\PSoC4/packets.c **** * \brief
 233:Generated_Source\PSoC4/packets.c **** *  Flush the RX and TX process buffer
 234:Generated_Source\PSoC4/packets.c **** *
 235:Generated_Source\PSoC4/packets.c **** * \param buffer
 236:Generated_Source\PSoC4/packets.c **** *  Pointer to the full buffers
 237:Generated_Source\PSoC4/packets.c **** *
 238:Generated_Source\PSoC4/packets.c **** * \return
 239:Generated_Source\PSoC4/packets.c **** * A error code with the result of packing
 240:Generated_Source\PSoC4/packets.c **** *
 241:Generated_Source\PSoC4/packets.c **** *******************************************************************************/
 242:Generated_Source\PSoC4/packets.c **** void packets_flushTxBuffers(packets_BUFFER_FULL_S* buffer){
 398              		.loc 1 242 0
 399              		.cfi_startproc
 400              		@ args = 0, pretend = 0, frame = 0
 401              		@ frame_needed = 0, uses_anonymous_args = 0
 402              		@ link register save eliminated.
 403              	.LVL37:
 243:Generated_Source\PSoC4/packets.c ****      /* Reset TX buffers */
 244:Generated_Source\PSoC4/packets.c ****     buffer->send.processBuffer.bufferIndex = ZERO;
 404              		.loc 1 244 0
 405 0000 0023     		movs	r3, #0
 406 0002 4383     		strh	r3, [r0, #26]
 245:Generated_Source\PSoC4/packets.c ****     buffer->send.bufferState = packets_BUFFER_SEND_WAIT;
 407              		.loc 1 245 0
 408 0004 2033     		adds	r3, r3, #32
 409 0006 0022     		movs	r2, #0
 410 0008 C254     		strb	r2, [r0, r3]
 246:Generated_Source\PSoC4/packets.c **** }
 411              		.loc 1 246 0
 412              		@ sp needed
 413 000a 7047     		bx	lr
 414              		.cfi_endproc
 415              	.LFE6:
 416              		.size	packets_flushTxBuffers, .-packets_flushTxBuffers
 417              		.section	.text.packets_flushBuffers,"ax",%progbits
 418              		.align	2
 419              		.global	packets_flushBuffers
 420              		.code	16
 421              		.thumb_func
 422              		.type	packets_flushBuffers, %function
 423              	packets_flushBuffers:
 424              	.LFB7:
 247:Generated_Source\PSoC4/packets.c **** 
 248:Generated_Source\PSoC4/packets.c **** /*******************************************************************************
 249:Generated_Source\PSoC4/packets.c **** * Function Name: packets_flushBuffers()
 250:Generated_Source\PSoC4/packets.c **** ****************************************************************************//**
 251:Generated_Source\PSoC4/packets.c **** * \brief
 252:Generated_Source\PSoC4/packets.c **** *  Flush the RX and TX process buffer
 253:Generated_Source\PSoC4/packets.c **** *
 254:Generated_Source\PSoC4/packets.c **** * \param buffer
 255:Generated_Source\PSoC4/packets.c **** *  Pointer to the full buffers
 256:Generated_Source\PSoC4/packets.c **** *
 257:Generated_Source\PSoC4/packets.c **** * \return
 258:Generated_Source\PSoC4/packets.c **** * A error code with the result of packing
ARM GAS  C:\Users\ccheney\AppData\Local\Temp\ccHegA34.s 			page 13


 259:Generated_Source\PSoC4/packets.c **** *
 260:Generated_Source\PSoC4/packets.c **** *******************************************************************************/
 261:Generated_Source\PSoC4/packets.c **** void packets_flushBuffers(packets_BUFFER_FULL_S* buffer){
 425              		.loc 1 261 0
 426              		.cfi_startproc
 427              		@ args = 0, pretend = 0, frame = 0
 428              		@ frame_needed = 0, uses_anonymous_args = 0
 429              	.LVL38:
 430 0000 10B5     		push	{r4, lr}
 431              		.cfi_def_cfa_offset 8
 432              		.cfi_offset 4, -8
 433              		.cfi_offset 14, -4
 434 0002 0400     		movs	r4, r0
 262:Generated_Source\PSoC4/packets.c ****     packets_flushTxBuffers(buffer);
 435              		.loc 1 262 0
 436 0004 FFF7FEFF 		bl	packets_flushTxBuffers
 437              	.LVL39:
 263:Generated_Source\PSoC4/packets.c ****     packets_flushRxBuffers(buffer);
 438              		.loc 1 263 0
 439 0008 2000     		movs	r0, r4
 440 000a FFF7FEFF 		bl	packets_flushRxBuffers
 441              	.LVL40:
 264:Generated_Source\PSoC4/packets.c **** }
 442              		.loc 1 264 0
 443              		@ sp needed
 444              	.LVL41:
 445 000e 10BD     		pop	{r4, pc}
 446              		.cfi_endproc
 447              	.LFE7:
 448              		.size	packets_flushBuffers, .-packets_flushBuffers
 449              		.section	.text.packets_processRxByte,"ax",%progbits
 450              		.align	2
 451              		.global	packets_processRxByte
 452              		.code	16
 453              		.thumb_func
 454              		.type	packets_processRxByte, %function
 455              	packets_processRxByte:
 456              	.LFB10:
 265:Generated_Source\PSoC4/packets.c **** 
 266:Generated_Source\PSoC4/packets.c **** /*******************************************************************************
 267:Generated_Source\PSoC4/packets.c **** * Function Name: packets_constructPacket()
 268:Generated_Source\PSoC4/packets.c **** ****************************************************************************//**
 269:Generated_Source\PSoC4/packets.c **** * \brief
 270:Generated_Source\PSoC4/packets.c **** *  Pack the data in the TX packet to the TX processBuffer
 271:Generated_Source\PSoC4/packets.c **** *
 272:Generated_Source\PSoC4/packets.c **** * \param packet
 273:Generated_Source\PSoC4/packets.c **** *  Pointer to the packet to pack
 274:Generated_Source\PSoC4/packets.c **** *
 275:Generated_Source\PSoC4/packets.c **** *
 276:Generated_Source\PSoC4/packets.c **** * \return
 277:Generated_Source\PSoC4/packets.c **** * A error code with the result of packing
 278:Generated_Source\PSoC4/packets.c **** *
 279:Generated_Source\PSoC4/packets.c **** *******************************************************************************/
 280:Generated_Source\PSoC4/packets.c **** uint32_t packets_constructPacket(packets_BUFFER_FULL_S* buffer) {
 281:Generated_Source\PSoC4/packets.c ****     uint32_t error = packets_ERR_SUCCESS;
 282:Generated_Source\PSoC4/packets.c ****     /* Create local references */
 283:Generated_Source\PSoC4/packets.c ****     packets_BUFFER_PROCESS_S* txBuffer = &(buffer->send.processBuffer);
ARM GAS  C:\Users\ccheney\AppData\Local\Temp\ccHegA34.s 			page 14


 284:Generated_Source\PSoC4/packets.c ****     packets_BUFFER_STATE_SEND_T* bufferState = &(buffer->send.bufferState);
 285:Generated_Source\PSoC4/packets.c ****     packets_PACKET_S* packet = &(buffer->send.packet);
 286:Generated_Source\PSoC4/packets.c ****     
 287:Generated_Source\PSoC4/packets.c ****     /* *** Validate packet *** */
 288:Generated_Source\PSoC4/packets.c ****     /* Module ID */
 289:Generated_Source\PSoC4/packets.c ****     if(packet->moduleId > packets_ID_MODULE_MAX) {
 290:Generated_Source\PSoC4/packets.c ****         error |= packets_ERR_MODULE;
 291:Generated_Source\PSoC4/packets.c ****     }
 292:Generated_Source\PSoC4/packets.c ****     /* LEN less than max */
 293:Generated_Source\PSoC4/packets.c ****     if (packet->payloadLen > packets_LEN_MAX_PAYLOAD) {
 294:Generated_Source\PSoC4/packets.c ****         error |= packets_ERR_LENGTH;
 295:Generated_Source\PSoC4/packets.c ****     }
 296:Generated_Source\PSoC4/packets.c ****     /* LEN less than process buffer max */
 297:Generated_Source\PSoC4/packets.c ****     if ( (packet->payloadLen + packets_LEN_OVERHEAD) > txBuffer->bufferLen) {
 298:Generated_Source\PSoC4/packets.c ****         error |= packets_ERR_MEMORY;
 299:Generated_Source\PSoC4/packets.c ****     }
 300:Generated_Source\PSoC4/packets.c ****     /* Send buffer must not be busy */
 301:Generated_Source\PSoC4/packets.c ****     if(*bufferState != packets_BUFFER_SEND_WAIT) {
 302:Generated_Source\PSoC4/packets.c ****        error |= packets_ERR_STATE;
 303:Generated_Source\PSoC4/packets.c ****     }
 304:Generated_Source\PSoC4/packets.c ****     /* Assemble the packet if no error */
 305:Generated_Source\PSoC4/packets.c ****     if(!error) {
 306:Generated_Source\PSoC4/packets.c ****         /* Reset the buffer count */
 307:Generated_Source\PSoC4/packets.c ****         txBuffer->bufferIndex = ZERO;
 308:Generated_Source\PSoC4/packets.c ****         /* Header */
 309:Generated_Source\PSoC4/packets.c ****         txBuffer->buffer[(txBuffer->bufferIndex)++] = packets_SYM_START;
 310:Generated_Source\PSoC4/packets.c ****         txBuffer->buffer[(txBuffer->bufferIndex)++] = packet->moduleId;
 311:Generated_Source\PSoC4/packets.c ****         txBuffer->buffer[(txBuffer->bufferIndex)++] = packet->cmd;
 312:Generated_Source\PSoC4/packets.c ****         /* Payload length MSB */
 313:Generated_Source\PSoC4/packets.c ****         txBuffer->buffer[(txBuffer->bufferIndex)++] = (packet->payloadLen >> BITS_ONE_BYTE) & MASK_
 314:Generated_Source\PSoC4/packets.c ****         /* Payload length MSB */
 315:Generated_Source\PSoC4/packets.c ****         txBuffer->buffer[(txBuffer->bufferIndex)++] = (packet->payloadLen) & MASK_BYTE_ONE;
 316:Generated_Source\PSoC4/packets.c ****         /* Payload */
 317:Generated_Source\PSoC4/packets.c ****         uint16_t j;
 318:Generated_Source\PSoC4/packets.c ****         for(j = ZERO; j < packet->payloadLen; j++) {
 319:Generated_Source\PSoC4/packets.c ****             txBuffer->buffer[(txBuffer->bufferIndex)++] = packet->payload[j];
 320:Generated_Source\PSoC4/packets.c ****         }
 321:Generated_Source\PSoC4/packets.c ****         /* Footer */
 322:Generated_Source\PSoC4/packets.c ****         /* Flags Bytes 3-0 */
 323:Generated_Source\PSoC4/packets.c ****         txBuffer->buffer[(txBuffer->bufferIndex)++] = (uint8_t) ((packet->flags) >> BITS_THREE_BYTE
 324:Generated_Source\PSoC4/packets.c ****         txBuffer->buffer[(txBuffer->bufferIndex)++] = (uint8_t) ((packet->flags) >> BITS_TWO_BYTES)
 325:Generated_Source\PSoC4/packets.c ****         txBuffer->buffer[(txBuffer->bufferIndex)++] = (uint8_t) ((packet->flags) >> BITS_ONE_BYTE);
 326:Generated_Source\PSoC4/packets.c ****         txBuffer->buffer[(txBuffer->bufferIndex)++] = (uint8_t)  (packet->flags);
 327:Generated_Source\PSoC4/packets.c ****         /* Calculate checksum */
 328:Generated_Source\PSoC4/packets.c ****         uint16_t checksum = packets_computeChecksum16(txBuffer->buffer, packets_LEN_HEADER + packet
 329:Generated_Source\PSoC4/packets.c ****         txBuffer->buffer[(txBuffer->bufferIndex)++] = (checksum >> BITS_ONE_BYTE) & MASK_BYTE_ONE;
 330:Generated_Source\PSoC4/packets.c ****         txBuffer->buffer[(txBuffer->bufferIndex)++] = (checksum) & MASK_BYTE_ONE;
 331:Generated_Source\PSoC4/packets.c ****         txBuffer->buffer[(txBuffer->bufferIndex)++] = packets_SYM_END;
 332:Generated_Source\PSoC4/packets.c ****         /* Advance to Ready to send */
 333:Generated_Source\PSoC4/packets.c ****         *bufferState =  packets_BUFFER_SEND_READY;
 334:Generated_Source\PSoC4/packets.c ****     }
 335:Generated_Source\PSoC4/packets.c ****     /* Return error code */
 336:Generated_Source\PSoC4/packets.c ****     return error;
 337:Generated_Source\PSoC4/packets.c **** }
 338:Generated_Source\PSoC4/packets.c **** 
 339:Generated_Source\PSoC4/packets.c **** 
 340:Generated_Source\PSoC4/packets.c **** /*******************************************************************************
ARM GAS  C:\Users\ccheney\AppData\Local\Temp\ccHegA34.s 			page 15


 341:Generated_Source\PSoC4/packets.c **** * Function Name: packets_sendPacket()
 342:Generated_Source\PSoC4/packets.c **** ****************************************************************************//**
 343:Generated_Source\PSoC4/packets.c **** * \brief
 344:Generated_Source\PSoC4/packets.c **** *   Constructs and then sends of the data stored in the TX process buffer 
 345:Generated_Source\PSoC4/packets.c **** *
 346:Generated_Source\PSoC4/packets.c **** * \param packet
 347:Generated_Source\PSoC4/packets.c **** *  Pointer to the packet to send of out the rx buffer
 348:Generated_Source\PSoC4/packets.c **** *
 349:Generated_Source\PSoC4/packets.c **** * \return
 350:Generated_Source\PSoC4/packets.c **** * A error code with the result of packing
 351:Generated_Source\PSoC4/packets.c **** *
 352:Generated_Source\PSoC4/packets.c **** *******************************************************************************/
 353:Generated_Source\PSoC4/packets.c **** uint32_t packets_sendPacket(packets_BUFFER_FULL_S *buffer){
 354:Generated_Source\PSoC4/packets.c ****     uint32_t error = packets_ERR_SUCCESS;
 355:Generated_Source\PSoC4/packets.c ****     /* Construct the tx packet */
 356:Generated_Source\PSoC4/packets.c ****     error |= packets_constructPacket(buffer);
 357:Generated_Source\PSoC4/packets.c ****     /* Create local references */
 358:Generated_Source\PSoC4/packets.c ****     packets_BUFFER_PROCESS_S* txBuffer = &(buffer->send.processBuffer);
 359:Generated_Source\PSoC4/packets.c ****     packets_BUFFER_STATE_SEND_T* bufferState = &(buffer->send.bufferState);
 360:Generated_Source\PSoC4/packets.c ****     /* Send buffer must not be busy */
 361:Generated_Source\PSoC4/packets.c ****     if(*bufferState != packets_BUFFER_SEND_READY) {
 362:Generated_Source\PSoC4/packets.c ****        error |= packets_ERR_STATE;
 363:Generated_Source\PSoC4/packets.c ****     }
 364:Generated_Source\PSoC4/packets.c ****     if(!error) {
 365:Generated_Source\PSoC4/packets.c ****         /* Write out the function */
 366:Generated_Source\PSoC4/packets.c ****         usbUart_dummyTxArray(txBuffer->buffer, txBuffer->bufferLen );
 367:Generated_Source\PSoC4/packets.c ****         /* Move back to the original state */
 368:Generated_Source\PSoC4/packets.c ****         *bufferState = packets_BUFFER_SEND_WAIT;
 369:Generated_Source\PSoC4/packets.c ****         /* Flush the TX buffer */
 370:Generated_Source\PSoC4/packets.c ****         packets_flushTxBuffers(buffer);   
 371:Generated_Source\PSoC4/packets.c ****     }
 372:Generated_Source\PSoC4/packets.c ****     return error;
 373:Generated_Source\PSoC4/packets.c **** }
 374:Generated_Source\PSoC4/packets.c **** 
 375:Generated_Source\PSoC4/packets.c **** 
 376:Generated_Source\PSoC4/packets.c **** /*******************************************************************************
 377:Generated_Source\PSoC4/packets.c **** * Function Name: packets_processRxByte()
 378:Generated_Source\PSoC4/packets.c **** ****************************************************************************//**
 379:Generated_Source\PSoC4/packets.c **** * \brief
 380:Generated_Source\PSoC4/packets.c **** *  Processes the lastest received byt . 
 381:Generated_Source\PSoC4/packets.c **** *
 382:Generated_Source\PSoC4/packets.c **** * \return
 383:Generated_Source\PSoC4/packets.c **** *  A number indicating the error code
 384:Generated_Source\PSoC4/packets.c **** *  Errors codes                             | Description
 385:Generated_Source\PSoC4/packets.c **** *   ------------                            | -----------
 386:Generated_Source\PSoC4/packets.c **** *   packets_ERR_SUCCESS            | On Successful init
 387:Generated_Source\PSoC4/packets.c **** *******************************************************************************/
 388:Generated_Source\PSoC4/packets.c **** uint32_t packets_processRxByte(packets_BUFFER_FULL_S* buffer, uint8_t byte) {
 457              		.loc 1 388 0
 458              		.cfi_startproc
 459              		@ args = 0, pretend = 0, frame = 0
 460              		@ frame_needed = 0, uses_anonymous_args = 0
 461              	.LVL42:
 462 0000 10B5     		push	{r4, lr}
 463              		.cfi_def_cfa_offset 8
 464              		.cfi_offset 4, -8
 465              		.cfi_offset 14, -4
ARM GAS  C:\Users\ccheney\AppData\Local\Temp\ccHegA34.s 			page 16


 466 0002 0300     		movs	r3, r0
 467              	.LVL43:
 389:Generated_Source\PSoC4/packets.c ****      uint32_t error = packets_ERR_SUCCESS;
 390:Generated_Source\PSoC4/packets.c ****     /* Create local references */
 391:Generated_Source\PSoC4/packets.c ****     packets_BUFFER_PROCESS_S* rxBuffer = &(buffer->receive.processBuffer);
 392:Generated_Source\PSoC4/packets.c ****     packets_BUFFER_STATE_RECEIVE_T* bufferState = &(buffer->receive.bufferState);
 393:Generated_Source\PSoC4/packets.c ****     uint16_t* payloadLen = &(buffer->receive.packet.payloadLen);
 394:Generated_Source\PSoC4/packets.c **** 
 395:Generated_Source\PSoC4/packets.c ****     /* Ensure that buffers are valid and there is room */
 396:Generated_Source\PSoC4/packets.c ****     if( 
 397:Generated_Source\PSoC4/packets.c ****         (rxBuffer->bufferLen == ZERO) ||
 468              		.loc 1 397 0
 469 0004 828F     		ldrh	r2, [r0, #60]
 396:Generated_Source\PSoC4/packets.c ****         (rxBuffer->bufferLen == ZERO) ||
 470              		.loc 1 396 0
 471 0006 002A     		cmp	r2, #0
 472 0008 07D0     		beq	.L36
 473              		.loc 1 397 0
 474 000a 806B     		ldr	r0, [r0, #56]
 475              	.LVL44:
 476 000c 0028     		cmp	r0, #0
 477 000e 06D0     		beq	.L37
 398:Generated_Source\PSoC4/packets.c ****         (rxBuffer->buffer == NULL) ||
 399:Generated_Source\PSoC4/packets.c ****         (rxBuffer->bufferIndex >= rxBuffer->bufferLen) 
 478              		.loc 1 399 0
 479 0010 D88F     		ldrh	r0, [r3, #62]
 398:Generated_Source\PSoC4/packets.c ****         (rxBuffer->buffer == NULL) ||
 480              		.loc 1 398 0
 481 0012 8242     		cmp	r2, r0
 482 0014 05D9     		bls	.L38
 389:Generated_Source\PSoC4/packets.c ****     /* Create local references */
 483              		.loc 1 389 0
 484 0016 0020     		movs	r0, #0
 485 0018 04E0     		b	.L25
 486              	.LVL45:
 487              	.L36:
 400:Generated_Source\PSoC4/packets.c ****     ) {
 401:Generated_Source\PSoC4/packets.c ****         error |= packets_ERR_MEMORY;
 488              		.loc 1 401 0
 489 001a 0120     		movs	r0, #1
 490              	.LVL46:
 491 001c 02E0     		b	.L25
 492              	.L37:
 493 001e 0120     		movs	r0, #1
 494 0020 00E0     		b	.L25
 495              	.L38:
 496 0022 0120     		movs	r0, #1
 497              	.L25:
 498              	.LVL47:
 402:Generated_Source\PSoC4/packets.c ****     }
 403:Generated_Source\PSoC4/packets.c **** 
 404:Generated_Source\PSoC4/packets.c ****     if(!error) {
 499              		.loc 1 404 0
 500 0024 0028     		cmp	r0, #0
 501 0026 53D1     		bne	.L26
 405:Generated_Source\PSoC4/packets.c ****         /* Act according to the state of the packet buffer */
 406:Generated_Source\PSoC4/packets.c ****         switch (buffer->receive.bufferState) {
ARM GAS  C:\Users\ccheney\AppData\Local\Temp\ccHegA34.s 			page 17


 502              		.loc 1 406 0
 503 0028 4422     		movs	r2, #68
 504 002a 9A5C     		ldrb	r2, [r3, r2]
 505 002c 042A     		cmp	r2, #4
 506 002e 4FD8     		bhi	.L26
 507 0030 9200     		lsls	r2, r2, #2
 508 0032 284C     		ldr	r4, .L39
 509 0034 A258     		ldr	r2, [r4, r2]
 510 0036 9746     		mov	pc, r2
 511              		.section	.rodata
 512              		.align	2
 513              	.L28:
 514 0000 38000000 		.word	.L27
 515 0004 52000000 		.word	.L29
 516 0008 80000000 		.word	.L30
 517 000c AC000000 		.word	.L31
 518 0010 CA000000 		.word	.L32
 519              		.section	.text.packets_processRxByte
 520              	.L27:
 407:Generated_Source\PSoC4/packets.c ****             /* Waiting for start, ensure that the data byte is valid */
 408:Generated_Source\PSoC4/packets.c ****             case packets_BUFFER_RECEIVE_WAIT_FOR_START: {
 409:Generated_Source\PSoC4/packets.c ****                 if(byte != packets_SYM_START ){
 521              		.loc 1 409 0
 522 0038 0129     		cmp	r1, #1
 523 003a 02D0     		beq	.L33
 410:Generated_Source\PSoC4/packets.c ****                     error |= packets_ERR_START_SYM;
 524              		.loc 1 410 0
 525 003c 0223     		movs	r3, #2
 526              	.LVL48:
 527 003e 1843     		orrs	r0, r3
 528              	.LVL49:
 411:Generated_Source\PSoC4/packets.c ****                     break;
 529              		.loc 1 411 0
 530 0040 46E0     		b	.L26
 531              	.LVL50:
 532              	.L33:
 412:Generated_Source\PSoC4/packets.c ****                 }
 413:Generated_Source\PSoC4/packets.c ****                 /* Reset the count */
 414:Generated_Source\PSoC4/packets.c ****                 rxBuffer->bufferIndex = ZERO;
 415:Generated_Source\PSoC4/packets.c ****                 /* Store the byte */
 416:Generated_Source\PSoC4/packets.c ****                 rxBuffer->buffer[(rxBuffer->bufferIndex)++] = byte;
 533              		.loc 1 416 0
 534 0042 0122     		movs	r2, #1
 535 0044 DA87     		strh	r2, [r3, #62]
 536 0046 9A6B     		ldr	r2, [r3, #56]
 537 0048 1170     		strb	r1, [r2]
 417:Generated_Source\PSoC4/packets.c ****                 /* Advance to the next state */
 418:Generated_Source\PSoC4/packets.c ****                 *bufferState = packets_BUFFER_RECEIVE_HEADER;
 538              		.loc 1 418 0
 539 004a 4422     		movs	r2, #68
 540 004c 0121     		movs	r1, #1
 541              	.LVL51:
 542 004e 9954     		strb	r1, [r3, r2]
 419:Generated_Source\PSoC4/packets.c ****                 break;
 543              		.loc 1 419 0
 544 0050 3EE0     		b	.L26
 545              	.LVL52:
ARM GAS  C:\Users\ccheney\AppData\Local\Temp\ccHegA34.s 			page 18


 546              	.L29:
 420:Generated_Source\PSoC4/packets.c ****             }
 421:Generated_Source\PSoC4/packets.c ****             /* Waiting for the header */
 422:Generated_Source\PSoC4/packets.c ****             case packets_BUFFER_RECEIVE_HEADER: {
 423:Generated_Source\PSoC4/packets.c ****                 /* Store the byte */
 424:Generated_Source\PSoC4/packets.c ****                 rxBuffer->buffer[(rxBuffer->bufferIndex)++] = byte;
 547              		.loc 1 424 0
 548 0052 DA8F     		ldrh	r2, [r3, #62]
 549 0054 541C     		adds	r4, r2, #1
 550 0056 DC87     		strh	r4, [r3, #62]
 551 0058 9C6B     		ldr	r4, [r3, #56]
 552 005a A154     		strb	r1, [r4, r2]
 425:Generated_Source\PSoC4/packets.c ****                 /* Check to see if more data is required */
 426:Generated_Source\PSoC4/packets.c ****                 if (rxBuffer->bufferIndex == packets_LEN_HEADER) {
 553              		.loc 1 426 0
 554 005c DA8F     		ldrh	r2, [r3, #62]
 555 005e 052A     		cmp	r2, #5
 556 0060 36D1     		bne	.L26
 427:Generated_Source\PSoC4/packets.c ****                     /* Store the payload length */
 428:Generated_Source\PSoC4/packets.c ****                     *payloadLen = (rxBuffer->buffer[packets_INDEX_LEN_MSB] << BITS_ONE_BYTE) | rxBu
 557              		.loc 1 428 0
 558 0062 996B     		ldr	r1, [r3, #56]
 559              	.LVL53:
 560 0064 CA78     		ldrb	r2, [r1, #3]
 561 0066 1202     		lsls	r2, r2, #8
 562 0068 0979     		ldrb	r1, [r1, #4]
 563 006a 0A43     		orrs	r2, r1
 564 006c DA85     		strh	r2, [r3, #46]
 429:Generated_Source\PSoC4/packets.c ****                     if (*payloadLen == ZERO) {
 565              		.loc 1 429 0
 566 006e 03D1     		bne	.L34
 430:Generated_Source\PSoC4/packets.c ****                         /* Skip payload collection */
 431:Generated_Source\PSoC4/packets.c ****                         *bufferState = packets_BUFFER_RECEIVE_FOOTER;
 567              		.loc 1 431 0
 568 0070 0321     		movs	r1, #3
 569 0072 4432     		adds	r2, r2, #68
 570 0074 9954     		strb	r1, [r3, r2]
 571 0076 2BE0     		b	.L26
 572              	.L34:
 432:Generated_Source\PSoC4/packets.c ****                     } else {
 433:Generated_Source\PSoC4/packets.c ****                         /* Advance to the next state */
 434:Generated_Source\PSoC4/packets.c ****                         *bufferState = packets_BUFFER_RECEIVE_PAYLOAD;
 573              		.loc 1 434 0
 574 0078 0221     		movs	r1, #2
 575 007a 4422     		movs	r2, #68
 576 007c 9954     		strb	r1, [r3, r2]
 577 007e 27E0     		b	.L26
 578              	.LVL54:
 579              	.L30:
 435:Generated_Source\PSoC4/packets.c ****                     }
 436:Generated_Source\PSoC4/packets.c ****                 }
 437:Generated_Source\PSoC4/packets.c ****                 break;
 438:Generated_Source\PSoC4/packets.c ****             }
 439:Generated_Source\PSoC4/packets.c ****             /* Receiving Payload info */
 440:Generated_Source\PSoC4/packets.c ****             case packets_BUFFER_RECEIVE_PAYLOAD: {
 441:Generated_Source\PSoC4/packets.c ****                 /* Store the data  */
 442:Generated_Source\PSoC4/packets.c ****                 rxBuffer->buffer[(rxBuffer->bufferIndex)++] = byte;
ARM GAS  C:\Users\ccheney\AppData\Local\Temp\ccHegA34.s 			page 19


 580              		.loc 1 442 0
 581 0080 DA8F     		ldrh	r2, [r3, #62]
 582 0082 541C     		adds	r4, r2, #1
 583 0084 DC87     		strh	r4, [r3, #62]
 584 0086 9C6B     		ldr	r4, [r3, #56]
 585 0088 A154     		strb	r1, [r4, r2]
 443:Generated_Source\PSoC4/packets.c ****                 /* See if all data has been captured */
 444:Generated_Source\PSoC4/packets.c ****                 if (rxBuffer->bufferIndex == (packets_LEN_HEADER +  *payloadLen)){
 586              		.loc 1 444 0
 587 008a D98F     		ldrh	r1, [r3, #62]
 588              	.LVL55:
 589 008c DA8D     		ldrh	r2, [r3, #46]
 590              	.LVL56:
 591 008e 0532     		adds	r2, r2, #5
 592 0090 9142     		cmp	r1, r2
 593 0092 03D1     		bne	.L35
 445:Generated_Source\PSoC4/packets.c ****                     /* Advance to next state */
 446:Generated_Source\PSoC4/packets.c ****                     *bufferState = packets_BUFFER_RECEIVE_FOOTER;   
 594              		.loc 1 446 0
 595 0094 0321     		movs	r1, #3
 596 0096 4422     		movs	r2, #68
 597 0098 9954     		strb	r1, [r3, r2]
 598 009a 19E0     		b	.L26
 599              	.L35:
 447:Generated_Source\PSoC4/packets.c ****                 /* Data out of range */
 448:Generated_Source\PSoC4/packets.c ****                 } else if (rxBuffer->bufferIndex > (packets_LEN_HEADER +  *payloadLen)){
 600              		.loc 1 448 0
 601 009c 9142     		cmp	r1, r2
 602 009e 17D9     		bls	.L26
 449:Generated_Source\PSoC4/packets.c ****                     /* Reset count */
 450:Generated_Source\PSoC4/packets.c ****                     *bufferState = packets_BUFFER_RECEIVE_WAIT_FOR_START;
 603              		.loc 1 450 0
 604 00a0 0021     		movs	r1, #0
 605 00a2 4422     		movs	r2, #68
 606 00a4 9954     		strb	r1, [r3, r2]
 451:Generated_Source\PSoC4/packets.c ****                     error |= packets_ERR_LENGTH;
 607              		.loc 1 451 0
 608 00a6 0823     		movs	r3, #8
 609              	.LVL57:
 610 00a8 1843     		orrs	r0, r3
 611              	.LVL58:
 612 00aa 11E0     		b	.L26
 613              	.LVL59:
 614              	.L31:
 615              	.LBB3:
 452:Generated_Source\PSoC4/packets.c ****                 }
 453:Generated_Source\PSoC4/packets.c ****                 break;
 454:Generated_Source\PSoC4/packets.c ****             }
 455:Generated_Source\PSoC4/packets.c ****             /* Wait for the footer */
 456:Generated_Source\PSoC4/packets.c ****             case packets_BUFFER_RECEIVE_FOOTER: {
 457:Generated_Source\PSoC4/packets.c ****                 /* Store the data */
 458:Generated_Source\PSoC4/packets.c ****                 rxBuffer->buffer[(rxBuffer->bufferIndex)++] = byte;
 616              		.loc 1 458 0
 617 00ac DA8F     		ldrh	r2, [r3, #62]
 618 00ae 541C     		adds	r4, r2, #1
 619 00b0 DC87     		strh	r4, [r3, #62]
 620 00b2 9C6B     		ldr	r4, [r3, #56]
ARM GAS  C:\Users\ccheney\AppData\Local\Temp\ccHegA34.s 			page 20


 621 00b4 A154     		strb	r1, [r4, r2]
 459:Generated_Source\PSoC4/packets.c ****                 /*If all data has been captured */
 460:Generated_Source\PSoC4/packets.c ****                 uint16_t fullPacketLength = packets_LEN_HEADER + *payloadLen + packets_LEN_FOOTER;
 622              		.loc 1 460 0
 623 00b6 DA8D     		ldrh	r2, [r3, #46]
 624 00b8 0C32     		adds	r2, r2, #12
 625 00ba 92B2     		uxth	r2, r2
 626              	.LVL60:
 461:Generated_Source\PSoC4/packets.c ****                 if (rxBuffer->bufferIndex == fullPacketLength) {
 627              		.loc 1 461 0
 628 00bc D98F     		ldrh	r1, [r3, #62]
 629              	.LVL61:
 630 00be 8A42     		cmp	r2, r1
 631 00c0 06D1     		bne	.L26
 462:Generated_Source\PSoC4/packets.c ****                     /* Packet is complete */   
 463:Generated_Source\PSoC4/packets.c ****                     *bufferState = packets_BUFFER_RECEIVE_COMPLETE;
 632              		.loc 1 463 0
 633 00c2 0421     		movs	r1, #4
 634 00c4 4422     		movs	r2, #68
 635              	.LVL62:
 636 00c6 9954     		strb	r1, [r3, r2]
 637              	.LVL63:
 638 00c8 02E0     		b	.L26
 639              	.LVL64:
 640              	.L32:
 641              	.LBE3:
 464:Generated_Source\PSoC4/packets.c ****                 }
 465:Generated_Source\PSoC4/packets.c ****                 break;
 466:Generated_Source\PSoC4/packets.c ****             }
 467:Generated_Source\PSoC4/packets.c ****             /* Packet is complete, but has not been handled, throw error */
 468:Generated_Source\PSoC4/packets.c ****             case packets_BUFFER_RECEIVE_COMPLETE: {
 469:Generated_Source\PSoC4/packets.c ****                     error |= packets_ERR_STATE;
 642              		.loc 1 469 0
 643 00ca 8023     		movs	r3, #128
 644              	.LVL65:
 645 00cc DB00     		lsls	r3, r3, #3
 646 00ce 1843     		orrs	r0, r3
 647              	.LVL66:
 648              	.L26:
 470:Generated_Source\PSoC4/packets.c ****                 break;
 471:Generated_Source\PSoC4/packets.c ****             }
 472:Generated_Source\PSoC4/packets.c ****         }
 473:Generated_Source\PSoC4/packets.c ****     } 
 474:Generated_Source\PSoC4/packets.c ****      /* Return the packet state */
 475:Generated_Source\PSoC4/packets.c ****      return error;
 476:Generated_Source\PSoC4/packets.c **** }
 649              		.loc 1 476 0
 650              		@ sp needed
 651 00d0 10BD     		pop	{r4, pc}
 652              	.L40:
 653 00d2 C046     		.align	2
 654              	.L39:
 655 00d4 00000000 		.word	.L28
 656              		.cfi_endproc
 657              	.LFE10:
 658              		.size	packets_processRxByte, .-packets_processRxByte
 659              		.section	.text.packets_computeChecksum16,"ax",%progbits
ARM GAS  C:\Users\ccheney\AppData\Local\Temp\ccHegA34.s 			page 21


 660              		.align	2
 661              		.global	packets_computeChecksum16
 662              		.code	16
 663              		.thumb_func
 664              		.type	packets_computeChecksum16, %function
 665              	packets_computeChecksum16:
 666              	.LFB12:
 477:Generated_Source\PSoC4/packets.c **** 
 478:Generated_Source\PSoC4/packets.c **** /*******************************************************************************
 479:Generated_Source\PSoC4/packets.c **** * Function Name:packets_parsePacket()
 480:Generated_Source\PSoC4/packets.c **** ****************************************************************************//**
 481:Generated_Source\PSoC4/packets.c **** * \brief
 482:Generated_Source\PSoC4/packets.c **** *  Parses a data packet from the received data.
 483:Generated_Source\PSoC4/packets.c **** *
 484:Generated_Source\PSoC4/packets.c **** * \param packet
 485:Generated_Source\PSoC4/packets.c **** * Pointer to a packet structure to place the infomation in
 486:Generated_Source\PSoC4/packets.c **** *
 487:Generated_Source\PSoC4/packets.c **** * \return
 488:Generated_Source\PSoC4/packets.c **** * The error code of the result packet parsing
 489:Generated_Source\PSoC4/packets.c **** * The possible error codes are:
 490:Generated_Source\PSoC4/packets.c **** *
 491:Generated_Source\PSoC4/packets.c **** *  Errors codes                         | Description
 492:Generated_Source\PSoC4/packets.c **** *   ------------                        | -----------
 493:Generated_Source\PSoC4/packets.c **** *   packets_ERR_SUCCESS        | The packet was successfully parsed.
 494:Generated_Source\PSoC4/packets.c **** *   packets_ERR_FORMAT         | The packet was in the incorrect format.
 495:Generated_Source\PSoC4/packets.c **** *   packets_ERR_MODULE         | An unknown module was requested.
 496:Generated_Source\PSoC4/packets.c **** *   packets_ERR_LENGTH         | The packet payload length was outside the allowed value.
 497:Generated_Source\PSoC4/packets.c **** *   packets_ERR_CHECKSUM       | The calculated checksum did not match the reported checksum.
 498:Generated_Source\PSoC4/packets.c **** *******************************************************************************/
 499:Generated_Source\PSoC4/packets.c **** uint32_t packets_parsePacket(packets_BUFFER_FULL_S* buffer) {
 500:Generated_Source\PSoC4/packets.c ****     uint32_t error = packets_ERR_SUCCESS;
 501:Generated_Source\PSoC4/packets.c ****     /* Create local references */
 502:Generated_Source\PSoC4/packets.c ****     packets_BUFFER_PROCESS_S* rxBuffer = &(buffer->receive.processBuffer);
 503:Generated_Source\PSoC4/packets.c ****     packets_BUFFER_STATE_RECEIVE_T* bufferState = &(buffer->receive.bufferState);
 504:Generated_Source\PSoC4/packets.c ****     packets_PACKET_S* packet = &(buffer->receive.packet);
 505:Generated_Source\PSoC4/packets.c ****     
 506:Generated_Source\PSoC4/packets.c ****     /* Ensure packet is complete */
 507:Generated_Source\PSoC4/packets.c ****     if (*bufferState != packets_BUFFER_RECEIVE_COMPLETE){
 508:Generated_Source\PSoC4/packets.c ****         return packets_ERR_INCOMPLETE;    
 509:Generated_Source\PSoC4/packets.c ****     }
 510:Generated_Source\PSoC4/packets.c ****     /* Ensure start of packet symbol */
 511:Generated_Source\PSoC4/packets.c ****     uint8 startByte = rxBuffer->buffer[packets_INDEX_START];
 512:Generated_Source\PSoC4/packets.c ****     if (startByte != packets_SYM_START) {
 513:Generated_Source\PSoC4/packets.c ****         error |= packets_ERR_START_SYM;
 514:Generated_Source\PSoC4/packets.c ****     }
 515:Generated_Source\PSoC4/packets.c ****     /* Get the Module */
 516:Generated_Source\PSoC4/packets.c ****     packet->moduleId = rxBuffer->buffer[packets_INDEX_MODULE_ID];
 517:Generated_Source\PSoC4/packets.c ****     if (packet->moduleId > packets_ID_MODULE_MAX) {
 518:Generated_Source\PSoC4/packets.c ****         error |= packets_ERR_MODULE;
 519:Generated_Source\PSoC4/packets.c ****     }
 520:Generated_Source\PSoC4/packets.c ****     /* Get the Command - Cannot tell if valid at this point */
 521:Generated_Source\PSoC4/packets.c ****     packet->cmd = rxBuffer->buffer[packets_INDEX_CMD];
 522:Generated_Source\PSoC4/packets.c ****     /* Get the payload length */
 523:Generated_Source\PSoC4/packets.c ****     packet->payloadLen = (rxBuffer->buffer[packets_INDEX_LEN_MSB] << BITS_ONE_BYTE) | rxBuffer->buf
 524:Generated_Source\PSoC4/packets.c ****     if (packet->payloadLen > packets_LEN_MAX_PAYLOAD) {
 525:Generated_Source\PSoC4/packets.c ****         error |= packets_ERR_LENGTH;  
 526:Generated_Source\PSoC4/packets.c ****     }
ARM GAS  C:\Users\ccheney\AppData\Local\Temp\ccHegA34.s 			page 22


 527:Generated_Source\PSoC4/packets.c ****     
 528:Generated_Source\PSoC4/packets.c ****     /* Ensure Payload array is allocated */
 529:Generated_Source\PSoC4/packets.c ****     if(packet->payload == NULL){
 530:Generated_Source\PSoC4/packets.c ****         error |= packets_ERR_MEMORY;   
 531:Generated_Source\PSoC4/packets.c ****     }
 532:Generated_Source\PSoC4/packets.c ****     if(!error){
 533:Generated_Source\PSoC4/packets.c ****         /* Transfer the payload to the new buffer */
 534:Generated_Source\PSoC4/packets.c ****         memmove(packet->payload, &(rxBuffer->buffer[packets_INDEX_PAYLOAD]), packet->payloadLen); 
 535:Generated_Source\PSoC4/packets.c **** 
 536:Generated_Source\PSoC4/packets.c ****         /* Start of the footer */
 537:Generated_Source\PSoC4/packets.c ****         uint8_t* footerPtr = &(rxBuffer->buffer[packets_LEN_HEADER + packet->payloadLen]);
 538:Generated_Source\PSoC4/packets.c ****         /* Get the flags */
 539:Generated_Source\PSoC4/packets.c ****         uint8 flags3 = *footerPtr++;
 540:Generated_Source\PSoC4/packets.c ****         uint8 flags2 = *footerPtr++;
 541:Generated_Source\PSoC4/packets.c ****         uint8 flags1 = *footerPtr++;
 542:Generated_Source\PSoC4/packets.c ****         uint8 flags0 = *footerPtr++;
 543:Generated_Source\PSoC4/packets.c ****         packet->flags = (uint32_t) ((flags3 << BITS_THREE_BYTES) | (flags2 << BITS_TWO_BYTES) | (fl
 544:Generated_Source\PSoC4/packets.c ****         /* Validate checksum */
 545:Generated_Source\PSoC4/packets.c ****         uint16_t calculatedChecksum = packets_computeChecksum16(rxBuffer->buffer, packets_LEN_HEADE
 546:Generated_Source\PSoC4/packets.c ****         uint8 checkSumMsb = *footerPtr++;
 547:Generated_Source\PSoC4/packets.c ****         uint8 checkSumLsb = *footerPtr++;
 548:Generated_Source\PSoC4/packets.c ****         uint16_t reportedChecksum = (checkSumMsb << BITS_ONE_BYTE) | checkSumLsb;
 549:Generated_Source\PSoC4/packets.c ****         if( calculatedChecksum != reportedChecksum) {
 550:Generated_Source\PSoC4/packets.c ****             error |= packets_ERR_CHECKSUM;
 551:Generated_Source\PSoC4/packets.c ****         }
 552:Generated_Source\PSoC4/packets.c ****         /* Check end of packet symbol */
 553:Generated_Source\PSoC4/packets.c ****         uint8 endSymbol = *footerPtr;
 554:Generated_Source\PSoC4/packets.c ****         if (endSymbol != packets_SYM_END) {
 555:Generated_Source\PSoC4/packets.c ****             error|= packets_ERR_END_SYM;
 556:Generated_Source\PSoC4/packets.c ****         }
 557:Generated_Source\PSoC4/packets.c ****         /* Flush the buffer */
 558:Generated_Source\PSoC4/packets.c ****         packets_flushRxBuffers(buffer);
 559:Generated_Source\PSoC4/packets.c ****         /* Return the error code */
 560:Generated_Source\PSoC4/packets.c ****     }
 561:Generated_Source\PSoC4/packets.c ****     return error;
 562:Generated_Source\PSoC4/packets.c **** } 
 563:Generated_Source\PSoC4/packets.c **** 
 564:Generated_Source\PSoC4/packets.c **** /*******************************************************************************
 565:Generated_Source\PSoC4/packets.c **** * Function Name: packets_computeChecksum16()
 566:Generated_Source\PSoC4/packets.c **** ****************************************************************************//**
 567:Generated_Source\PSoC4/packets.c **** * \brief
 568:Generated_Source\PSoC4/packets.c **** *  Calculates the 16 bit, two's complement, checksum from an array of data
 569:Generated_Source\PSoC4/packets.c **** *
 570:Generated_Source\PSoC4/packets.c **** * \param data
 571:Generated_Source\PSoC4/packets.c **** * Array which contains the data
 572:Generated_Source\PSoC4/packets.c **** *
 573:Generated_Source\PSoC4/packets.c **** * \param length
 574:Generated_Source\PSoC4/packets.c **** * The length of the data to interate over
 575:Generated_Source\PSoC4/packets.c **** *
 576:Generated_Source\PSoC4/packets.c **** * \return
 577:Generated_Source\PSoC4/packets.c **** * The value of the checksum in two's complement form
 578:Generated_Source\PSoC4/packets.c **** *
 579:Generated_Source\PSoC4/packets.c **** *******************************************************************************/
 580:Generated_Source\PSoC4/packets.c **** uint16_t packets_computeChecksum16(uint8_t* data, uint16_t length){
 667              		.loc 1 580 0
 668              		.cfi_startproc
 669              		@ args = 0, pretend = 0, frame = 0
ARM GAS  C:\Users\ccheney\AppData\Local\Temp\ccHegA34.s 			page 23


 670              		@ frame_needed = 0, uses_anonymous_args = 0
 671              	.LVL67:
 672 0000 10B5     		push	{r4, lr}
 673              		.cfi_def_cfa_offset 8
 674              		.cfi_offset 4, -8
 675              		.cfi_offset 14, -4
 676              	.LVL68:
 581:Generated_Source\PSoC4/packets.c ****     /* Local variables */
 582:Generated_Source\PSoC4/packets.c ****     uint8_t idx;
 583:Generated_Source\PSoC4/packets.c ****     uint16_t sum = ZERO;
 677              		.loc 1 583 0
 678 0002 0022     		movs	r2, #0
 584:Generated_Source\PSoC4/packets.c ****     /* Iterate over the values */
 585:Generated_Source\PSoC4/packets.c ****     for( idx = ZERO; idx < length; idx++ ){
 679              		.loc 1 585 0
 680 0004 0023     		movs	r3, #0
 681 0006 04E0     		b	.L42
 682              	.LVL69:
 683              	.L43:
 586:Generated_Source\PSoC4/packets.c ****         sum += data[idx];
 684              		.loc 1 586 0 discriminator 3
 685 0008 C45C     		ldrb	r4, [r0, r3]
 686 000a 1219     		adds	r2, r2, r4
 687              	.LVL70:
 688 000c 92B2     		uxth	r2, r2
 689              	.LVL71:
 585:Generated_Source\PSoC4/packets.c ****         sum += data[idx];
 690              		.loc 1 585 0 discriminator 3
 691 000e 0133     		adds	r3, r3, #1
 692              	.LVL72:
 693 0010 DBB2     		uxtb	r3, r3
 694              	.LVL73:
 695              	.L42:
 585:Generated_Source\PSoC4/packets.c ****         sum += data[idx];
 696              		.loc 1 585 0 is_stmt 0 discriminator 1
 697 0012 9CB2     		uxth	r4, r3
 698 0014 8C42     		cmp	r4, r1
 699 0016 F7D3     		bcc	.L43
 587:Generated_Source\PSoC4/packets.c ****     }
 588:Generated_Source\PSoC4/packets.c ****     /* Return the sum in two's complement */
 589:Generated_Source\PSoC4/packets.c ****     return (1 + ~sum);
 700              		.loc 1 589 0 is_stmt 1
 701 0018 5042     		rsbs	r0, r2, #0
 702              	.LVL74:
 703 001a 80B2     		uxth	r0, r0
 590:Generated_Source\PSoC4/packets.c **** }
 704              		.loc 1 590 0
 705              		@ sp needed
 706 001c 10BD     		pop	{r4, pc}
 707              		.cfi_endproc
 708              	.LFE12:
 709              		.size	packets_computeChecksum16, .-packets_computeChecksum16
 710 001e C046     		.section	.text.packets_constructPacket,"ax",%progbits
 711              		.align	2
 712              		.global	packets_constructPacket
 713              		.code	16
 714              		.thumb_func
ARM GAS  C:\Users\ccheney\AppData\Local\Temp\ccHegA34.s 			page 24


 715              		.type	packets_constructPacket, %function
 716              	packets_constructPacket:
 717              	.LFB8:
 280:Generated_Source\PSoC4/packets.c ****     uint32_t error = packets_ERR_SUCCESS;
 718              		.loc 1 280 0
 719              		.cfi_startproc
 720              		@ args = 0, pretend = 0, frame = 0
 721              		@ frame_needed = 0, uses_anonymous_args = 0
 722              	.LVL75:
 723 0000 70B5     		push	{r4, r5, r6, lr}
 724              		.cfi_def_cfa_offset 16
 725              		.cfi_offset 4, -16
 726              		.cfi_offset 5, -12
 727              		.cfi_offset 6, -8
 728              		.cfi_offset 14, -4
 729 0002 0400     		movs	r4, r0
 730              	.LVL76:
 289:Generated_Source\PSoC4/packets.c ****         error |= packets_ERR_MODULE;
 731              		.loc 1 289 0
 732 0004 0378     		ldrb	r3, [r0]
 733 0006 052B     		cmp	r3, #5
 734 0008 01D8     		bhi	.L52
 281:Generated_Source\PSoC4/packets.c ****     /* Create local references */
 735              		.loc 1 281 0
 736 000a 0025     		movs	r5, #0
 737 000c 00E0     		b	.L45
 738              	.L52:
 290:Generated_Source\PSoC4/packets.c ****     }
 739              		.loc 1 290 0
 740 000e 4025     		movs	r5, #64
 741              	.L45:
 742              	.LVL77:
 293:Generated_Source\PSoC4/packets.c ****         error |= packets_ERR_LENGTH;
 743              		.loc 1 293 0
 744 0010 6389     		ldrh	r3, [r4, #10]
 745 0012 8022     		movs	r2, #128
 746 0014 5200     		lsls	r2, r2, #1
 747 0016 9342     		cmp	r3, r2
 748 0018 01D9     		bls	.L46
 294:Generated_Source\PSoC4/packets.c ****     }
 749              		.loc 1 294 0
 750 001a F83A     		subs	r2, r2, #248
 751 001c 1543     		orrs	r5, r2
 752              	.LVL78:
 753              	.L46:
 297:Generated_Source\PSoC4/packets.c ****         error |= packets_ERR_MEMORY;
 754              		.loc 1 297 0
 755 001e 0C33     		adds	r3, r3, #12
 756 0020 228B     		ldrh	r2, [r4, #24]
 757 0022 9342     		cmp	r3, r2
 758 0024 01D9     		bls	.L47
 298:Generated_Source\PSoC4/packets.c ****     }
 759              		.loc 1 298 0
 760 0026 0123     		movs	r3, #1
 761 0028 1D43     		orrs	r5, r3
 762              	.LVL79:
 763              	.L47:
ARM GAS  C:\Users\ccheney\AppData\Local\Temp\ccHegA34.s 			page 25


 301:Generated_Source\PSoC4/packets.c ****        error |= packets_ERR_STATE;
 764              		.loc 1 301 0
 765 002a 2023     		movs	r3, #32
 766 002c E35C     		ldrb	r3, [r4, r3]
 767 002e 002B     		cmp	r3, #0
 768 0030 02D0     		beq	.L48
 302:Generated_Source\PSoC4/packets.c ****     }
 769              		.loc 1 302 0
 770 0032 8023     		movs	r3, #128
 771 0034 DB00     		lsls	r3, r3, #3
 772 0036 1D43     		orrs	r5, r3
 773              	.LVL80:
 774              	.L48:
 305:Generated_Source\PSoC4/packets.c ****         /* Reset the buffer count */
 775              		.loc 1 305 0
 776 0038 002D     		cmp	r5, #0
 777 003a 5DD1     		bne	.L49
 778              	.LBB4:
 309:Generated_Source\PSoC4/packets.c ****         txBuffer->buffer[(txBuffer->bufferIndex)++] = packet->moduleId;
 779              		.loc 1 309 0
 780 003c 0123     		movs	r3, #1
 781 003e 6383     		strh	r3, [r4, #26]
 782 0040 6269     		ldr	r2, [r4, #20]
 783 0042 1370     		strb	r3, [r2]
 310:Generated_Source\PSoC4/packets.c ****         txBuffer->buffer[(txBuffer->bufferIndex)++] = packet->cmd;
 784              		.loc 1 310 0
 785 0044 638B     		ldrh	r3, [r4, #26]
 786 0046 5A1C     		adds	r2, r3, #1
 787 0048 6283     		strh	r2, [r4, #26]
 788 004a 2278     		ldrb	r2, [r4]
 789 004c 6169     		ldr	r1, [r4, #20]
 790 004e CA54     		strb	r2, [r1, r3]
 311:Generated_Source\PSoC4/packets.c ****         /* Payload length MSB */
 791              		.loc 1 311 0
 792 0050 638B     		ldrh	r3, [r4, #26]
 793 0052 5A1C     		adds	r2, r3, #1
 794 0054 6283     		strh	r2, [r4, #26]
 795 0056 6278     		ldrb	r2, [r4, #1]
 796 0058 6169     		ldr	r1, [r4, #20]
 797 005a CA54     		strb	r2, [r1, r3]
 313:Generated_Source\PSoC4/packets.c ****         /* Payload length MSB */
 798              		.loc 1 313 0
 799 005c 628B     		ldrh	r2, [r4, #26]
 800 005e 531C     		adds	r3, r2, #1
 801 0060 6383     		strh	r3, [r4, #26]
 802 0062 6389     		ldrh	r3, [r4, #10]
 803 0064 1B0A     		lsrs	r3, r3, #8
 804 0066 6169     		ldr	r1, [r4, #20]
 805 0068 8B54     		strb	r3, [r1, r2]
 315:Generated_Source\PSoC4/packets.c ****         /* Payload */
 806              		.loc 1 315 0
 807 006a 638B     		ldrh	r3, [r4, #26]
 808 006c 5A1C     		adds	r2, r3, #1
 809 006e 6283     		strh	r2, [r4, #26]
 810 0070 6289     		ldrh	r2, [r4, #10]
 811 0072 6169     		ldr	r1, [r4, #20]
 812 0074 CA54     		strb	r2, [r1, r3]
ARM GAS  C:\Users\ccheney\AppData\Local\Temp\ccHegA34.s 			page 26


 813              	.LVL81:
 318:Generated_Source\PSoC4/packets.c ****             txBuffer->buffer[(txBuffer->bufferIndex)++] = packet->payload[j];
 814              		.loc 1 318 0
 815 0076 0023     		movs	r3, #0
 816 0078 08E0     		b	.L50
 817              	.LVL82:
 818              	.L51:
 319:Generated_Source\PSoC4/packets.c ****         }
 819              		.loc 1 319 0 discriminator 3
 820 007a 628B     		ldrh	r2, [r4, #26]
 821 007c 511C     		adds	r1, r2, #1
 822 007e 6183     		strh	r1, [r4, #26]
 823 0080 6168     		ldr	r1, [r4, #4]
 824 0082 C95C     		ldrb	r1, [r1, r3]
 825 0084 6069     		ldr	r0, [r4, #20]
 826 0086 8154     		strb	r1, [r0, r2]
 318:Generated_Source\PSoC4/packets.c ****             txBuffer->buffer[(txBuffer->bufferIndex)++] = packet->payload[j];
 827              		.loc 1 318 0 discriminator 3
 828 0088 0133     		adds	r3, r3, #1
 829              	.LVL83:
 830 008a 9BB2     		uxth	r3, r3
 831              	.LVL84:
 832              	.L50:
 318:Generated_Source\PSoC4/packets.c ****             txBuffer->buffer[(txBuffer->bufferIndex)++] = packet->payload[j];
 833              		.loc 1 318 0 is_stmt 0 discriminator 1
 834 008c 6289     		ldrh	r2, [r4, #10]
 835 008e 9342     		cmp	r3, r2
 836 0090 F3D3     		bcc	.L51
 323:Generated_Source\PSoC4/packets.c ****         txBuffer->buffer[(txBuffer->bufferIndex)++] = (uint8_t) ((packet->flags) >> BITS_TWO_BYTES)
 837              		.loc 1 323 0 is_stmt 1
 838 0092 638B     		ldrh	r3, [r4, #26]
 839              	.LVL85:
 840 0094 5A1C     		adds	r2, r3, #1
 841 0096 6283     		strh	r2, [r4, #26]
 842 0098 E27B     		ldrb	r2, [r4, #15]
 843 009a 6169     		ldr	r1, [r4, #20]
 844 009c CA54     		strb	r2, [r1, r3]
 324:Generated_Source\PSoC4/packets.c ****         txBuffer->buffer[(txBuffer->bufferIndex)++] = (uint8_t) ((packet->flags) >> BITS_ONE_BYTE);
 845              		.loc 1 324 0
 846 009e 638B     		ldrh	r3, [r4, #26]
 847 00a0 5A1C     		adds	r2, r3, #1
 848 00a2 6283     		strh	r2, [r4, #26]
 849 00a4 A27B     		ldrb	r2, [r4, #14]
 850 00a6 6169     		ldr	r1, [r4, #20]
 851 00a8 CA54     		strb	r2, [r1, r3]
 325:Generated_Source\PSoC4/packets.c ****         txBuffer->buffer[(txBuffer->bufferIndex)++] = (uint8_t)  (packet->flags);
 852              		.loc 1 325 0
 853 00aa 628B     		ldrh	r2, [r4, #26]
 854 00ac 531C     		adds	r3, r2, #1
 855 00ae 6383     		strh	r3, [r4, #26]
 856 00b0 E368     		ldr	r3, [r4, #12]
 857 00b2 1B0A     		lsrs	r3, r3, #8
 858 00b4 6169     		ldr	r1, [r4, #20]
 859 00b6 8B54     		strb	r3, [r1, r2]
 326:Generated_Source\PSoC4/packets.c ****         /* Calculate checksum */
 860              		.loc 1 326 0
 861 00b8 638B     		ldrh	r3, [r4, #26]
ARM GAS  C:\Users\ccheney\AppData\Local\Temp\ccHegA34.s 			page 27


 862 00ba 5A1C     		adds	r2, r3, #1
 863 00bc 6283     		strh	r2, [r4, #26]
 864 00be 227B     		ldrb	r2, [r4, #12]
 865 00c0 6169     		ldr	r1, [r4, #20]
 866 00c2 CA54     		strb	r2, [r1, r3]
 328:Generated_Source\PSoC4/packets.c ****         txBuffer->buffer[(txBuffer->bufferIndex)++] = (checksum >> BITS_ONE_BYTE) & MASK_BYTE_ONE;
 867              		.loc 1 328 0
 868 00c4 6669     		ldr	r6, [r4, #20]
 869 00c6 6189     		ldrh	r1, [r4, #10]
 870 00c8 0931     		adds	r1, r1, #9
 871 00ca 89B2     		uxth	r1, r1
 872 00cc 3000     		movs	r0, r6
 873 00ce FFF7FEFF 		bl	packets_computeChecksum16
 874              	.LVL86:
 329:Generated_Source\PSoC4/packets.c ****         txBuffer->buffer[(txBuffer->bufferIndex)++] = (checksum) & MASK_BYTE_ONE;
 875              		.loc 1 329 0
 876 00d2 638B     		ldrh	r3, [r4, #26]
 877 00d4 5A1C     		adds	r2, r3, #1
 878 00d6 6283     		strh	r2, [r4, #26]
 879 00d8 020A     		lsrs	r2, r0, #8
 880 00da F254     		strb	r2, [r6, r3]
 330:Generated_Source\PSoC4/packets.c ****         txBuffer->buffer[(txBuffer->bufferIndex)++] = packets_SYM_END;
 881              		.loc 1 330 0
 882 00dc 638B     		ldrh	r3, [r4, #26]
 883 00de 5A1C     		adds	r2, r3, #1
 884 00e0 6283     		strh	r2, [r4, #26]
 885 00e2 6269     		ldr	r2, [r4, #20]
 886 00e4 D054     		strb	r0, [r2, r3]
 331:Generated_Source\PSoC4/packets.c ****         /* Advance to Ready to send */
 887              		.loc 1 331 0
 888 00e6 638B     		ldrh	r3, [r4, #26]
 889 00e8 5A1C     		adds	r2, r3, #1
 890 00ea 6283     		strh	r2, [r4, #26]
 891 00ec AA22     		movs	r2, #170
 892 00ee 6169     		ldr	r1, [r4, #20]
 893 00f0 CA54     		strb	r2, [r1, r3]
 333:Generated_Source\PSoC4/packets.c ****     }
 894              		.loc 1 333 0
 895 00f2 A93A     		subs	r2, r2, #169
 896 00f4 2023     		movs	r3, #32
 897 00f6 E254     		strb	r2, [r4, r3]
 898              	.LVL87:
 899              	.L49:
 900              	.LBE4:
 337:Generated_Source\PSoC4/packets.c **** 
 901              		.loc 1 337 0
 902 00f8 2800     		movs	r0, r5
 903              		@ sp needed
 904              	.LVL88:
 905              	.LVL89:
 906 00fa 70BD     		pop	{r4, r5, r6, pc}
 907              		.cfi_endproc
 908              	.LFE8:
 909              		.size	packets_constructPacket, .-packets_constructPacket
 910              		.section	.text.packets_sendPacket,"ax",%progbits
 911              		.align	2
 912              		.global	packets_sendPacket
ARM GAS  C:\Users\ccheney\AppData\Local\Temp\ccHegA34.s 			page 28


 913              		.code	16
 914              		.thumb_func
 915              		.type	packets_sendPacket, %function
 916              	packets_sendPacket:
 917              	.LFB9:
 353:Generated_Source\PSoC4/packets.c ****     uint32_t error = packets_ERR_SUCCESS;
 918              		.loc 1 353 0
 919              		.cfi_startproc
 920              		@ args = 0, pretend = 0, frame = 0
 921              		@ frame_needed = 0, uses_anonymous_args = 0
 922              	.LVL90:
 923 0000 70B5     		push	{r4, r5, r6, lr}
 924              		.cfi_def_cfa_offset 16
 925              		.cfi_offset 4, -16
 926              		.cfi_offset 5, -12
 927              		.cfi_offset 6, -8
 928              		.cfi_offset 14, -4
 929 0002 0400     		movs	r4, r0
 930              	.LVL91:
 356:Generated_Source\PSoC4/packets.c ****     /* Create local references */
 931              		.loc 1 356 0
 932 0004 FFF7FEFF 		bl	packets_constructPacket
 933              	.LVL92:
 934 0008 0500     		movs	r5, r0
 935              	.LVL93:
 361:Generated_Source\PSoC4/packets.c ****        error |= packets_ERR_STATE;
 936              		.loc 1 361 0
 937 000a 2023     		movs	r3, #32
 938 000c E35C     		ldrb	r3, [r4, r3]
 939 000e 012B     		cmp	r3, #1
 940 0010 02D0     		beq	.L54
 362:Generated_Source\PSoC4/packets.c ****     }
 941              		.loc 1 362 0
 942 0012 8023     		movs	r3, #128
 943 0014 DB00     		lsls	r3, r3, #3
 944 0016 1D43     		orrs	r5, r3
 945              	.LVL94:
 946              	.L54:
 364:Generated_Source\PSoC4/packets.c ****         /* Write out the function */
 947              		.loc 1 364 0
 948 0018 002D     		cmp	r5, #0
 949 001a 09D1     		bne	.L55
 366:Generated_Source\PSoC4/packets.c ****         /* Move back to the original state */
 950              		.loc 1 366 0
 951 001c 218B     		ldrh	r1, [r4, #24]
 952 001e 6069     		ldr	r0, [r4, #20]
 953 0020 FFF7FEFF 		bl	usbUart_dummyTxArray
 954              	.LVL95:
 368:Generated_Source\PSoC4/packets.c ****         /* Flush the TX buffer */
 955              		.loc 1 368 0
 956 0024 0022     		movs	r2, #0
 957 0026 2023     		movs	r3, #32
 958 0028 E254     		strb	r2, [r4, r3]
 370:Generated_Source\PSoC4/packets.c ****     }
 959              		.loc 1 370 0
 960 002a 2000     		movs	r0, r4
 961 002c FFF7FEFF 		bl	packets_flushTxBuffers
ARM GAS  C:\Users\ccheney\AppData\Local\Temp\ccHegA34.s 			page 29


 962              	.LVL96:
 963              	.L55:
 373:Generated_Source\PSoC4/packets.c **** 
 964              		.loc 1 373 0
 965 0030 2800     		movs	r0, r5
 966              		@ sp needed
 967              	.LVL97:
 968              	.LVL98:
 969 0032 70BD     		pop	{r4, r5, r6, pc}
 970              		.cfi_endproc
 971              	.LFE9:
 972              		.size	packets_sendPacket, .-packets_sendPacket
 973              		.section	.text.packets_parsePacket,"ax",%progbits
 974              		.align	2
 975              		.global	packets_parsePacket
 976              		.code	16
 977              		.thumb_func
 978              		.type	packets_parsePacket, %function
 979              	packets_parsePacket:
 980              	.LFB11:
 499:Generated_Source\PSoC4/packets.c ****     uint32_t error = packets_ERR_SUCCESS;
 981              		.loc 1 499 0
 982              		.cfi_startproc
 983              		@ args = 0, pretend = 0, frame = 0
 984              		@ frame_needed = 0, uses_anonymous_args = 0
 985              	.LVL99:
 986 0000 F8B5     		push	{r3, r4, r5, r6, r7, lr}
 987              		.cfi_def_cfa_offset 24
 988              		.cfi_offset 3, -24
 989              		.cfi_offset 4, -20
 990              		.cfi_offset 5, -16
 991              		.cfi_offset 6, -12
 992              		.cfi_offset 7, -8
 993              		.cfi_offset 14, -4
 994 0002 0400     		movs	r4, r0
 995              	.LVL100:
 507:Generated_Source\PSoC4/packets.c ****         return packets_ERR_INCOMPLETE;    
 996              		.loc 1 507 0
 997 0004 4423     		movs	r3, #68
 998 0006 C35C     		ldrb	r3, [r0, r3]
 999 0008 042B     		cmp	r3, #4
 1000 000a 4ED1     		bne	.L64
 511:Generated_Source\PSoC4/packets.c ****     if (startByte != packets_SYM_START) {
 1001              		.loc 1 511 0
 1002 000c 816B     		ldr	r1, [r0, #56]
 1003 000e 0B78     		ldrb	r3, [r1]
 1004              	.LVL101:
 512:Generated_Source\PSoC4/packets.c ****         error |= packets_ERR_START_SYM;
 1005              		.loc 1 512 0
 1006 0010 012B     		cmp	r3, #1
 1007 0012 01D1     		bne	.L65
 500:Generated_Source\PSoC4/packets.c ****     /* Create local references */
 1008              		.loc 1 500 0
 1009 0014 0025     		movs	r5, #0
 1010 0016 00E0     		b	.L58
 1011              	.L65:
 513:Generated_Source\PSoC4/packets.c ****     }
ARM GAS  C:\Users\ccheney\AppData\Local\Temp\ccHegA34.s 			page 30


 1012              		.loc 1 513 0
 1013 0018 0225     		movs	r5, #2
 1014              	.L58:
 1015              	.LVL102:
 516:Generated_Source\PSoC4/packets.c ****     if (packet->moduleId > packets_ID_MODULE_MAX) {
 1016              		.loc 1 516 0
 1017 001a 4B78     		ldrb	r3, [r1, #1]
 1018              	.LVL103:
 1019 001c 2422     		movs	r2, #36
 1020 001e A354     		strb	r3, [r4, r2]
 1021              	.LVL104:
 517:Generated_Source\PSoC4/packets.c ****         error |= packets_ERR_MODULE;
 1022              		.loc 1 517 0
 1023 0020 052B     		cmp	r3, #5
 1024 0022 01D9     		bls	.L59
 518:Generated_Source\PSoC4/packets.c ****     }
 1025              		.loc 1 518 0
 1026 0024 4023     		movs	r3, #64
 1027 0026 1D43     		orrs	r5, r3
 1028              	.LVL105:
 1029              	.L59:
 521:Generated_Source\PSoC4/packets.c ****     /* Get the payload length */
 1030              		.loc 1 521 0
 1031 0028 8A78     		ldrb	r2, [r1, #2]
 1032 002a 2300     		movs	r3, r4
 1033 002c 2433     		adds	r3, r3, #36
 1034 002e 5A70     		strb	r2, [r3, #1]
 523:Generated_Source\PSoC4/packets.c ****     if (packet->payloadLen > packets_LEN_MAX_PAYLOAD) {
 1035              		.loc 1 523 0
 1036 0030 CA78     		ldrb	r2, [r1, #3]
 1037 0032 1202     		lsls	r2, r2, #8
 1038 0034 0B79     		ldrb	r3, [r1, #4]
 1039 0036 1A43     		orrs	r2, r3
 1040 0038 E285     		strh	r2, [r4, #46]
 524:Generated_Source\PSoC4/packets.c ****         error |= packets_ERR_LENGTH;  
 1041              		.loc 1 524 0
 1042 003a 8023     		movs	r3, #128
 1043 003c 5B00     		lsls	r3, r3, #1
 1044 003e 9A42     		cmp	r2, r3
 1045 0040 01D9     		bls	.L60
 525:Generated_Source\PSoC4/packets.c ****     }
 1046              		.loc 1 525 0
 1047 0042 F83B     		subs	r3, r3, #248
 1048 0044 1D43     		orrs	r5, r3
 1049              	.LVL106:
 1050              	.L60:
 529:Generated_Source\PSoC4/packets.c ****         error |= packets_ERR_MEMORY;   
 1051              		.loc 1 529 0
 1052 0046 A06A     		ldr	r0, [r4, #40]
 1053              	.LVL107:
 1054 0048 0028     		cmp	r0, #0
 1055 004a 01D1     		bne	.L61
 530:Generated_Source\PSoC4/packets.c ****     }
 1056              		.loc 1 530 0
 1057 004c 0123     		movs	r3, #1
 1058 004e 1D43     		orrs	r5, r3
 1059              	.LVL108:
ARM GAS  C:\Users\ccheney\AppData\Local\Temp\ccHegA34.s 			page 31


 1060              	.L61:
 532:Generated_Source\PSoC4/packets.c ****         /* Transfer the payload to the new buffer */
 1061              		.loc 1 532 0
 1062 0050 002D     		cmp	r5, #0
 1063 0052 2CD1     		bne	.L66
 1064              	.LBB5:
 534:Generated_Source\PSoC4/packets.c **** 
 1065              		.loc 1 534 0
 1066 0054 0531     		adds	r1, r1, #5
 1067 0056 FFF7FEFF 		bl	memmove
 1068              	.LVL109:
 537:Generated_Source\PSoC4/packets.c ****         /* Get the flags */
 1069              		.loc 1 537 0
 1070 005a E18D     		ldrh	r1, [r4, #46]
 1071 005c 4E1D     		adds	r6, r1, #5
 1072 005e A36B     		ldr	r3, [r4, #56]
 1073 0060 9C46     		mov	ip, r3
 1074 0062 6644     		add	r6, r6, ip
 1075              	.LVL110:
 539:Generated_Source\PSoC4/packets.c ****         uint8 flags2 = *footerPtr++;
 1076              		.loc 1 539 0
 1077 0064 3378     		ldrb	r3, [r6]
 1078              	.LVL111:
 540:Generated_Source\PSoC4/packets.c ****         uint8 flags1 = *footerPtr++;
 1079              		.loc 1 540 0
 1080 0066 7078     		ldrb	r0, [r6, #1]
 1081              	.LVL112:
 541:Generated_Source\PSoC4/packets.c ****         uint8 flags0 = *footerPtr++;
 1082              		.loc 1 541 0
 1083 0068 B278     		ldrb	r2, [r6, #2]
 1084              	.LVL113:
 542:Generated_Source\PSoC4/packets.c ****         packet->flags = (uint32_t) ((flags3 << BITS_THREE_BYTES) | (flags2 << BITS_TWO_BYTES) | (fl
 1085              		.loc 1 542 0
 1086 006a F778     		ldrb	r7, [r6, #3]
 1087              	.LVL114:
 543:Generated_Source\PSoC4/packets.c ****         /* Validate checksum */
 1088              		.loc 1 543 0
 1089 006c 1B06     		lsls	r3, r3, #24
 1090              	.LVL115:
 1091 006e 0004     		lsls	r0, r0, #16
 1092              	.LVL116:
 1093 0070 0343     		orrs	r3, r0
 1094 0072 1202     		lsls	r2, r2, #8
 1095              	.LVL117:
 1096 0074 1343     		orrs	r3, r2
 1097 0076 3B43     		orrs	r3, r7
 1098 0078 2363     		str	r3, [r4, #48]
 1099              	.LVL118:
 545:Generated_Source\PSoC4/packets.c ****         uint8 checkSumMsb = *footerPtr++;
 1100              		.loc 1 545 0
 1101 007a 0931     		adds	r1, r1, #9
 1102 007c 89B2     		uxth	r1, r1
 1103 007e 6046     		mov	r0, ip
 1104 0080 FFF7FEFF 		bl	packets_computeChecksum16
 1105              	.LVL119:
 546:Generated_Source\PSoC4/packets.c ****         uint8 checkSumLsb = *footerPtr++;
 1106              		.loc 1 546 0
ARM GAS  C:\Users\ccheney\AppData\Local\Temp\ccHegA34.s 			page 32


 1107 0084 3379     		ldrb	r3, [r6, #4]
 1108              	.LVL120:
 547:Generated_Source\PSoC4/packets.c ****         uint16_t reportedChecksum = (checkSumMsb << BITS_ONE_BYTE) | checkSumLsb;
 1109              		.loc 1 547 0
 1110 0086 7279     		ldrb	r2, [r6, #5]
 1111              	.LVL121:
 548:Generated_Source\PSoC4/packets.c ****         if( calculatedChecksum != reportedChecksum) {
 1112              		.loc 1 548 0
 1113 0088 1B02     		lsls	r3, r3, #8
 1114              	.LVL122:
 1115 008a 1343     		orrs	r3, r2
 1116              	.LVL123:
 549:Generated_Source\PSoC4/packets.c ****             error |= packets_ERR_CHECKSUM;
 1117              		.loc 1 549 0
 1118 008c 9842     		cmp	r0, r3
 1119 008e 02D0     		beq	.L62
 550:Generated_Source\PSoC4/packets.c ****         }
 1120              		.loc 1 550 0
 1121 0090 8023     		movs	r3, #128
 1122              	.LVL124:
 1123 0092 9B00     		lsls	r3, r3, #2
 1124 0094 1D43     		orrs	r5, r3
 1125              	.LVL125:
 1126              	.L62:
 553:Generated_Source\PSoC4/packets.c ****         if (endSymbol != packets_SYM_END) {
 1127              		.loc 1 553 0
 1128 0096 B379     		ldrb	r3, [r6, #6]
 1129              	.LVL126:
 554:Generated_Source\PSoC4/packets.c ****             error|= packets_ERR_END_SYM;
 1130              		.loc 1 554 0
 1131 0098 AA2B     		cmp	r3, #170
 1132 009a 01D0     		beq	.L63
 555:Generated_Source\PSoC4/packets.c ****         }
 1133              		.loc 1 555 0
 1134 009c 0423     		movs	r3, #4
 1135              	.LVL127:
 1136 009e 1D43     		orrs	r5, r3
 1137              	.LVL128:
 1138              	.L63:
 558:Generated_Source\PSoC4/packets.c ****         /* Return the error code */
 1139              		.loc 1 558 0
 1140 00a0 2000     		movs	r0, r4
 1141              	.LVL129:
 1142 00a2 FFF7FEFF 		bl	packets_flushRxBuffers
 1143              	.LVL130:
 1144 00a6 2800     		movs	r0, r5
 1145 00a8 02E0     		b	.L57
 1146              	.LVL131:
 1147              	.L64:
 1148              	.LBE5:
 508:Generated_Source\PSoC4/packets.c ****     }
 1149              		.loc 1 508 0
 1150 00aa 2020     		movs	r0, #32
 1151              	.LVL132:
 1152 00ac 00E0     		b	.L57
 1153              	.LVL133:
 1154              	.L66:
ARM GAS  C:\Users\ccheney\AppData\Local\Temp\ccHegA34.s 			page 33


 1155 00ae 2800     		movs	r0, r5
 1156              	.LVL134:
 1157              	.L57:
 562:Generated_Source\PSoC4/packets.c **** 
 1158              		.loc 1 562 0
 1159              		@ sp needed
 1160              	.LVL135:
 1161 00b0 F8BD     		pop	{r3, r4, r5, r6, r7, pc}
 1162              		.cfi_endproc
 1163              	.LFE11:
 1164              		.size	packets_parsePacket, .-packets_parsePacket
 1165 00b2 C046     		.text
 1166              	.Letext0:
 1167              		.file 2 "c:\\program files (x86)\\cypress\\psoc creator\\4.2\\psoc creator\\import\\gnu\\arm\\5.4.
 1168              		.file 3 "c:\\program files (x86)\\cypress\\psoc creator\\4.2\\psoc creator\\import\\gnu\\arm\\5.4.
 1169              		.file 4 "Generated_Source\\PSoC4\\cytypes.h"
 1170              		.file 5 "Generated_Source\\PSoC4\\packets.h"
 1171              		.file 6 "c:\\program files (x86)\\cypress\\psoc creator\\4.2\\psoc creator\\import\\gnu\\arm\\5.4.
 1172              		.file 7 "Generated_Source\\PSoC4\\usbUart.h"
 1173              		.file 8 "c:\\program files (x86)\\cypress\\psoc creator\\4.2\\psoc creator\\import\\gnu\\arm\\5.4.