ARM GAS  C:\Users\ccheney\AppData\Local\Temp\ccOzsMIM.s 			page 1


   1              		.syntax unified
   2              		.cpu cortex-m0
   3              		.fpu softvfp
   4              		.eabi_attribute 20, 1
   5              		.eabi_attribute 21, 1
   6              		.eabi_attribute 23, 3
   7              		.eabi_attribute 24, 1
   8              		.eabi_attribute 25, 1
   9              		.eabi_attribute 26, 1
  10              		.eabi_attribute 30, 1
  11              		.eabi_attribute 34, 0
  12              		.eabi_attribute 18, 4
  13              		.thumb
  14              		.syntax unified
  15              		.file	"testRunner.c"
  16              		.text
  17              	.Ltext0:
  18              		.cfi_sections	.debug_frame
  19              		.section	.text.testRunner_run,"ax",%progbits
  20              		.align	2
  21              		.global	testRunner_run
  22              		.code	16
  23              		.thumb_func
  24              		.type	testRunner_run, %function
  25              	testRunner_run:
  26              	.LFB2:
  27              		.file 1 "Generated_Source\\PSoC4\\testRunner.c"
   1:Generated_Source\PSoC4/testRunner.c **** /***************************************************************************
   2:Generated_Source\PSoC4/testRunner.c **** *                                       MICA
   3:Generated_Source\PSoC4/testRunner.c **** * File: testRunner.h
   4:Generated_Source\PSoC4/testRunner.c **** * Workspace: micaComponents
   5:Generated_Source\PSoC4/testRunner.c **** * Project Name: libMica
   6:Generated_Source\PSoC4/testRunner.c **** * Version: v1.0
   7:Generated_Source\PSoC4/testRunner.c **** * Author: Craig Cheney
   8:Generated_Source\PSoC4/testRunner.c **** *
   9:Generated_Source\PSoC4/testRunner.c **** * Brief:
  10:Generated_Source\PSoC4/testRunner.c **** *   Source for the test runner to run unit test
  11:Generated_Source\PSoC4/testRunner.c **** * 
  12:Generated_Source\PSoC4/testRunner.c **** * Authors:
  13:Generated_Source\PSoC4/testRunner.c **** *   Craig Cheney
  14:Generated_Source\PSoC4/testRunner.c **** *
  15:Generated_Source\PSoC4/testRunner.c **** * Change Log:
  16:Generated_Source\PSoC4/testRunner.c **** *   2018.09.07 CC - Document created
  17:Generated_Source\PSoC4/testRunner.c **** ********************************************************************************/
  18:Generated_Source\PSoC4/testRunner.c **** #include "testRunner.h"
  19:Generated_Source\PSoC4/testRunner.c **** #include "micaCommon.h"
  20:Generated_Source\PSoC4/testRunner.c **** 
  21:Generated_Source\PSoC4/testRunner.c **** 
  22:Generated_Source\PSoC4/testRunner.c **** static uint16_t passCount = ZERO;
  23:Generated_Source\PSoC4/testRunner.c **** static uint16_t testCount = ZERO;
  24:Generated_Source\PSoC4/testRunner.c **** void (*printFunction)(char *pszFmt, ...) = NULL;
  25:Generated_Source\PSoC4/testRunner.c **** 
  26:Generated_Source\PSoC4/testRunner.c **** /* Macro to test that print function has been set  */
  27:Generated_Source\PSoC4/testRunner.c **** #define testRunner_print(...) do {\
  28:Generated_Source\PSoC4/testRunner.c ****         if(printFunction != NULL){\
  29:Generated_Source\PSoC4/testRunner.c ****             printFunction(__VA_ARGS__);\
  30:Generated_Source\PSoC4/testRunner.c ****         }\
ARM GAS  C:\Users\ccheney\AppData\Local\Temp\ccOzsMIM.s 			page 2


  31:Generated_Source\PSoC4/testRunner.c ****     } while(0)
  32:Generated_Source\PSoC4/testRunner.c **** 
  33:Generated_Source\PSoC4/testRunner.c **** 
  34:Generated_Source\PSoC4/testRunner.c **** /*******************************************************************************
  35:Generated_Source\PSoC4/testRunner.c **** * Function Name: testRunner_run()
  36:Generated_Source\PSoC4/testRunner.c **** ****************************************************************************//**
  37:Generated_Source\PSoC4/testRunner.c **** * \brief
  38:Generated_Source\PSoC4/testRunner.c **** *  Records the results of a unit test
  39:Generated_Source\PSoC4/testRunner.c **** *
  40:Generated_Source\PSoC4/testRunner.c **** * \param passCount
  41:Generated_Source\PSoC4/testRunner.c **** *   Pointer to the number of test that have passed
  42:Generated_Source\PSoC4/testRunner.c **** *
  43:Generated_Source\PSoC4/testRunner.c **** * \param testCount
  44:Generated_Source\PSoC4/testRunner.c **** *   Pointer to the number of test run
  45:Generated_Source\PSoC4/testRunner.c **** *
  46:Generated_Source\PSoC4/testRunner.c **** * \return
  47:Generated_Source\PSoC4/testRunner.c **** *   None
  48:Generated_Source\PSoC4/testRunner.c **** *******************************************************************************/
  49:Generated_Source\PSoC4/testRunner.c **** void testRunner_run(bool testResult) {
  28              		.loc 1 49 0
  29              		.cfi_startproc
  30              		@ args = 0, pretend = 0, frame = 0
  31              		@ frame_needed = 0, uses_anonymous_args = 0
  32              		@ link register save eliminated.
  33              	.LVL0:
  50:Generated_Source\PSoC4/testRunner.c ****     testCount++;
  34              		.loc 1 50 0
  35 0000 034B     		ldr	r3, .L2
  36 0002 1A88     		ldrh	r2, [r3]
  37 0004 0132     		adds	r2, r2, #1
  38 0006 1A80     		strh	r2, [r3]
  51:Generated_Source\PSoC4/testRunner.c ****     passCount += testResult;
  39              		.loc 1 51 0
  40 0008 5A88     		ldrh	r2, [r3, #2]
  41 000a 1018     		adds	r0, r2, r0
  42              	.LVL1:
  43 000c 5880     		strh	r0, [r3, #2]
  52:Generated_Source\PSoC4/testRunner.c **** }
  44              		.loc 1 52 0
  45              		@ sp needed
  46 000e 7047     		bx	lr
  47              	.L3:
  48              		.align	2
  49              	.L2:
  50 0010 00000000 		.word	.LANCHOR0
  51              		.cfi_endproc
  52              	.LFE2:
  53              		.size	testRunner_run, .-testRunner_run
  54              		.section	.text.testRunner_resetCount,"ax",%progbits
  55              		.align	2
  56              		.global	testRunner_resetCount
  57              		.code	16
  58              		.thumb_func
  59              		.type	testRunner_resetCount, %function
  60              	testRunner_resetCount:
  61              	.LFB3:
  53:Generated_Source\PSoC4/testRunner.c **** 
ARM GAS  C:\Users\ccheney\AppData\Local\Temp\ccOzsMIM.s 			page 3


  54:Generated_Source\PSoC4/testRunner.c **** 
  55:Generated_Source\PSoC4/testRunner.c **** /*******************************************************************************
  56:Generated_Source\PSoC4/testRunner.c **** * Function Name: testRunner_resetCount()
  57:Generated_Source\PSoC4/testRunner.c **** ****************************************************************************//**
  58:Generated_Source\PSoC4/testRunner.c **** * \brief
  59:Generated_Source\PSoC4/testRunner.c **** *  Resets the recorded values of the test
  60:Generated_Source\PSoC4/testRunner.c **** *
  61:Generated_Source\PSoC4/testRunner.c **** * \return
  62:Generated_Source\PSoC4/testRunner.c **** *   None
  63:Generated_Source\PSoC4/testRunner.c **** *******************************************************************************/
  64:Generated_Source\PSoC4/testRunner.c **** void testRunner_resetCount(void) {
  62              		.loc 1 64 0
  63              		.cfi_startproc
  64              		@ args = 0, pretend = 0, frame = 0
  65              		@ frame_needed = 0, uses_anonymous_args = 0
  66              		@ link register save eliminated.
  65:Generated_Source\PSoC4/testRunner.c ****     testCount = ZERO;
  67              		.loc 1 65 0
  68 0000 024B     		ldr	r3, .L5
  69 0002 0022     		movs	r2, #0
  70 0004 1A80     		strh	r2, [r3]
  66:Generated_Source\PSoC4/testRunner.c ****     passCount = ZERO;
  71              		.loc 1 66 0
  72 0006 5A80     		strh	r2, [r3, #2]
  67:Generated_Source\PSoC4/testRunner.c **** }
  73              		.loc 1 67 0
  74              		@ sp needed
  75 0008 7047     		bx	lr
  76              	.L6:
  77 000a C046     		.align	2
  78              	.L5:
  79 000c 00000000 		.word	.LANCHOR0
  80              		.cfi_endproc
  81              	.LFE3:
  82              		.size	testRunner_resetCount, .-testRunner_resetCount
  83              		.section	.text.testRunner_printCount,"ax",%progbits
  84              		.align	2
  85              		.global	testRunner_printCount
  86              		.code	16
  87              		.thumb_func
  88              		.type	testRunner_printCount, %function
  89              	testRunner_printCount:
  90              	.LFB4:
  68:Generated_Source\PSoC4/testRunner.c **** 
  69:Generated_Source\PSoC4/testRunner.c **** /*******************************************************************************
  70:Generated_Source\PSoC4/testRunner.c **** * Function Name: testRunner_printCount()
  71:Generated_Source\PSoC4/testRunner.c **** ****************************************************************************//**
  72:Generated_Source\PSoC4/testRunner.c **** * \brief
  73:Generated_Source\PSoC4/testRunner.c **** *  Displays the results of the testing suite
  74:Generated_Source\PSoC4/testRunner.c **** *
  75:Generated_Source\PSoC4/testRunner.c **** * \param testName
  76:Generated_Source\PSoC4/testRunner.c **** *   Name of the test in question
  77:Generated_Source\PSoC4/testRunner.c **** *
  78:Generated_Source\PSoC4/testRunner.c **** * \param error
  79:Generated_Source\PSoC4/testRunner.c **** *   Actual value of error
  80:Generated_Source\PSoC4/testRunner.c **** *
  81:Generated_Source\PSoC4/testRunner.c **** * \param expectedResult, 
ARM GAS  C:\Users\ccheney\AppData\Local\Temp\ccOzsMIM.s 			page 4


  82:Generated_Source\PSoC4/testRunner.c **** *   Expected value of the error
  83:Generated_Source\PSoC4/testRunner.c **** *
  84:Generated_Source\PSoC4/testRunner.c **** * \param optErr
  85:Generated_Source\PSoC4/testRunner.c **** *   An optional Error to display if the test failed for reasons other
  86:Generated_Source\PSoC4/testRunner.c **** *   than a non-zero error code
  87:Generated_Source\PSoC4/testRunner.c **** *
  88:Generated_Source\PSoC4/testRunner.c **** * \return
  89:Generated_Source\PSoC4/testRunner.c **** *   Whether of not the test passed
  90:Generated_Source\PSoC4/testRunner.c **** *******************************************************************************/
  91:Generated_Source\PSoC4/testRunner.c **** void testRunner_printCount(void){
  91              		.loc 1 91 0
  92              		.cfi_startproc
  93              		@ args = 0, pretend = 0, frame = 0
  94              		@ frame_needed = 0, uses_anonymous_args = 0
  95 0000 10B5     		push	{r4, lr}
  96              		.cfi_def_cfa_offset 8
  97              		.cfi_offset 4, -8
  98              		.cfi_offset 14, -4
  92:Generated_Source\PSoC4/testRunner.c ****     testRunner_print("\r\n\n> Passed %d/%d tests\r\n", passCount, testCount);
  99              		.loc 1 92 0
 100 0002 064B     		ldr	r3, .L9
 101 0004 5B68     		ldr	r3, [r3, #4]
 102 0006 002B     		cmp	r3, #0
 103 0008 04D0     		beq	.L8
 104              		.loc 1 92 0 is_stmt 0 discriminator 1
 105 000a 0449     		ldr	r1, .L9
 106 000c 0A88     		ldrh	r2, [r1]
 107 000e 4988     		ldrh	r1, [r1, #2]
 108 0010 0348     		ldr	r0, .L9+4
 109 0012 9847     		blx	r3
 110              	.LVL2:
 111              	.L8:
  93:Generated_Source\PSoC4/testRunner.c ****     /* Reset count */
  94:Generated_Source\PSoC4/testRunner.c ****     testRunner_resetCount();
 112              		.loc 1 94 0 is_stmt 1
 113 0014 FFF7FEFF 		bl	testRunner_resetCount
 114              	.LVL3:
  95:Generated_Source\PSoC4/testRunner.c **** }
 115              		.loc 1 95 0
 116              		@ sp needed
 117 0018 10BD     		pop	{r4, pc}
 118              	.L10:
 119 001a C046     		.align	2
 120              	.L9:
 121 001c 00000000 		.word	.LANCHOR0
 122 0020 00000000 		.word	.LC3
 123              		.cfi_endproc
 124              	.LFE4:
 125              		.size	testRunner_printCount, .-testRunner_printCount
 126              		.section	.text.testRunner_printResults,"ax",%progbits
 127              		.align	2
 128              		.global	testRunner_printResults
 129              		.code	16
 130              		.thumb_func
 131              		.type	testRunner_printResults, %function
 132              	testRunner_printResults:
 133              	.LFB5:
ARM GAS  C:\Users\ccheney\AppData\Local\Temp\ccOzsMIM.s 			page 5


  96:Generated_Source\PSoC4/testRunner.c **** 
  97:Generated_Source\PSoC4/testRunner.c **** 
  98:Generated_Source\PSoC4/testRunner.c **** /*******************************************************************************
  99:Generated_Source\PSoC4/testRunner.c **** * Function Name: testRunner_printResults()
 100:Generated_Source\PSoC4/testRunner.c **** ****************************************************************************//**
 101:Generated_Source\PSoC4/testRunner.c **** * \brief
 102:Generated_Source\PSoC4/testRunner.c **** *  Displays the results of the test
 103:Generated_Source\PSoC4/testRunner.c **** *
 104:Generated_Source\PSoC4/testRunner.c **** * \param testName
 105:Generated_Source\PSoC4/testRunner.c **** *   Name of the test in question
 106:Generated_Source\PSoC4/testRunner.c **** *
 107:Generated_Source\PSoC4/testRunner.c **** * \param error
 108:Generated_Source\PSoC4/testRunner.c **** *   Actual value of error
 109:Generated_Source\PSoC4/testRunner.c **** *
 110:Generated_Source\PSoC4/testRunner.c **** * \param expectedResult, 
 111:Generated_Source\PSoC4/testRunner.c **** *   Expected value of the error
 112:Generated_Source\PSoC4/testRunner.c **** *
 113:Generated_Source\PSoC4/testRunner.c **** * \param optErr
 114:Generated_Source\PSoC4/testRunner.c **** *   An optional Error to display if the test failed for reasons other
 115:Generated_Source\PSoC4/testRunner.c **** *   than a non-zero error code
 116:Generated_Source\PSoC4/testRunner.c **** *
 117:Generated_Source\PSoC4/testRunner.c **** * \return
 118:Generated_Source\PSoC4/testRunner.c **** *   Whether of not the test passed
 119:Generated_Source\PSoC4/testRunner.c **** *******************************************************************************/
 120:Generated_Source\PSoC4/testRunner.c **** bool testRunner_printResults(char* testName, uint32_t error, uint32_t expectedResult, char* optErr)
 134              		.loc 1 120 0
 135              		.cfi_startproc
 136              		@ args = 0, pretend = 0, frame = 0
 137              		@ frame_needed = 0, uses_anonymous_args = 0
 138              	.LVL4:
 139 0000 70B5     		push	{r4, r5, r6, lr}
 140              		.cfi_def_cfa_offset 16
 141              		.cfi_offset 4, -16
 142              		.cfi_offset 5, -12
 143              		.cfi_offset 6, -8
 144              		.cfi_offset 14, -4
 145 0002 0D00     		movs	r5, r1
 146 0004 1400     		movs	r4, r2
 147 0006 1E00     		movs	r6, r3
 148              	.LVL5:
 121:Generated_Source\PSoC4/testRunner.c ****     bool result = false;
 122:Generated_Source\PSoC4/testRunner.c ****     /* Print results */
 123:Generated_Source\PSoC4/testRunner.c ****     testRunner_print(testName);
 149              		.loc 1 123 0
 150 0008 1D4B     		ldr	r3, .L22
 151              	.LVL6:
 152 000a 5B68     		ldr	r3, [r3, #4]
 153 000c 002B     		cmp	r3, #0
 154 000e 00D0     		beq	.L12
 155              		.loc 1 123 0 is_stmt 0 discriminator 1
 156 0010 9847     		blx	r3
 157              	.LVL7:
 158              	.L12:
 124:Generated_Source\PSoC4/testRunner.c ****     testRunner_print(": ");
 159              		.loc 1 124 0 is_stmt 1
 160 0012 1B4B     		ldr	r3, .L22
 161 0014 5B68     		ldr	r3, [r3, #4]
ARM GAS  C:\Users\ccheney\AppData\Local\Temp\ccOzsMIM.s 			page 6


 162 0016 002B     		cmp	r3, #0
 163 0018 01D0     		beq	.L13
 164              		.loc 1 124 0 is_stmt 0 discriminator 1
 165 001a 1A48     		ldr	r0, .L22+4
 166 001c 9847     		blx	r3
 167              	.LVL8:
 168              	.L13:
 125:Generated_Source\PSoC4/testRunner.c ****     if(error != expectedResult){
 169              		.loc 1 125 0 is_stmt 1
 170 001e A542     		cmp	r5, r4
 171 0020 09D0     		beq	.L14
 126:Generated_Source\PSoC4/testRunner.c ****         testRunner_print("Failed, Expected: 0x%x, Got: 0x%x\r\n", expectedResult, error);   
 172              		.loc 1 126 0
 173 0022 174B     		ldr	r3, .L22
 174 0024 5B68     		ldr	r3, [r3, #4]
 175 0026 002B     		cmp	r3, #0
 176 0028 24D0     		beq	.L19
 177              		.loc 1 126 0 is_stmt 0 discriminator 1
 178 002a 2A00     		movs	r2, r5
 179 002c 2100     		movs	r1, r4
 180 002e 1648     		ldr	r0, .L22+8
 181 0030 9847     		blx	r3
 182              	.LVL9:
 121:Generated_Source\PSoC4/testRunner.c ****     /* Print results */
 183              		.loc 1 121 0 is_stmt 1 discriminator 1
 184 0032 0020     		movs	r0, #0
 185 0034 23E0     		b	.L15
 186              	.L14:
 127:Generated_Source\PSoC4/testRunner.c ****     } else if(optErr[0] != ZERO){
 187              		.loc 1 127 0
 188 0036 3378     		ldrb	r3, [r6]
 189 0038 002B     		cmp	r3, #0
 190 003a 13D0     		beq	.L16
 128:Generated_Source\PSoC4/testRunner.c ****         testRunner_print("Failed: ");
 191              		.loc 1 128 0
 192 003c 104B     		ldr	r3, .L22
 193 003e 5B68     		ldr	r3, [r3, #4]
 194 0040 002B     		cmp	r3, #0
 195 0042 01D0     		beq	.L17
 196              		.loc 1 128 0 is_stmt 0 discriminator 1
 197 0044 1148     		ldr	r0, .L22+12
 198 0046 9847     		blx	r3
 199              	.LVL10:
 200              	.L17:
 129:Generated_Source\PSoC4/testRunner.c ****         testRunner_print(optErr);
 201              		.loc 1 129 0 is_stmt 1
 202 0048 0D4B     		ldr	r3, .L22
 203 004a 5B68     		ldr	r3, [r3, #4]
 204 004c 002B     		cmp	r3, #0
 205 004e 01D0     		beq	.L18
 206              		.loc 1 129 0 is_stmt 0 discriminator 1
 207 0050 3000     		movs	r0, r6
 208 0052 9847     		blx	r3
 209              	.LVL11:
 210              	.L18:
 130:Generated_Source\PSoC4/testRunner.c ****         testRunner_print("\r\n");
 211              		.loc 1 130 0 is_stmt 1
ARM GAS  C:\Users\ccheney\AppData\Local\Temp\ccOzsMIM.s 			page 7


 212 0054 0A4B     		ldr	r3, .L22
 213 0056 5B68     		ldr	r3, [r3, #4]
 214 0058 002B     		cmp	r3, #0
 215 005a 0DD0     		beq	.L20
 216              		.loc 1 130 0 is_stmt 0 discriminator 1
 217 005c 0C48     		ldr	r0, .L22+16
 218 005e 9847     		blx	r3
 219              	.LVL12:
 121:Generated_Source\PSoC4/testRunner.c ****     /* Print results */
 220              		.loc 1 121 0 is_stmt 1 discriminator 1
 221 0060 0020     		movs	r0, #0
 222 0062 0CE0     		b	.L15
 223              	.L16:
 131:Generated_Source\PSoC4/testRunner.c ****     } else {
 132:Generated_Source\PSoC4/testRunner.c ****         testRunner_print("Passed\r\n");   
 224              		.loc 1 132 0
 225 0064 064B     		ldr	r3, .L22
 226 0066 5B68     		ldr	r3, [r3, #4]
 227 0068 002B     		cmp	r3, #0
 228 006a 07D0     		beq	.L21
 229              		.loc 1 132 0 is_stmt 0 discriminator 1
 230 006c 0948     		ldr	r0, .L22+20
 231 006e 9847     		blx	r3
 232              	.LVL13:
 133:Generated_Source\PSoC4/testRunner.c ****         result = true;
 233              		.loc 1 133 0 is_stmt 1 discriminator 1
 234 0070 0120     		movs	r0, #1
 235 0072 04E0     		b	.L15
 236              	.L19:
 121:Generated_Source\PSoC4/testRunner.c ****     /* Print results */
 237              		.loc 1 121 0
 238 0074 0020     		movs	r0, #0
 239 0076 02E0     		b	.L15
 240              	.L20:
 241 0078 0020     		movs	r0, #0
 242 007a 00E0     		b	.L15
 243              	.L21:
 244              		.loc 1 133 0
 245 007c 0120     		movs	r0, #1
 246              	.L15:
 247              	.LVL14:
 134:Generated_Source\PSoC4/testRunner.c ****     }
 135:Generated_Source\PSoC4/testRunner.c ****     return result;
 136:Generated_Source\PSoC4/testRunner.c **** }
 248              		.loc 1 136 0
 249              		@ sp needed
 250              	.LVL15:
 251              	.LVL16:
 252              	.LVL17:
 253 007e 70BD     		pop	{r4, r5, r6, pc}
 254              	.L23:
 255              		.align	2
 256              	.L22:
 257 0080 00000000 		.word	.LANCHOR0
 258 0084 1C000000 		.word	.LC6
 259 0088 20000000 		.word	.LC8
 260 008c 44000000 		.word	.LC10
ARM GAS  C:\Users\ccheney\AppData\Local\Temp\ccOzsMIM.s 			page 8


 261 0090 50000000 		.word	.LC12
 262 0094 54000000 		.word	.LC14
 263              		.cfi_endproc
 264              	.LFE5:
 265              		.size	testRunner_printResults, .-testRunner_printResults
 266              		.section	.text.testRunner_setPrintFunction,"ax",%progbits
 267              		.align	2
 268              		.global	testRunner_setPrintFunction
 269              		.code	16
 270              		.thumb_func
 271              		.type	testRunner_setPrintFunction, %function
 272              	testRunner_setPrintFunction:
 273              	.LFB6:
 137:Generated_Source\PSoC4/testRunner.c **** 
 138:Generated_Source\PSoC4/testRunner.c **** 
 139:Generated_Source\PSoC4/testRunner.c **** /*******************************************************************************
 140:Generated_Source\PSoC4/testRunner.c **** * Function Name: testRunner_setPrintFunction()
 141:Generated_Source\PSoC4/testRunner.c **** ****************************************************************************//**
 142:Generated_Source\PSoC4/testRunner.c **** * \brief
 143:Generated_Source\PSoC4/testRunner.c **** *  Sets the function to use when printing the test results
 144:Generated_Source\PSoC4/testRunner.c **** *
 145:Generated_Source\PSoC4/testRunner.c **** * \param fn
 146:Generated_Source\PSoC4/testRunner.c **** *   Pointer to the function to use
 147:Generated_Source\PSoC4/testRunner.c **** *
 148:Generated_Source\PSoC4/testRunner.c **** * \return
 149:Generated_Source\PSoC4/testRunner.c **** *   None
 150:Generated_Source\PSoC4/testRunner.c **** *******************************************************************************/
 151:Generated_Source\PSoC4/testRunner.c **** void testRunner_setPrintFunction( void (*fn)(char *pszFmt, ...) ) {
 274              		.loc 1 151 0
 275              		.cfi_startproc
 276              		@ args = 0, pretend = 0, frame = 0
 277              		@ frame_needed = 0, uses_anonymous_args = 0
 278              		@ link register save eliminated.
 279              	.LVL18:
 152:Generated_Source\PSoC4/testRunner.c ****     printFunction = fn;
 280              		.loc 1 152 0
 281 0000 014B     		ldr	r3, .L25
 282 0002 5860     		str	r0, [r3, #4]
 153:Generated_Source\PSoC4/testRunner.c **** }
 283              		.loc 1 153 0
 284              		@ sp needed
 285 0004 7047     		bx	lr
 286              	.L26:
 287 0006 C046     		.align	2
 288              	.L25:
 289 0008 00000000 		.word	.LANCHOR0
 290              		.cfi_endproc
 291              	.LFE6:
 292              		.size	testRunner_setPrintFunction, .-testRunner_setPrintFunction
 293              		.global	printFunction
 294              		.section	.rodata.str1.4,"aMS",%progbits,1
 295              		.align	2
 296              	.LC3:
 297 0000 0D0A0A3E 		.ascii	"\015\012\012> Passed %d/%d tests\015\012\000"
 297      20506173 
 297      73656420 
 297      25642F25 
ARM GAS  C:\Users\ccheney\AppData\Local\Temp\ccOzsMIM.s 			page 9


 297      64207465 
 298 001a 0000     		.space	2
 299              	.LC6:
 300 001c 3A2000   		.ascii	": \000"
 301 001f 00       		.space	1
 302              	.LC8:
 303 0020 4661696C 		.ascii	"Failed, Expected: 0x%x, Got: 0x%x\015\012\000"
 303      65642C20 
 303      45787065 
 303      63746564 
 303      3A203078 
 304              	.LC10:
 305 0044 4661696C 		.ascii	"Failed: \000"
 305      65643A20 
 305      00
 306 004d 000000   		.space	3
 307              	.LC12:
 308 0050 0D0A00   		.ascii	"\015\012\000"
 309 0053 00       		.space	1
 310              	.LC14:
 311 0054 50617373 		.ascii	"Passed\015\012\000"
 311      65640D0A 
 311      00
 312              		.bss
 313              		.align	2
 314              		.set	.LANCHOR0,. + 0
 315              		.type	testCount, %object
 316              		.size	testCount, 2
 317              	testCount:
 318 0000 0000     		.space	2
 319              		.type	passCount, %object
 320              		.size	passCount, 2
 321              	passCount:
 322 0002 0000     		.space	2
 323              		.type	printFunction, %object
 324              		.size	printFunction, 4
 325              	printFunction:
 326 0004 00000000 		.space	4
 327              		.text
 328              	.Letext0:
 329              		.file 2 "c:\\program files (x86)\\cypress\\psoc creator\\4.2\\psoc creator\\import\\gnu\\arm\\5.4.
 330              		.file 3 "c:\\program files (x86)\\cypress\\psoc creator\\4.2\\psoc creator\\import\\gnu\\arm\\5.4.