ARM GAS  C:\Users\ccheney\AppData\Local\Temp\ccljfLF4.s 			page 1


   1              		.syntax unified
   2              		.cpu cortex-m0
   3              		.fpu softvfp
   4              		.eabi_attribute 20, 1
   5              		.eabi_attribute 21, 1
   6              		.eabi_attribute 23, 3
   7              		.eabi_attribute 24, 1
   8              		.eabi_attribute 25, 1
   9              		.eabi_attribute 26, 1
  10              		.eabi_attribute 30, 1
  11              		.eabi_attribute 34, 0
  12              		.eabi_attribute 18, 4
  13              		.thumb
  14              		.syntax unified
  15              		.file	"LEDS.c"
  16              		.text
  17              	.Ltext0:
  18              		.cfi_sections	.debug_frame
  19              		.section	.text.LEDS_Write,"ax",%progbits
  20              		.align	2
  21              		.global	LEDS_Write
  22              		.code	16
  23              		.thumb_func
  24              		.type	LEDS_Write, %function
  25              	LEDS_Write:
  26              	.LFB2:
  27              		.file 1 "Generated_Source\\PSoC4\\LEDS.c"
   1:Generated_Source\PSoC4/LEDS.c **** /***************************************************************************
   2:Generated_Source\PSoC4/LEDS.c **** *                                       MICA
   3:Generated_Source\PSoC4/LEDS.c **** * File: LED_RGB_pins.c
   4:Generated_Source\PSoC4/LEDS.c **** * Workspace: micaCompnents
   5:Generated_Source\PSoC4/LEDS.c **** * Project Name: libMica
   6:Generated_Source\PSoC4/LEDS.c **** * Version: v1.0
   7:Generated_Source\PSoC4/LEDS.c **** * Author: Craig Cheney
   8:Generated_Source\PSoC4/LEDS.c **** *
   9:Generated_Source\PSoC4/LEDS.c **** * Brief:
  10:Generated_Source\PSoC4/LEDS.c **** *   Block API for controlling an RGB LED
  11:Generated_Source\PSoC4/LEDS.c **** * 
  12:Generated_Source\PSoC4/LEDS.c **** * Authors:
  13:Generated_Source\PSoC4/LEDS.c **** *   Craig Cheney
  14:Generated_Source\PSoC4/LEDS.c **** *
  15:Generated_Source\PSoC4/LEDS.c **** * Change Log:
  16:Generated_Source\PSoC4/LEDS.c **** *   2018.02.28 CC - Document created
  17:Generated_Source\PSoC4/LEDS.c **** ********************************************************************************/
  18:Generated_Source\PSoC4/LEDS.c **** #include "LEDS.h"
  19:Generated_Source\PSoC4/LEDS.c **** #include "LEDS_Control_reg.h"
  20:Generated_Source\PSoC4/LEDS.c **** #include "CyLib.h"
  21:Generated_Source\PSoC4/LEDS.c **** #include "micaCommon.h"
  22:Generated_Source\PSoC4/LEDS.c **** 
  23:Generated_Source\PSoC4/LEDS.c **** /* Set bit at position 'bitShift' to 'val' */
  24:Generated_Source\PSoC4/LEDS.c **** #define SET_BIT_STATE(reg, bitShift, val) (reg = (reg & ~(1u << bitShift)) | (!!val << bitShift))
  25:Generated_Source\PSoC4/LEDS.c **** 
  26:Generated_Source\PSoC4/LEDS.c **** #define LEDS_ON_VAL             (LEDS_ACTIVE_VAL)
  27:Generated_Source\PSoC4/LEDS.c **** #define LEDS_OFF_VAL            (!LEDS_ACTIVE_VAL)
  28:Generated_Source\PSoC4/LEDS.c **** 
  29:Generated_Source\PSoC4/LEDS.c **** /*******************************************************************************
  30:Generated_Source\PSoC4/LEDS.c **** * Function Name: LEDS_Write()
ARM GAS  C:\Users\ccheney\AppData\Local\Temp\ccljfLF4.s 			page 2


  31:Generated_Source\PSoC4/LEDS.c **** ********************************************************************************
  32:Generated_Source\PSoC4/LEDS.c **** * Summary:
  33:Generated_Source\PSoC4/LEDS.c **** *   Sets the state of the LED control register
  34:Generated_Source\PSoC4/LEDS.c **** *
  35:Generated_Source\PSoC4/LEDS.c **** * Parameters:
  36:Generated_Source\PSoC4/LEDS.c **** *   uint8 State - The new state mask to write to the control register.
  37:Generated_Source\PSoC4/LEDS.c **** *
  38:Generated_Source\PSoC4/LEDS.c **** * Return:
  39:Generated_Source\PSoC4/LEDS.c **** *   uint8: Value of the control register after it was written. 
  40:Generated_Source\PSoC4/LEDS.c **** *
  41:Generated_Source\PSoC4/LEDS.c **** *******************************************************************************/
  42:Generated_Source\PSoC4/LEDS.c **** uint8 LEDS_Write(uint8 state) {
  28              		.loc 1 42 0
  29              		.cfi_startproc
  30              		@ args = 0, pretend = 0, frame = 0
  31              		@ frame_needed = 0, uses_anonymous_args = 0
  32              	.LVL0:
  33 0000 10B5     		push	{r4, lr}
  34              		.cfi_def_cfa_offset 8
  35              		.cfi_offset 4, -8
  36              		.cfi_offset 14, -4
  43:Generated_Source\PSoC4/LEDS.c ****     /* Set the State accounting for active mod */
  44:Generated_Source\PSoC4/LEDS.c ****     LEDS_Control_reg_Write( (LEDS_ACTIVE_VAL ? state : ~state) & LEDS_CTRL_MASK );
  37              		.loc 1 44 0
  38 0002 0723     		movs	r3, #7
  39 0004 8343     		bics	r3, r0
  40 0006 1800     		movs	r0, r3
  41              	.LVL1:
  42 0008 FFF7FEFF 		bl	LEDS_Control_reg_Write
  43              	.LVL2:
  45:Generated_Source\PSoC4/LEDS.c ****     /* Return the value */
  46:Generated_Source\PSoC4/LEDS.c ****     return LEDS_Control_reg_Read();
  44              		.loc 1 46 0
  45 000c FFF7FEFF 		bl	LEDS_Control_reg_Read
  46              	.LVL3:
  47:Generated_Source\PSoC4/LEDS.c **** }
  47              		.loc 1 47 0
  48              		@ sp needed
  49 0010 10BD     		pop	{r4, pc}
  50              		.cfi_endproc
  51              	.LFE2:
  52              		.size	LEDS_Write, .-LEDS_Write
  53 0012 C046     		.section	.text.LEDS_R_Write,"ax",%progbits
  54              		.align	2
  55              		.global	LEDS_R_Write
  56              		.code	16
  57              		.thumb_func
  58              		.type	LEDS_R_Write, %function
  59              	LEDS_R_Write:
  60              	.LFB3:
  48:Generated_Source\PSoC4/LEDS.c **** 
  49:Generated_Source\PSoC4/LEDS.c **** /*******************************************************************************
  50:Generated_Source\PSoC4/LEDS.c **** * Function Name: LEDS_R_Write()
  51:Generated_Source\PSoC4/LEDS.c **** ********************************************************************************
  52:Generated_Source\PSoC4/LEDS.c **** * Summary:
  53:Generated_Source\PSoC4/LEDS.c **** *   Sets the state of the Red LED to the state passed in, Regardless of the 
  54:Generated_Source\PSoC4/LEDS.c **** *   polarity of the LEDs. I.E. LEDS_R_Write(true) will always
ARM GAS  C:\Users\ccheney\AppData\Local\Temp\ccljfLF4.s 			page 3


  55:Generated_Source\PSoC4/LEDS.c **** *   turn on the LED. 
  56:Generated_Source\PSoC4/LEDS.c **** *
  57:Generated_Source\PSoC4/LEDS.c **** * Parameters:
  58:Generated_Source\PSoC4/LEDS.c **** *   bool State - The new state to write.
  59:Generated_Source\PSoC4/LEDS.c **** *
  60:Generated_Source\PSoC4/LEDS.c **** * Return:
  61:Generated_Source\PSoC4/LEDS.c **** *   The value stored in the control register
  62:Generated_Source\PSoC4/LEDS.c **** *
  63:Generated_Source\PSoC4/LEDS.c **** *******************************************************************************/
  64:Generated_Source\PSoC4/LEDS.c **** uint8 LEDS_R_Write(bool state) {
  61              		.loc 1 64 0
  62              		.cfi_startproc
  63              		@ args = 0, pretend = 0, frame = 0
  64              		@ frame_needed = 0, uses_anonymous_args = 0
  65              	.LVL4:
  66 0000 70B5     		push	{r4, r5, r6, lr}
  67              		.cfi_def_cfa_offset 16
  68              		.cfi_offset 4, -16
  69              		.cfi_offset 5, -12
  70              		.cfi_offset 6, -8
  71              		.cfi_offset 14, -4
  72 0002 0500     		movs	r5, r0
  65:Generated_Source\PSoC4/LEDS.c ****     /* Read the Current state */
  66:Generated_Source\PSoC4/LEDS.c ****     uint8 reg = LEDS_Control_reg_Read();
  73              		.loc 1 66 0
  74 0004 FFF7FEFF 		bl	LEDS_Control_reg_Read
  75              	.LVL5:
  67:Generated_Source\PSoC4/LEDS.c ****     /* Set the bit to the new state */
  68:Generated_Source\PSoC4/LEDS.c ****     SET_BIT_STATE(reg, LEDS_R_PIN_SHIFT, state ? LEDS_ON_VAL: LEDS_OFF_VAL);
  76              		.loc 1 68 0
  77 0008 0123     		movs	r3, #1
  78 000a 9843     		bics	r0, r3
  79              	.LVL6:
  80 000c C4B2     		uxtb	r4, r0
  81 000e 0120     		movs	r0, #1
  82 0010 6840     		eors	r0, r5
  83 0012 0443     		orrs	r4, r0
  84 0014 E4B2     		uxtb	r4, r4
  85              	.LVL7:
  69:Generated_Source\PSoC4/LEDS.c ****     /* Write the bits */
  70:Generated_Source\PSoC4/LEDS.c ****     LEDS_Control_reg_Write(reg);
  86              		.loc 1 70 0
  87 0016 2000     		movs	r0, r4
  88 0018 FFF7FEFF 		bl	LEDS_Control_reg_Write
  89              	.LVL8:
  71:Generated_Source\PSoC4/LEDS.c ****     /* Return the current state */
  72:Generated_Source\PSoC4/LEDS.c ****     return reg;
  73:Generated_Source\PSoC4/LEDS.c **** }
  90              		.loc 1 73 0
  91 001c 2000     		movs	r0, r4
  92              		@ sp needed
  93              	.LVL9:
  94 001e 70BD     		pop	{r4, r5, r6, pc}
  95              		.cfi_endproc
  96              	.LFE3:
  97              		.size	LEDS_R_Write, .-LEDS_R_Write
  98              		.section	.text.LEDS_G_Write,"ax",%progbits
ARM GAS  C:\Users\ccheney\AppData\Local\Temp\ccljfLF4.s 			page 4


  99              		.align	2
 100              		.global	LEDS_G_Write
 101              		.code	16
 102              		.thumb_func
 103              		.type	LEDS_G_Write, %function
 104              	LEDS_G_Write:
 105              	.LFB4:
  74:Generated_Source\PSoC4/LEDS.c **** 
  75:Generated_Source\PSoC4/LEDS.c **** /*******************************************************************************
  76:Generated_Source\PSoC4/LEDS.c **** * Function Name: LEDS_G_Write()
  77:Generated_Source\PSoC4/LEDS.c **** ********************************************************************************
  78:Generated_Source\PSoC4/LEDS.c **** * Summary:
  79:Generated_Source\PSoC4/LEDS.c **** *   Sets the state of the Red LED to the state passed in, Regardless of the 
  80:Generated_Source\PSoC4/LEDS.c **** *   polarity of the LEDs. I.E. LEDS_G_Write(true) will always
  81:Generated_Source\PSoC4/LEDS.c **** *   turn on the LED. 
  82:Generated_Source\PSoC4/LEDS.c **** *
  83:Generated_Source\PSoC4/LEDS.c **** * Parameters:
  84:Generated_Source\PSoC4/LEDS.c **** *   bool State - The new state to write.
  85:Generated_Source\PSoC4/LEDS.c **** *
  86:Generated_Source\PSoC4/LEDS.c **** * Return:
  87:Generated_Source\PSoC4/LEDS.c **** *   The value stored in the control register
  88:Generated_Source\PSoC4/LEDS.c **** *
  89:Generated_Source\PSoC4/LEDS.c **** *******************************************************************************/
  90:Generated_Source\PSoC4/LEDS.c **** uint8 LEDS_G_Write(bool state) {
 106              		.loc 1 90 0
 107              		.cfi_startproc
 108              		@ args = 0, pretend = 0, frame = 0
 109              		@ frame_needed = 0, uses_anonymous_args = 0
 110              	.LVL10:
 111 0000 10B5     		push	{r4, lr}
 112              		.cfi_def_cfa_offset 8
 113              		.cfi_offset 4, -8
 114              		.cfi_offset 14, -4
 115 0002 0400     		movs	r4, r0
  91:Generated_Source\PSoC4/LEDS.c ****     /* Read the Current state */
  92:Generated_Source\PSoC4/LEDS.c ****     uint8 reg = LEDS_Control_reg_Read();
 116              		.loc 1 92 0
 117 0004 FFF7FEFF 		bl	LEDS_Control_reg_Read
 118              	.LVL11:
  93:Generated_Source\PSoC4/LEDS.c ****     /* Set the bit to the new state */
  94:Generated_Source\PSoC4/LEDS.c ****     SET_BIT_STATE(reg, LEDS_G_PIN_SHIFT, state ? LEDS_ON_VAL: LEDS_OFF_VAL);
 119              		.loc 1 94 0
 120 0008 0223     		movs	r3, #2
 121 000a 9843     		bics	r0, r3
 122              	.LVL12:
 123 000c C0B2     		uxtb	r0, r0
 124 000e 002C     		cmp	r4, #0
 125 0010 01D0     		beq	.L5
 126 0012 0024     		movs	r4, #0
 127 0014 00E0     		b	.L4
 128              	.L5:
 129 0016 0224     		movs	r4, #2
 130              	.L4:
 131              		.loc 1 94 0 is_stmt 0 discriminator 4
 132 0018 0443     		orrs	r4, r0
 133              	.LVL13:
  95:Generated_Source\PSoC4/LEDS.c ****     /* Write the bits */
ARM GAS  C:\Users\ccheney\AppData\Local\Temp\ccljfLF4.s 			page 5


  96:Generated_Source\PSoC4/LEDS.c ****     LEDS_Control_reg_Write(reg);
 134              		.loc 1 96 0 is_stmt 1 discriminator 4
 135 001a 2000     		movs	r0, r4
 136 001c FFF7FEFF 		bl	LEDS_Control_reg_Write
 137              	.LVL14:
  97:Generated_Source\PSoC4/LEDS.c ****     /* Return the current state */
  98:Generated_Source\PSoC4/LEDS.c ****     return reg;
  99:Generated_Source\PSoC4/LEDS.c **** }
 138              		.loc 1 99 0 discriminator 4
 139 0020 2000     		movs	r0, r4
 140              		@ sp needed
 141              	.LVL15:
 142 0022 10BD     		pop	{r4, pc}
 143              		.cfi_endproc
 144              	.LFE4:
 145              		.size	LEDS_G_Write, .-LEDS_G_Write
 146              		.section	.text.LEDS_B_Write,"ax",%progbits
 147              		.align	2
 148              		.global	LEDS_B_Write
 149              		.code	16
 150              		.thumb_func
 151              		.type	LEDS_B_Write, %function
 152              	LEDS_B_Write:
 153              	.LFB5:
 100:Generated_Source\PSoC4/LEDS.c **** 
 101:Generated_Source\PSoC4/LEDS.c **** /*******************************************************************************
 102:Generated_Source\PSoC4/LEDS.c **** * Function Name: LEDS_B_Write()
 103:Generated_Source\PSoC4/LEDS.c **** ********************************************************************************
 104:Generated_Source\PSoC4/LEDS.c **** * Summary:
 105:Generated_Source\PSoC4/LEDS.c **** *   Sets the state of the Red LED to the state passed in, Regardless of the 
 106:Generated_Source\PSoC4/LEDS.c **** *   polarity of the LEDs. I.E. LEDS_B_Write(true) will always
 107:Generated_Source\PSoC4/LEDS.c **** *   turn on the LED. 
 108:Generated_Source\PSoC4/LEDS.c **** *
 109:Generated_Source\PSoC4/LEDS.c **** * Parameters:
 110:Generated_Source\PSoC4/LEDS.c **** *   bool State - The new state to write.
 111:Generated_Source\PSoC4/LEDS.c **** *
 112:Generated_Source\PSoC4/LEDS.c **** * Return:
 113:Generated_Source\PSoC4/LEDS.c **** *   The value stored in the control register
 114:Generated_Source\PSoC4/LEDS.c **** *
 115:Generated_Source\PSoC4/LEDS.c **** *******************************************************************************/
 116:Generated_Source\PSoC4/LEDS.c **** uint8 LEDS_B_Write(bool state) {
 154              		.loc 1 116 0
 155              		.cfi_startproc
 156              		@ args = 0, pretend = 0, frame = 0
 157              		@ frame_needed = 0, uses_anonymous_args = 0
 158              	.LVL16:
 159 0000 10B5     		push	{r4, lr}
 160              		.cfi_def_cfa_offset 8
 161              		.cfi_offset 4, -8
 162              		.cfi_offset 14, -4
 163 0002 0400     		movs	r4, r0
 117:Generated_Source\PSoC4/LEDS.c ****     /* Read the Current state */
 118:Generated_Source\PSoC4/LEDS.c ****     uint8 reg = LEDS_Control_reg_Read();
 164              		.loc 1 118 0
 165 0004 FFF7FEFF 		bl	LEDS_Control_reg_Read
 166              	.LVL17:
 119:Generated_Source\PSoC4/LEDS.c ****     /* Set the bit to the new state */
ARM GAS  C:\Users\ccheney\AppData\Local\Temp\ccljfLF4.s 			page 6


 120:Generated_Source\PSoC4/LEDS.c ****     SET_BIT_STATE(reg, LEDS_B_PIN_SHIFT, state ? LEDS_ACTIVE_VAL : !LEDS_ACTIVE_VAL);
 167              		.loc 1 120 0
 168 0008 0423     		movs	r3, #4
 169 000a 9843     		bics	r0, r3
 170              	.LVL18:
 171 000c C0B2     		uxtb	r0, r0
 172 000e 002C     		cmp	r4, #0
 173 0010 01D0     		beq	.L8
 174 0012 0024     		movs	r4, #0
 175 0014 00E0     		b	.L7
 176              	.L8:
 177 0016 0424     		movs	r4, #4
 178              	.L7:
 179              		.loc 1 120 0 is_stmt 0 discriminator 4
 180 0018 0443     		orrs	r4, r0
 181              	.LVL19:
 121:Generated_Source\PSoC4/LEDS.c ****     /* Write the bits */
 122:Generated_Source\PSoC4/LEDS.c ****     LEDS_Control_reg_Write(reg);
 182              		.loc 1 122 0 is_stmt 1 discriminator 4
 183 001a 2000     		movs	r0, r4
 184 001c FFF7FEFF 		bl	LEDS_Control_reg_Write
 185              	.LVL20:
 123:Generated_Source\PSoC4/LEDS.c ****     /* Return the current state */
 124:Generated_Source\PSoC4/LEDS.c ****     return reg;
 125:Generated_Source\PSoC4/LEDS.c **** }
 186              		.loc 1 125 0 discriminator 4
 187 0020 2000     		movs	r0, r4
 188              		@ sp needed
 189              	.LVL21:
 190 0022 10BD     		pop	{r4, pc}
 191              		.cfi_endproc
 192              	.LFE5:
 193              		.size	LEDS_B_Write, .-LEDS_B_Write
 194              		.section	.text.LEDS_Read,"ax",%progbits
 195              		.align	2
 196              		.global	LEDS_Read
 197              		.code	16
 198              		.thumb_func
 199              		.type	LEDS_Read, %function
 200              	LEDS_Read:
 201              	.LFB6:
 126:Generated_Source\PSoC4/LEDS.c **** 
 127:Generated_Source\PSoC4/LEDS.c **** /*******************************************************************************
 128:Generated_Source\PSoC4/LEDS.c **** * Function Name: LEDS_Read()
 129:Generated_Source\PSoC4/LEDS.c **** ********************************************************************************
 130:Generated_Source\PSoC4/LEDS.c **** * Summary:
 131:Generated_Source\PSoC4/LEDS.c **** *   Returns the current value of the LED control register
 132:Generated_Source\PSoC4/LEDS.c **** *
 133:Generated_Source\PSoC4/LEDS.c **** * Parameters:
 134:Generated_Source\PSoC4/LEDS.c **** *   None
 135:Generated_Source\PSoC4/LEDS.c **** *
 136:Generated_Source\PSoC4/LEDS.c **** * Return:
 137:Generated_Source\PSoC4/LEDS.c **** *   uint8: Value held in the LED control register
 138:Generated_Source\PSoC4/LEDS.c **** *
 139:Generated_Source\PSoC4/LEDS.c **** *******************************************************************************/
 140:Generated_Source\PSoC4/LEDS.c **** uint8 LEDS_Read(void){
 202              		.loc 1 140 0
ARM GAS  C:\Users\ccheney\AppData\Local\Temp\ccljfLF4.s 			page 7


 203              		.cfi_startproc
 204              		@ args = 0, pretend = 0, frame = 0
 205              		@ frame_needed = 0, uses_anonymous_args = 0
 206 0000 10B5     		push	{r4, lr}
 207              		.cfi_def_cfa_offset 8
 208              		.cfi_offset 4, -8
 209              		.cfi_offset 14, -4
 141:Generated_Source\PSoC4/LEDS.c ****     return LEDS_Control_reg_Read() & LEDS_CTRL_MASK;
 210              		.loc 1 141 0
 211 0002 FFF7FEFF 		bl	LEDS_Control_reg_Read
 212              	.LVL22:
 213 0006 0723     		movs	r3, #7
 214 0008 1840     		ands	r0, r3
 142:Generated_Source\PSoC4/LEDS.c **** }
 215              		.loc 1 142 0
 216              		@ sp needed
 217 000a 10BD     		pop	{r4, pc}
 218              		.cfi_endproc
 219              	.LFE6:
 220              		.size	LEDS_Read, .-LEDS_Read
 221              		.section	.text.LEDS_R_Read,"ax",%progbits
 222              		.align	2
 223              		.global	LEDS_R_Read
 224              		.code	16
 225              		.thumb_func
 226              		.type	LEDS_R_Read, %function
 227              	LEDS_R_Read:
 228              	.LFB7:
 143:Generated_Source\PSoC4/LEDS.c **** 
 144:Generated_Source\PSoC4/LEDS.c **** /*******************************************************************************
 145:Generated_Source\PSoC4/LEDS.c **** * Function Name: LEDS_R_Read()
 146:Generated_Source\PSoC4/LEDS.c **** ********************************************************************************
 147:Generated_Source\PSoC4/LEDS.c **** * Summary:
 148:Generated_Source\PSoC4/LEDS.c **** *   Return the current state of the Red LED
 149:Generated_Source\PSoC4/LEDS.c **** *
 150:Generated_Source\PSoC4/LEDS.c **** * Parameters:
 151:Generated_Source\PSoC4/LEDS.c **** *   None
 152:Generated_Source\PSoC4/LEDS.c **** *
 153:Generated_Source\PSoC4/LEDS.c **** * Return:
 154:Generated_Source\PSoC4/LEDS.c **** *   State of the Red LED. True if on, False if off, regardless of LED polarity
 155:Generated_Source\PSoC4/LEDS.c **** *
 156:Generated_Source\PSoC4/LEDS.c **** *******************************************************************************/
 157:Generated_Source\PSoC4/LEDS.c **** bool LEDS_R_Read(void) {
 229              		.loc 1 157 0
 230              		.cfi_startproc
 231              		@ args = 0, pretend = 0, frame = 0
 232              		@ frame_needed = 0, uses_anonymous_args = 0
 233 0000 10B5     		push	{r4, lr}
 234              		.cfi_def_cfa_offset 8
 235              		.cfi_offset 4, -8
 236              		.cfi_offset 14, -4
 158:Generated_Source\PSoC4/LEDS.c ****     /* Read the Current state */
 159:Generated_Source\PSoC4/LEDS.c ****     uint8 val = LEDS_Control_reg_Read();
 237              		.loc 1 159 0
 238 0002 FFF7FEFF 		bl	LEDS_Control_reg_Read
 239              	.LVL23:
 160:Generated_Source\PSoC4/LEDS.c ****     /* Mask with the bit value */
ARM GAS  C:\Users\ccheney\AppData\Local\Temp\ccljfLF4.s 			page 8


 161:Generated_Source\PSoC4/LEDS.c ****     val &= LEDS_ON_RED;
 240              		.loc 1 161 0
 241 0006 0123     		movs	r3, #1
 242 0008 1840     		ands	r0, r3
 243              	.LVL24:
 162:Generated_Source\PSoC4/LEDS.c ****     /* Take into effect the polarity */
 163:Generated_Source\PSoC4/LEDS.c ****     return (LEDS_ACTIVE_VAL ? (val) : !val);
 244              		.loc 1 163 0
 245 000a 4342     		rsbs	r3, r0, #0
 246 000c 5841     		adcs	r0, r0, r3
 247              	.LVL25:
 248 000e C0B2     		uxtb	r0, r0
 164:Generated_Source\PSoC4/LEDS.c **** }
 249              		.loc 1 164 0
 250              		@ sp needed
 251 0010 10BD     		pop	{r4, pc}
 252              		.cfi_endproc
 253              	.LFE7:
 254              		.size	LEDS_R_Read, .-LEDS_R_Read
 255 0012 C046     		.section	.text.LEDS_G_Read,"ax",%progbits
 256              		.align	2
 257              		.global	LEDS_G_Read
 258              		.code	16
 259              		.thumb_func
 260              		.type	LEDS_G_Read, %function
 261              	LEDS_G_Read:
 262              	.LFB8:
 165:Generated_Source\PSoC4/LEDS.c **** 
 166:Generated_Source\PSoC4/LEDS.c **** /*******************************************************************************
 167:Generated_Source\PSoC4/LEDS.c **** * Function Name: LEDS_G_Read()
 168:Generated_Source\PSoC4/LEDS.c **** ********************************************************************************
 169:Generated_Source\PSoC4/LEDS.c **** * Summary:
 170:Generated_Source\PSoC4/LEDS.c **** *   Return the current state of the Green LED
 171:Generated_Source\PSoC4/LEDS.c **** *
 172:Generated_Source\PSoC4/LEDS.c **** * Parameters:
 173:Generated_Source\PSoC4/LEDS.c **** *   None
 174:Generated_Source\PSoC4/LEDS.c **** *
 175:Generated_Source\PSoC4/LEDS.c **** * Return:
 176:Generated_Source\PSoC4/LEDS.c **** *   State of the Green LED. True if on, False if off, regardless of LED polarity
 177:Generated_Source\PSoC4/LEDS.c **** *
 178:Generated_Source\PSoC4/LEDS.c **** *******************************************************************************/
 179:Generated_Source\PSoC4/LEDS.c **** bool LEDS_G_Read(void) {
 263              		.loc 1 179 0
 264              		.cfi_startproc
 265              		@ args = 0, pretend = 0, frame = 0
 266              		@ frame_needed = 0, uses_anonymous_args = 0
 267 0000 10B5     		push	{r4, lr}
 268              		.cfi_def_cfa_offset 8
 269              		.cfi_offset 4, -8
 270              		.cfi_offset 14, -4
 180:Generated_Source\PSoC4/LEDS.c ****     /* Read the Current state */
 181:Generated_Source\PSoC4/LEDS.c ****     uint8 val = LEDS_Control_reg_Read();
 271              		.loc 1 181 0
 272 0002 FFF7FEFF 		bl	LEDS_Control_reg_Read
 273              	.LVL26:
 182:Generated_Source\PSoC4/LEDS.c ****     /* Mask with the bit value */
 183:Generated_Source\PSoC4/LEDS.c ****     val &= LEDS_ON_GREEN;
ARM GAS  C:\Users\ccheney\AppData\Local\Temp\ccljfLF4.s 			page 9


 274              		.loc 1 183 0
 275 0006 0223     		movs	r3, #2
 276 0008 1840     		ands	r0, r3
 277              	.LVL27:
 184:Generated_Source\PSoC4/LEDS.c ****     /* Take into effect the polarity */
 185:Generated_Source\PSoC4/LEDS.c ****     return (LEDS_ACTIVE_VAL ? (val) : !val);
 278              		.loc 1 185 0
 279 000a 4342     		rsbs	r3, r0, #0
 280 000c 5841     		adcs	r0, r0, r3
 281              	.LVL28:
 282 000e C0B2     		uxtb	r0, r0
 186:Generated_Source\PSoC4/LEDS.c **** }
 283              		.loc 1 186 0
 284              		@ sp needed
 285 0010 10BD     		pop	{r4, pc}
 286              		.cfi_endproc
 287              	.LFE8:
 288              		.size	LEDS_G_Read, .-LEDS_G_Read
 289 0012 C046     		.section	.text.LEDS_B_Read,"ax",%progbits
 290              		.align	2
 291              		.global	LEDS_B_Read
 292              		.code	16
 293              		.thumb_func
 294              		.type	LEDS_B_Read, %function
 295              	LEDS_B_Read:
 296              	.LFB9:
 187:Generated_Source\PSoC4/LEDS.c **** 
 188:Generated_Source\PSoC4/LEDS.c **** /*******************************************************************************
 189:Generated_Source\PSoC4/LEDS.c **** * Function Name: LEDS_B_Read()
 190:Generated_Source\PSoC4/LEDS.c **** ********************************************************************************
 191:Generated_Source\PSoC4/LEDS.c **** * Summary:
 192:Generated_Source\PSoC4/LEDS.c **** *   Return the current state of the Blue LED
 193:Generated_Source\PSoC4/LEDS.c **** *
 194:Generated_Source\PSoC4/LEDS.c **** * Parameters:
 195:Generated_Source\PSoC4/LEDS.c **** *   None
 196:Generated_Source\PSoC4/LEDS.c **** *
 197:Generated_Source\PSoC4/LEDS.c **** * Return:
 198:Generated_Source\PSoC4/LEDS.c **** *   State of the Blue LED. True if on, False if off, regardless of LED polarity
 199:Generated_Source\PSoC4/LEDS.c **** *
 200:Generated_Source\PSoC4/LEDS.c **** *******************************************************************************/
 201:Generated_Source\PSoC4/LEDS.c **** bool LEDS_B_Read(void) {
 297              		.loc 1 201 0
 298              		.cfi_startproc
 299              		@ args = 0, pretend = 0, frame = 0
 300              		@ frame_needed = 0, uses_anonymous_args = 0
 301 0000 10B5     		push	{r4, lr}
 302              		.cfi_def_cfa_offset 8
 303              		.cfi_offset 4, -8
 304              		.cfi_offset 14, -4
 202:Generated_Source\PSoC4/LEDS.c ****     /* Read the Current state */
 203:Generated_Source\PSoC4/LEDS.c ****     uint8 val = LEDS_Control_reg_Read();
 305              		.loc 1 203 0
 306 0002 FFF7FEFF 		bl	LEDS_Control_reg_Read
 307              	.LVL29:
 204:Generated_Source\PSoC4/LEDS.c ****     /* Mask with the bit value */
 205:Generated_Source\PSoC4/LEDS.c ****     val &= LEDS_ON_BLUE;
 308              		.loc 1 205 0
ARM GAS  C:\Users\ccheney\AppData\Local\Temp\ccljfLF4.s 			page 10


 309 0006 0423     		movs	r3, #4
 310 0008 1840     		ands	r0, r3
 311              	.LVL30:
 206:Generated_Source\PSoC4/LEDS.c ****     /* Take into effect the polarity */
 207:Generated_Source\PSoC4/LEDS.c ****     return (LEDS_ACTIVE_VAL ? (val) : !val);
 312              		.loc 1 207 0
 313 000a 4342     		rsbs	r3, r0, #0
 314 000c 5841     		adcs	r0, r0, r3
 315              	.LVL31:
 316 000e C0B2     		uxtb	r0, r0
 208:Generated_Source\PSoC4/LEDS.c **** }
 317              		.loc 1 208 0
 318              		@ sp needed
 319 0010 10BD     		pop	{r4, pc}
 320              		.cfi_endproc
 321              	.LFE9:
 322              		.size	LEDS_B_Read, .-LEDS_B_Read
 323 0012 C046     		.section	.text.LEDS_Sleep,"ax",%progbits
 324              		.align	2
 325              		.global	LEDS_Sleep
 326              		.code	16
 327              		.thumb_func
 328              		.type	LEDS_Sleep, %function
 329              	LEDS_Sleep:
 330              	.LFB10:
 209:Generated_Source\PSoC4/LEDS.c **** 
 210:Generated_Source\PSoC4/LEDS.c **** 
 211:Generated_Source\PSoC4/LEDS.c **** /*******************************************************************************
 212:Generated_Source\PSoC4/LEDS.c **** * Function Name: LEDS_Sleep()
 213:Generated_Source\PSoC4/LEDS.c **** ********************************************************************************
 214:Generated_Source\PSoC4/LEDS.c **** * Summary:
 215:Generated_Source\PSoC4/LEDS.c **** *   Prepares the component for sleep. Sleeps the control Register.
 216:Generated_Source\PSoC4/LEDS.c **** *
 217:Generated_Source\PSoC4/LEDS.c **** * Parameters:
 218:Generated_Source\PSoC4/LEDS.c **** *   None
 219:Generated_Source\PSoC4/LEDS.c **** *
 220:Generated_Source\PSoC4/LEDS.c **** * Return:
 221:Generated_Source\PSoC4/LEDS.c **** *   None
 222:Generated_Source\PSoC4/LEDS.c **** *
 223:Generated_Source\PSoC4/LEDS.c **** *******************************************************************************/
 224:Generated_Source\PSoC4/LEDS.c **** void LEDS_Sleep(void) {
 331              		.loc 1 224 0
 332              		.cfi_startproc
 333              		@ args = 0, pretend = 0, frame = 0
 334              		@ frame_needed = 0, uses_anonymous_args = 0
 335 0000 10B5     		push	{r4, lr}
 336              		.cfi_def_cfa_offset 8
 337              		.cfi_offset 4, -8
 338              		.cfi_offset 14, -4
 225:Generated_Source\PSoC4/LEDS.c ****     /* Sleep Control reg */
 226:Generated_Source\PSoC4/LEDS.c ****     LEDS_Control_reg_Sleep();
 339              		.loc 1 226 0
 340 0002 FFF7FEFF 		bl	LEDS_Control_reg_Sleep
 341              	.LVL32:
 227:Generated_Source\PSoC4/LEDS.c **** }
 342              		.loc 1 227 0
 343              		@ sp needed
ARM GAS  C:\Users\ccheney\AppData\Local\Temp\ccljfLF4.s 			page 11


 344 0006 10BD     		pop	{r4, pc}
 345              		.cfi_endproc
 346              	.LFE10:
 347              		.size	LEDS_Sleep, .-LEDS_Sleep
 348              		.section	.text.LEDS_Wakeup,"ax",%progbits
 349              		.align	2
 350              		.global	LEDS_Wakeup
 351              		.code	16
 352              		.thumb_func
 353              		.type	LEDS_Wakeup, %function
 354              	LEDS_Wakeup:
 355              	.LFB11:
 228:Generated_Source\PSoC4/LEDS.c **** 
 229:Generated_Source\PSoC4/LEDS.c **** /*******************************************************************************
 230:Generated_Source\PSoC4/LEDS.c **** * Function Name: LEDS_Wakeup()
 231:Generated_Source\PSoC4/LEDS.c **** ********************************************************************************
 232:Generated_Source\PSoC4/LEDS.c **** * Summary:
 233:Generated_Source\PSoC4/LEDS.c **** *   Wakes up the component from sleep. Wakes the control Register.
 234:Generated_Source\PSoC4/LEDS.c **** *
 235:Generated_Source\PSoC4/LEDS.c **** * Parameters:
 236:Generated_Source\PSoC4/LEDS.c **** *   None
 237:Generated_Source\PSoC4/LEDS.c **** *
 238:Generated_Source\PSoC4/LEDS.c **** * Return:
 239:Generated_Source\PSoC4/LEDS.c **** *   None
 240:Generated_Source\PSoC4/LEDS.c **** *
 241:Generated_Source\PSoC4/LEDS.c **** *******************************************************************************/
 242:Generated_Source\PSoC4/LEDS.c **** void LEDS_Wakeup(void) {
 356              		.loc 1 242 0
 357              		.cfi_startproc
 358              		@ args = 0, pretend = 0, frame = 0
 359              		@ frame_needed = 0, uses_anonymous_args = 0
 360 0000 10B5     		push	{r4, lr}
 361              		.cfi_def_cfa_offset 8
 362              		.cfi_offset 4, -8
 363              		.cfi_offset 14, -4
 243:Generated_Source\PSoC4/LEDS.c ****     /* Wakeup Control reg */
 244:Generated_Source\PSoC4/LEDS.c ****     LEDS_Control_reg_Wakeup();
 364              		.loc 1 244 0
 365 0002 FFF7FEFF 		bl	LEDS_Control_reg_Wakeup
 366              	.LVL33:
 245:Generated_Source\PSoC4/LEDS.c **** }
 367              		.loc 1 245 0
 368              		@ sp needed
 369 0006 10BD     		pop	{r4, pc}
 370              		.cfi_endproc
 371              	.LFE11:
 372              		.size	LEDS_Wakeup, .-LEDS_Wakeup
 373              		.section	.text.LEDS_Test,"ax",%progbits
 374              		.align	2
 375              		.global	LEDS_Test
 376              		.code	16
 377              		.thumb_func
 378              		.type	LEDS_Test, %function
 379              	LEDS_Test:
 380              	.LFB12:
 246:Generated_Source\PSoC4/LEDS.c **** 
 247:Generated_Source\PSoC4/LEDS.c **** 
ARM GAS  C:\Users\ccheney\AppData\Local\Temp\ccljfLF4.s 			page 12


 248:Generated_Source\PSoC4/LEDS.c **** 
 249:Generated_Source\PSoC4/LEDS.c **** 
 250:Generated_Source\PSoC4/LEDS.c **** /*******************************************************************************
 251:Generated_Source\PSoC4/LEDS.c **** * Function Name: LEDS_Test()
 252:Generated_Source\PSoC4/LEDS.c **** ********************************************************************************
 253:Generated_Source\PSoC4/LEDS.c **** * Summary:
 254:Generated_Source\PSoC4/LEDS.c **** *   Runs through the board level testing routine for the LEDs.
 255:Generated_Source\PSoC4/LEDS.c **** *
 256:Generated_Source\PSoC4/LEDS.c **** * Parameters:
 257:Generated_Source\PSoC4/LEDS.c **** *   uint8: The number of times to iterate through the test. 0 means infinite. 
 258:Generated_Source\PSoC4/LEDS.c **** *
 259:Generated_Source\PSoC4/LEDS.c **** * Expected Outcome: 
 260:Generated_Source\PSoC4/LEDS.c **** *   0. All LEDs off
 261:Generated_Source\PSoC4/LEDS.c **** *   1. Red LED on
 262:Generated_Source\PSoC4/LEDS.c **** *   2. Green LED on
 263:Generated_Source\PSoC4/LEDS.c **** *   3. Blue LED on
 264:Generated_Source\PSoC4/LEDS.c **** *   4. Yellow (RB)
 265:Generated_Source\PSoC4/LEDS.c **** *   5. Cyan (BG)
 266:Generated_Source\PSoC4/LEDS.c **** *   6. Magenta (RG)
 267:Generated_Source\PSoC4/LEDS.c **** *   7. White (RGB) LEDs on
 268:Generated_Source\PSoC4/LEDS.c **** *
 269:Generated_Source\PSoC4/LEDS.c **** * Return:
 270:Generated_Source\PSoC4/LEDS.c **** *   None
 271:Generated_Source\PSoC4/LEDS.c **** *
 272:Generated_Source\PSoC4/LEDS.c **** *******************************************************************************/
 273:Generated_Source\PSoC4/LEDS.c **** void LEDS_Test(uint8 runs){
 381              		.loc 1 273 0
 382              		.cfi_startproc
 383              		@ args = 0, pretend = 0, frame = 0
 384              		@ frame_needed = 0, uses_anonymous_args = 0
 385              	.LVL34:
 386 0000 70B5     		push	{r4, r5, r6, lr}
 387              		.cfi_def_cfa_offset 16
 388              		.cfi_offset 4, -16
 389              		.cfi_offset 5, -12
 390              		.cfi_offset 6, -8
 391              		.cfi_offset 14, -4
 392 0002 0600     		movs	r6, r0
 393              	.LVL35:
 274:Generated_Source\PSoC4/LEDS.c ****     /* Iteration variable */
 275:Generated_Source\PSoC4/LEDS.c ****     uint8 i = ZERO;     
 394              		.loc 1 275 0
 395 0004 0025     		movs	r5, #0
 396              	.LVL36:
 397              	.L16:
 276:Generated_Source\PSoC4/LEDS.c ****     do{
 277:Generated_Source\PSoC4/LEDS.c ****         /* 0 - All LEDs off */
 278:Generated_Source\PSoC4/LEDS.c ****         LEDS_Write(LEDS_ON_NONE);
 398              		.loc 1 278 0 discriminator 3
 399 0006 0020     		movs	r0, #0
 400 0008 FFF7FEFF 		bl	LEDS_Write
 401              	.LVL37:
 279:Generated_Source\PSoC4/LEDS.c ****         CyDelay(LEDS_DELAY_TEST);
 402              		.loc 1 279 0 discriminator 3
 403 000c FA24     		movs	r4, #250
 404 000e 6400     		lsls	r4, r4, #1
 405 0010 2000     		movs	r0, r4
ARM GAS  C:\Users\ccheney\AppData\Local\Temp\ccljfLF4.s 			page 13


 406 0012 FFF7FEFF 		bl	CyDelay
 407              	.LVL38:
 280:Generated_Source\PSoC4/LEDS.c ****         /* 1 - Red LED on */
 281:Generated_Source\PSoC4/LEDS.c ****         LEDS_Write(LEDS_ON_RED);
 408              		.loc 1 281 0 discriminator 3
 409 0016 0120     		movs	r0, #1
 410 0018 FFF7FEFF 		bl	LEDS_Write
 411              	.LVL39:
 282:Generated_Source\PSoC4/LEDS.c ****         CyDelay(LEDS_DELAY_TEST);
 412              		.loc 1 282 0 discriminator 3
 413 001c 2000     		movs	r0, r4
 414 001e FFF7FEFF 		bl	CyDelay
 415              	.LVL40:
 283:Generated_Source\PSoC4/LEDS.c ****         /* 2 - Green LED on */
 284:Generated_Source\PSoC4/LEDS.c ****         LEDS_Write(LEDS_ON_GREEN);
 416              		.loc 1 284 0 discriminator 3
 417 0022 0220     		movs	r0, #2
 418 0024 FFF7FEFF 		bl	LEDS_Write
 419              	.LVL41:
 285:Generated_Source\PSoC4/LEDS.c ****         CyDelay(LEDS_DELAY_TEST);
 420              		.loc 1 285 0 discriminator 3
 421 0028 2000     		movs	r0, r4
 422 002a FFF7FEFF 		bl	CyDelay
 423              	.LVL42:
 286:Generated_Source\PSoC4/LEDS.c ****         /* 3 - Blue LED on */
 287:Generated_Source\PSoC4/LEDS.c ****         LEDS_Write(LEDS_ON_BLUE);
 424              		.loc 1 287 0 discriminator 3
 425 002e 0420     		movs	r0, #4
 426 0030 FFF7FEFF 		bl	LEDS_Write
 427              	.LVL43:
 288:Generated_Source\PSoC4/LEDS.c ****         CyDelay(LEDS_DELAY_TEST);
 428              		.loc 1 288 0 discriminator 3
 429 0034 2000     		movs	r0, r4
 430 0036 FFF7FEFF 		bl	CyDelay
 431              	.LVL44:
 289:Generated_Source\PSoC4/LEDS.c ****         /* 4 - Yellow on */
 290:Generated_Source\PSoC4/LEDS.c ****         LEDS_Write(LEDS_ON_YELLOW);
 432              		.loc 1 290 0 discriminator 3
 433 003a 0320     		movs	r0, #3
 434 003c FFF7FEFF 		bl	LEDS_Write
 435              	.LVL45:
 291:Generated_Source\PSoC4/LEDS.c ****         CyDelay(LEDS_DELAY_TEST);
 436              		.loc 1 291 0 discriminator 3
 437 0040 2000     		movs	r0, r4
 438 0042 FFF7FEFF 		bl	CyDelay
 439              	.LVL46:
 292:Generated_Source\PSoC4/LEDS.c ****         /* 5 - Cyan on */
 293:Generated_Source\PSoC4/LEDS.c ****         LEDS_Write(LEDS_ON_CYAN);
 440              		.loc 1 293 0 discriminator 3
 441 0046 0620     		movs	r0, #6
 442 0048 FFF7FEFF 		bl	LEDS_Write
 443              	.LVL47:
 294:Generated_Source\PSoC4/LEDS.c ****         CyDelay(LEDS_DELAY_TEST);
 444              		.loc 1 294 0 discriminator 3
 445 004c 2000     		movs	r0, r4
 446 004e FFF7FEFF 		bl	CyDelay
 447              	.LVL48:
ARM GAS  C:\Users\ccheney\AppData\Local\Temp\ccljfLF4.s 			page 14


 295:Generated_Source\PSoC4/LEDS.c ****         /* 6 - Magneta on */
 296:Generated_Source\PSoC4/LEDS.c ****         LEDS_Write(LEDS_ON_MAGENTA);
 448              		.loc 1 296 0 discriminator 3
 449 0052 0520     		movs	r0, #5
 450 0054 FFF7FEFF 		bl	LEDS_Write
 451              	.LVL49:
 297:Generated_Source\PSoC4/LEDS.c ****         CyDelay(LEDS_DELAY_TEST);
 452              		.loc 1 297 0 discriminator 3
 453 0058 2000     		movs	r0, r4
 454 005a FFF7FEFF 		bl	CyDelay
 455              	.LVL50:
 298:Generated_Source\PSoC4/LEDS.c ****         /* 7 -White on*/
 299:Generated_Source\PSoC4/LEDS.c ****         LEDS_Write(LEDS_ON_WHITE);
 456              		.loc 1 299 0 discriminator 3
 457 005e 0720     		movs	r0, #7
 458 0060 FFF7FEFF 		bl	LEDS_Write
 459              	.LVL51:
 300:Generated_Source\PSoC4/LEDS.c ****         CyDelay(LEDS_DELAY_TEST);
 460              		.loc 1 300 0 discriminator 3
 461 0064 2000     		movs	r0, r4
 462 0066 FFF7FEFF 		bl	CyDelay
 463              	.LVL52:
 301:Generated_Source\PSoC4/LEDS.c ****         /* Increment the iteration */
 302:Generated_Source\PSoC4/LEDS.c ****         i++;
 464              		.loc 1 302 0 discriminator 3
 465 006a 0135     		adds	r5, r5, #1
 466              	.LVL53:
 467 006c EDB2     		uxtb	r5, r5
 468              	.LVL54:
 303:Generated_Source\PSoC4/LEDS.c ****     } while(runs == ZERO || (i < runs));
 469              		.loc 1 303 0 discriminator 3
 470 006e 002E     		cmp	r6, #0
 471 0070 C9D0     		beq	.L16
 472              		.loc 1 303 0 is_stmt 0 discriminator 2
 473 0072 B542     		cmp	r5, r6
 474 0074 C7D3     		bcc	.L16
 304:Generated_Source\PSoC4/LEDS.c ****     
 305:Generated_Source\PSoC4/LEDS.c **** }
 475              		.loc 1 305 0 is_stmt 1
 476              		@ sp needed
 477              	.LVL55:
 478 0076 70BD     		pop	{r4, r5, r6, pc}
 479              		.cfi_endproc
 480              	.LFE12:
 481              		.size	LEDS_Test, .-LEDS_Test
 482              		.text
 483              	.Letext0:
 484              		.file 2 "Generated_Source\\PSoC4\\LEDS_Control_reg.h"
 485              		.file 3 "Generated_Source\\PSoC4\\CyLib.h"
 486              		.file 4 "Generated_Source\\PSoC4\\cytypes.h"