ARM GAS  C:\Users\ccheney\AppData\Local\Temp\cc3QIFu1.s 			page 1


   1              		.syntax unified
   2              		.cpu cortex-m0
   3              		.fpu softvfp
   4              		.eabi_attribute 20, 1
   5              		.eabi_attribute 21, 1
   6              		.eabi_attribute 23, 3
   7              		.eabi_attribute 24, 1
   8              		.eabi_attribute 25, 1
   9              		.eabi_attribute 26, 1
  10              		.eabi_attribute 30, 1
  11              		.eabi_attribute 34, 0
  12              		.eabi_attribute 18, 4
  13              		.thumb
  14              		.syntax unified
  15              		.file	"main.c"
  16              		.text
  17              	.Ltext0:
  18              		.cfi_sections	.debug_frame
  19              		.section	.text.main,"ax",%progbits
  20              		.align	2
  21              		.global	main
  22              		.code	16
  23              		.thumb_func
  24              		.type	main, %function
  25              	main:
  26              	.LFB36:
  27              		.file 1 "main.c"
   1:main.c        **** /***************************************************************************
   2:main.c        **** *                                 MICA  © 2018
   3:main.c        **** *                           MIT BioInstrumentation Lab
   4:main.c        **** *
   5:main.c        **** * File: main.c
   6:main.c        **** * Workspace: DriveBot_v5
   7:main.c        **** * Project: DriveBot_v5.1
   8:main.c        **** * Version: v5.1.0
   9:main.c        **** * Authors: Craig Cheney, Scott McCuen
  10:main.c        **** * 
  11:main.c        **** * PCB: DriveBot MCU v5.1.0
  12:main.c        **** * PSoC: CY8C4245LQI-483
  13:main.c        **** *
  14:main.c        **** * Brief:
  15:main.c        **** *   This is the top-level application file for the DriveBot microcontoller. It
  16:main.c        **** *   is responsible for receiving commands from the IMU Cube over the UART, and 
  17:main.c        **** *   controlling the Drivebot based on these commands. It outputs the velocity
  18:main.c        **** *   data to IMU, which streams it to the host device. 
  19:main.c        **** * 
  20:main.c        **** * 2018.07.25 CC - Abstract out "boardTesting.c"
  21:main.c        **** * 2018.04.10 CC - Upgrade to v5. Switch to MICA Creator components from libMica
  22:main.c        **** * 2017.08.25 CC - Add libMica
  23:main.c        **** * 2017.08.13 SM - Add motor debugging
  24:main.c        **** * 2017.08.11 CC - Document Created
  25:main.c        **** ********************************************************************************/
  26:main.c        **** #include "project.h"
  27:main.c        **** #include <stdbool.h>
  28:main.c        **** #include <stdio.h>
  29:main.c        **** #include "packet_testing.h"
  30:main.c        **** #include "testRunner.h"
ARM GAS  C:\Users\ccheney\AppData\Local\Temp\cc3QIFu1.s 			page 2


  31:main.c        **** #include "supportCubeParser.h"
  32:main.c        **** 
  33:main.c        **** /*  -------------- DEBUGGING --------------
  34:main.c        **** * Uncomment MICA_DEBUG to enable general debugging.
  35:main.c        **** * Uncomment MICA_DEBUG_<case> below to
  36:main.c        **** * enable ONE of the debug levels.
  37:main.c        **** */
  38:main.c        **** //#define MICA_DEBUG
  39:main.c        **** 
  40:main.c        **** /* -------------- DEBUG CASE --------------
  41:main.c        **** * Uncomment ONE of the following
  42:main.c        **** * Debugging will only occur when MICA_DEBUG is defined
  43:main.c        **** */
  44:main.c        **** #ifdef MICA_DEBUG
  45:main.c        **** //    #define MICA_DEBUG_LEDS         /* Test the onboard LEDs */
  46:main.c        ****     #define MICA_DEBUG_SELF_UART    /* Checks to see if the mica UART RX & TX lines are shorted tog
  47:main.c        **** #endif
  48:main.c        **** 
  49:main.c        **** /* -------------- END DEBUG CASE --------------  */
  50:main.c        **** 
  51:main.c        **** /*  -------------- Testing --------------
  52:main.c        **** * Uncomment MICA_TEST to enable specific tests.
  53:main.c        **** * Uncomment MICA_TEST_<case> below to
  54:main.c        **** * enable ONE of the test levels. */
  55:main.c        **** 
  56:main.c        **** #define MICA_TEST
  57:main.c        **** 
  58:main.c        **** /* -------------- TEST LEVEL --------------
  59:main.c        **** * Uncomment ONE of the following
  60:main.c        **** * Testing will only occur when MICA_TEST is defined
  61:main.c        **** */
  62:main.c        **** #ifdef MICA_TEST
  63:main.c        **** //    #define MICA_TEST_PACKETS_ERRORS       /* Test various error on packts */
  64:main.c        **** //    #define MICA_TEST_PACKETS           /* Test Packet communication */
  65:main.c        **** //    #define MICA_TEST_PACKETS_ISR        /* Receive packets from IMU via interrupt and print resu
  66:main.c        **** //    #define MICA_TEST_PERIPHERAL_ID         /* Request the ID from the peripheral and display the
  67:main.c        ****     #define MICA_TEST_SELF_PACKETS         /* REQ: Hard-wired RX & TX lines - Send packets to self 
  68:main.c        ****     
  69:main.c        **** #endif
  70:main.c        **** /* -------------- END TEST LEVEL --------------  */
  71:main.c        **** 
  72:main.c        **** /* --------- Local Variables --------- */
  73:main.c        **** 
  74:main.c        **** void ISR_imuUart(void);
  75:main.c        **** void ISR_usbUart(void);
  76:main.c        **** void ISR_Timer(void);
  77:main.c        **** /* State variables */
  78:main.c        **** volatile bool flag_pendingRxByte = false;
  79:main.c        **** volatile bool flag_pendingUsbByte = false;
  80:main.c        **** volatile bool timerExpired = false;
  81:main.c        **** volatile uint32_t isrErr = ZERO;
  82:main.c        **** /*******************************************************************************
  83:main.c        **** * Function Name: main()
  84:main.c        **** ********************************************************************************
  85:main.c        **** * Summary:
  86:main.c        **** *   The top-level application function for the project.
  87:main.c        **** *
ARM GAS  C:\Users\ccheney\AppData\Local\Temp\cc3QIFu1.s 			page 3


  88:main.c        **** * Parameters:
  89:main.c        **** *   None
  90:main.c        **** *
  91:main.c        **** * Return:
  92:main.c        **** *   None
  93:main.c        **** *
  94:main.c        **** *******************************************************************************/
  95:main.c        **** int main(void) {
  28              		.loc 1 95 0
  29              		.cfi_startproc
  30              		@ args = 0, pretend = 0, frame = 272
  31              		@ frame_needed = 0, uses_anonymous_args = 0
  32 0000 70B5     		push	{r4, r5, r6, lr}
  33              		.cfi_def_cfa_offset 16
  34              		.cfi_offset 4, -16
  35              		.cfi_offset 5, -12
  36              		.cfi_offset 6, -8
  37              		.cfi_offset 14, -4
  38 0002 C4B0     		sub	sp, sp, #272
  39              		.cfi_def_cfa_offset 288
  96:main.c        **** 
  97:main.c        **** 
  98:main.c        ****     /* Enable global interrupts */
  99:main.c        ****     CyGlobalIntEnable;
  40              		.loc 1 99 0
  41              		.syntax divided
  42              	@ 99 "main.c" 1
  43 0004 62B6     		CPSIE   i
  44              	@ 0 "" 2
 100:main.c        ****     
 101:main.c        **** /* %%%%%%%%%%%%%%%%%% Begin Debugging %%%%%%%%%%%%%%%%%% */
 102:main.c        **** #ifdef MICA_DEBUG
 103:main.c        ****     #warning "MICA_DEBUG is enabled"
 104:main.c        ****     /* Enable global interrupts. */
 105:main.c        ****     CyGlobalIntEnable; 
 106:main.c        ****     #ifdef MICA_DEBUG_LEDS
 107:main.c        ****         /* Test the onboard LEDs
 108:main.c        ****         Expeted outcome: 
 109:main.c        ****         0. All LEDs off
 110:main.c        ****         1. Red LED on
 111:main.c        ****         2. Green LED on
 112:main.c        ****         3. Blue LED on
 113:main.c        ****         4. Yellow (RB)
 114:main.c        ****         5. Cyan (BG)
 115:main.c        ****         6. Magenta (RG)
 116:main.c        ****         7. White (RGB) LEDs on
 117:main.c        ****         */
 118:main.c        ****         /* Infinite loop */
 119:main.c        ****         LEDS_Test(MICA_TEST_INFINITE);
 120:main.c        ****     /* End MICA_DEBUG_LEDS */
 121:main.c        ****     #elif defined MICA_DEBUG_SELF_UART
 122:main.c        ****          /* Checks to see if the mica UART RX & TX lines are shorted together */
 123:main.c        ****         /* Expected outcome:
 124:main.c        ****         0. Green LED on
 125:main.c        ****         1. UART writes a byte out the TX line
 126:main.c        ****         2. UART reads in byte from RX line
 127:main.c        ****         3a. If data is available and matches sent B led toggle
ARM GAS  C:\Users\ccheney\AppData\Local\Temp\cc3QIFu1.s 			page 4


 128:main.c        ****         3b. If data does not match toggle R led  
 129:main.c        ****         */
 130:main.c        ****         UART_IMU_Start();
 131:main.c        ****         LEDS_Write(LEDS_ON_GREEN);
 132:main.c        ****         MICA_delayMs(MICA_DELAY_MS_SEC_ONE);
 133:main.c        ****         LEDS_Write(LEDS_ON_NONE);
 134:main.c        ****         uint8_t i = ZERO;
 135:main.c        ****         /* Infinite loop */
 136:main.c        ****         for(;;){
 137:main.c        ****             /* Write a byte out over the UART */
 138:main.c        ****             imuUart_putChar(i);
 139:main.c        ****             MICA_delayMs(ONE);
 140:main.c        ****             /* Variables for debugger */
 141:main.c        ****             volatile uint8 bytesPending = UART_IMU_SpiUartGetRxBufferSize();
 142:main.c        ****             volatile uint8_t byte = imuUart_getChar();
 143:main.c        ****             /* Expect one byte in the RX buffer */
 144:main.c        ****             if(bytesPending == ONE && byte == i++){
 145:main.c        ****                 LEDS_B_Toggle();
 146:main.c        ****             } else {
 147:main.c        ****                 LEDS_R_Toggle();   
 148:main.c        ****             }
 149:main.c        ****             MICA_delayMs(MICA_DELAY_MS_SEC_ONE);
 150:main.c        ****         }
 151:main.c        ****     /* End MICA_DEBUG_SELF_UART */
 152:main.c        ****     #else
 153:main.c        ****         #error "At least ONE MICA_DEBUG_<case> must be defined if MICA_DEBUG is defined"
 154:main.c        ****     #endif /* End MICA_DEBUG_<case> */
 155:main.c        ****     /* Infinite loop */
 156:main.c        ****     for(;;){}
 157:main.c        **** #endif /* MICA_DEBUG */
 158:main.c        **** #ifdef MICA_TEST
 159:main.c        ****         testRunner_setPrintFunction(usbUart_print);
  45              		.loc 1 159 0
  46              		.thumb
  47              		.syntax unified
  48 0006 4448     		ldr	r0, .L6
  49 0008 FFF7FEFF 		bl	testRunner_setPrintFunction
  50              	.LVL0:
 160:main.c        ****     /* end MICA_TEST_PACKET_SPAWN */
 161:main.c        ****         #if defined MICA_TEST_PACKETS_ERRORS
 162:main.c        ****         /* Unit tests for MICA Errors */
 163:main.c        ****         LEDS_Write(LEDS_ON_GREEN);
 164:main.c        ****         UART_USB_Start();
 165:main.c        ****         usbUart_clearScreen();
 166:main.c        **** 
 167:main.c        ****         /* Print Program Header */
 168:main.c        ****         usbUart_printHeader(__TIME__, __DATE__, "      PACKET TESTING UNIT TESTS ");
 169:main.c        ****         /* Set the Print function */
 170:main.c        ****         
 171:main.c        ****         /* ### Ensure the packet version ### */
 172:main.c        ****         {
 173:main.c        ****             usbUart_print("\r\n*** Packet Version ***\r\n");
 174:main.c        ****             testRunner_run(testRunner_printResults( "Packet Version 1.4",  packets_VERSION  , 0x104
 175:main.c        ****         }
 176:main.c        ****         
 177:main.c        ****         /* ### Helpers test suite ### */
 178:main.c        ****         { 
ARM GAS  C:\Users\ccheney\AppData\Local\Temp\cc3QIFu1.s 			page 5


 179:main.c        ****             usbUart_print("\r\n*** Command to Module ***\r\n");
 180:main.c        ****             testRunner_run(test_commandToModule("Control Command to Module",  0x00, packets_ID_MODU
 181:main.c        ****             testRunner_run(test_commandToModule("Control Command to Module",  0x01, packets_ID_MODU
 182:main.c        ****             testRunner_run(test_commandToModule("Control Command to Module",  0x1F, packets_ID_MODU
 183:main.c        ****             testRunner_run(test_commandToModule("Control Response to Module", 0x80, packets_ID_MODU
 184:main.c        ****             testRunner_run(test_commandToModule("Control Response to Module", 0x81, packets_ID_MODU
 185:main.c        ****             testRunner_run(test_commandToModule("Control Response to Module", 0x9F, packets_ID_MODU
 186:main.c        ****             
 187:main.c        ****             testRunner_run(test_commandToModule("Actuation Command to Module",  0x20, packets_ID_MO
 188:main.c        ****             testRunner_run(test_commandToModule("Actuation Command to Module",  0x25, packets_ID_MO
 189:main.c        ****             testRunner_run(test_commandToModule("Actuation Command to Module",  0x3F, packets_ID_MO
 190:main.c        ****             testRunner_run(test_commandToModule("Actuation Response to Module", 0xA0, packets_ID_MO
 191:main.c        ****             testRunner_run(test_commandToModule("Actuation Response to Module", 0xB3, packets_ID_MO
 192:main.c        ****             testRunner_run(test_commandToModule("Actuation Response to Module", 0xBF, packets_ID_MO
 193:main.c        ****             
 194:main.c        ****             testRunner_run(test_commandToModule("Sensing Command to Module",   0x40, packets_ID_MOD
 195:main.c        ****             testRunner_run(test_commandToModule("Sensing Command to Module",   0x44, packets_ID_MOD
 196:main.c        ****             testRunner_run(test_commandToModule("Sensing Command to Module",   0x5F, packets_ID_MOD
 197:main.c        ****             testRunner_run(test_commandToModule("Sensing Response to Module",  0xC0, packets_ID_MOD
 198:main.c        ****             testRunner_run(test_commandToModule("Sensing Response to Module",  0xCA, packets_ID_MOD
 199:main.c        ****             testRunner_run(test_commandToModule("Sensing Response to Module",  0xDF, packets_ID_MOD
 200:main.c        ****             
 201:main.c        ****             testRunner_run(test_commandToModule("Energy Command to Module",   0x60, packets_ID_MODU
 202:main.c        ****             testRunner_run(test_commandToModule("Energy Command to Module",   0x7A, packets_ID_MODU
 203:main.c        ****             testRunner_run(test_commandToModule("Energy Command to Module",   0x7F, packets_ID_MODU
 204:main.c        ****             testRunner_run(test_commandToModule("Energy Response to Module",  0xE0, packets_ID_MODU
 205:main.c        ****             testRunner_run(test_commandToModule("Energy Response to Module",  0xEB, packets_ID_MODU
 206:main.c        ****             testRunner_run(test_commandToModule("Energy Response to Module",  0xFF, packets_ID_MODU
 207:main.c        ****         }
 208:main.c        ****         
 209:main.c        ****         /* ### Buffer Generate Test Suite ### */
 210:main.c        ****         {
 211:main.c        ****             /* Create a packet object and initialize */
 212:main.c        ****             packets_BUFFER_FULL_S packetBuffer;
 213:main.c        ****             packets_initialize(&packetBuffer);
 214:main.c        ****             usbUart_print("\r\n*** Buffer generation ***\r\n");
 215:main.c        ****             /* Nominal Case */
 216:main.c        ****             testRunner_run(test_generateBuffers(&packetBuffer, "Normal", packets_LEN_BLOCK_PACKET, 
 217:main.c        ****             /* Long test */
 218:main.c        ****             testRunner_run(test_generateBuffers(&packetBuffer, "Long", 1000, packets_ERR_MEMORY));
 219:main.c        ****             /* Multiple create */
 220:main.c        ****             packets_generateBuffers(&packetBuffer, 10);
 221:main.c        ****             testRunner_run(test_generateBuffers(&packetBuffer, "Multiple Create", 10, packets_ERR_S
 222:main.c        ****             
 223:main.c        ****             /* Clean Up */
 224:main.c        ****             packets_destoryBuffers(&packetBuffer);
 225:main.c        ****         }
 226:main.c        ****         
 227:main.c        ****         /* ### Buffer Destroy Test Suite ### */
 228:main.c        ****         {
 229:main.c        ****             /* Create a packet object and initialize */
 230:main.c        ****             packets_BUFFER_FULL_S packetBuffer;
 231:main.c        ****             packets_initialize(&packetBuffer);
 232:main.c        ****             usbUart_print("\r\n*** Buffer Destruction ***\r\n");
 233:main.c        ****             /* Buffer not generated */
 234:main.c        ****             testRunner_run( test_destroyBuffers(&packetBuffer, "Non-generated", packets_ERR_MEMORY)
 235:main.c        ****             /* Normal packet */
ARM GAS  C:\Users\ccheney\AppData\Local\Temp\cc3QIFu1.s 			page 6


 236:main.c        ****             packets_generateBuffers(&packetBuffer, packets_LEN_BLOCK_PACKET);
 237:main.c        ****             testRunner_run(test_destroyBuffers(&packetBuffer, "Normal", packets_ERR_SUCCESS));
 238:main.c        ****             /* Too long buffer */
 239:main.c        ****             packets_generateBuffers(&packetBuffer, 2000);
 240:main.c        ****             testRunner_run(test_destroyBuffers(&packetBuffer, "Failed Gen", packets_ERR_MEMORY));
 241:main.c        ****             /* Multiple destroy */
 242:main.c        ****             packets_generateBuffers(&packetBuffer, 10);
 243:main.c        ****             packets_destoryBuffers(&packetBuffer);
 244:main.c        ****             testRunner_run(test_destroyBuffers(&packetBuffer, "Multiple destroy", packets_ERR_MEMOR
 245:main.c        ****             
 246:main.c        ****             /* Clean Up (Uncessary, here for consistency */
 247:main.c        ****             packets_destoryBuffers(&packetBuffer);
 248:main.c        ****         }
 249:main.c        ****         
 250:main.c        ****         /* ### Memory leak testing ### */
 251:main.c        ****         {
 252:main.c        ****             usbUart_print("\r\n*** Memory Leak Generation ***\r\n");
 253:main.c        ****             packets_BUFFER_FULL_S packetBuffer;
 254:main.c        ****             packets_initialize(&packetBuffer);
 255:main.c        ****             testRunner_run(test_generateBuffers_iteration(&packetBuffer,"Repeat Generations", 1000)
 256:main.c        ****         }
 257:main.c        ****         
 258:main.c        ****         
 259:main.c        ****         /* ### Packet Creation Test Suite - State Errors ### */
 260:main.c        ****         {
 261:main.c        ****             usbUart_print("\r\n*** Construct Packet Test Suite - State Errors ***\r\n");
 262:main.c        ****             /* Create a packet object and initialize */
 263:main.c        ****             packets_BUFFER_FULL_S packetBuffer;
 264:main.c        ****             packets_initialize(&packetBuffer);
 265:main.c        ****             packets_generateBuffers(&packetBuffer, packets_LEN_BLOCK_PACKET);
 266:main.c        ****             /* Local reference to sending buffer */
 267:main.c        ****             packets_PACKET_S* sendPacket = &(packetBuffer.send.packet); 
 268:main.c        ****             /* Define dummy data */
 269:main.c        ****             #define DATA_LEN 0x03
 270:main.c        ****             uint8 dummyData[DATA_LEN] = {0x01, 0x03, 0x05};
 271:main.c        ****             sendPacket->moduleId = packets_ID_MODULE_SENSING;
 272:main.c        ****             sendPacket->cmd = 0xCC;
 273:main.c        ****             sendPacket->payloadLen = DATA_LEN;
 274:main.c        ****             memcpy(sendPacket->payload, dummyData, sendPacket->payloadLen);
 275:main.c        ****             /* Simple working packet */
 276:main.c        ****             testRunner_run(test_packetCreation_stateErrors(&packetBuffer, "Basic Packet", packets_E
 277:main.c        ****             /* No Payload */
 278:main.c        ****             sendPacket->moduleId = 1;
 279:main.c        ****             sendPacket->payloadLen = ZERO;
 280:main.c        ****             testRunner_run(test_packetCreation_stateErrors(&packetBuffer, "No Payload", packets_ERR
 281:main.c        ****             /* Long Packet - no memory */
 282:main.c        ****             sendPacket->payloadLen = packets_LEN_BLOCK_PACKET + 1;
 283:main.c        ****             testRunner_run(test_packetCreation_stateErrors(&packetBuffer, "Long Payload - no memory
 284:main.c        ****             /* Long Packet - max payload, and memory */
 285:main.c        ****             sendPacket->payloadLen = 1024;
 286:main.c        ****             testRunner_run(test_packetCreation_stateErrors(&packetBuffer, "Long Payload - max paylo
 287:main.c        ****             
 288:main.c        ****             /* Clean Up */
 289:main.c        ****             packets_destoryBuffers(&packetBuffer);
 290:main.c        ****         }
 291:main.c        ****         
 292:main.c        ****         /* ### Packet Creation Test Suite - Packet Values ### */
ARM GAS  C:\Users\ccheney\AppData\Local\Temp\cc3QIFu1.s 			page 7


 293:main.c        ****         {
 294:main.c        ****             usbUart_print("\r\n*** Construct Packet Test Suite - Packet Values ***\r\n");
 295:main.c        ****             /* Create a packet object and initialize */
 296:main.c        ****             packets_BUFFER_FULL_S packetBuffer;
 297:main.c        ****             packets_initialize(&packetBuffer);
 298:main.c        ****             packets_generateBuffers(&packetBuffer, packets_LEN_BLOCK_PACKET);
 299:main.c        ****             /* Local reference to sending buffer */
 300:main.c        ****             packets_PACKET_S* sendPacket = &(packetBuffer.send.packet); 
 301:main.c        ****             /* Define valid dummy data */
 302:main.c        ****             #define DATA_LEN 0x03
 303:main.c        ****             uint8 dummyData[DATA_LEN] = {0x01, 0x03, 0x05};
 304:main.c        ****             sendPacket->moduleId = packets_ID_MODULE_CONTROL;
 305:main.c        ****             sendPacket->cmd = packets_CMD_CONTROL_MIN;
 306:main.c        ****             sendPacket->payloadLen = DATA_LEN;
 307:main.c        ****             memcpy(sendPacket->payload, dummyData, sendPacket->payloadLen);
 308:main.c        ****             /* Simple working packet */
 309:main.c        ****             uint8 validPacket[15] = {0x01, 0x00, 0x00, 0x03, 0x01, 0x03, 0x05, 0x00, 0x00, 0xFF, 0x
 310:main.c        ****             testRunner_run(test_packetCreation_packetVals(&packetBuffer, "Simple Packet", validPack
 311:main.c        ****             /* No payload */
 312:main.c        ****             sendPacket->payloadLen = ZERO;
 313:main.c        ****             uint8 noPayloadPacket[15] = {0x01, 0x00, 0x00, 0x00, 0x00, 0x00, 0xFF, 0xFF, 0xAA};
 314:main.c        ****             testRunner_run(test_packetCreation_packetVals(&packetBuffer, "No payload", noPayloadPac
 315:main.c        ****             /* No Acknowledge  Flags */
 316:main.c        ****             sendPacket->flags = packets_FLAG_NO_ACK;
 317:main.c        ****             uint8 respFlagPacket[15] = {0x01, 0x00, 0x00, 0x00, 0x00, 0x02, 0xFF, 0xFD, 0xAA};
 318:main.c        ****             testRunner_run(test_packetCreation_packetVals(&packetBuffer, "No acknowledge flag", res
 319:main.c        ****             /* Response and payload */
 320:main.c        ****             sendPacket->payloadLen = 1;
 321:main.c        ****             dummyData[0] = 0xFF;
 322:main.c        ****             memcpy(sendPacket->payload, dummyData, sendPacket->payloadLen);
 323:main.c        ****             sendPacket->flags = packets_FLAG_NO_ACK;
 324:main.c        ****             uint8 respFlagPacket2[15] = {0x01, 0x00, 0x00, 0x01, 0xFF, 0x00, 0x02, 0xFE, 0xFD, 0xAA
 325:main.c        ****             testRunner_run(test_packetCreation_packetVals(&packetBuffer, "No acknowledge flag 2", r
 326:main.c        ****             
 327:main.c        ****             /* Clean Up */
 328:main.c        ****             packets_destoryBuffers(&packetBuffer);
 329:main.c        ****         }
 330:main.c        ****         
 331:main.c        ****         /* ### Send Packet Test Suite ### */
 332:main.c        ****         {
 333:main.c        ****             usbUart_print("\r\n*** Send Packet ***\r\n");
 334:main.c        ****             /* Setup - Create a packet object and initialize */
 335:main.c        ****             packets_BUFFER_FULL_S packetBuffer;
 336:main.c        ****             packets_initialize(&packetBuffer);
 337:main.c        ****             packets_generateBuffers(&packetBuffer, packets_LEN_BLOCK_PACKET);
 338:main.c        ****             /* Basic Packet */
 339:main.c        ****             testRunner_run(test_sendPacket(&packetBuffer, "Send Basic Packet", packets_ERR_SUCCESS)
 340:main.c        ****             testRunner_run(test_sendPacket(&packetBuffer, "Send Basic Packet 2", packets_ERR_SUCCES
 341:main.c        ****             
 342:main.c        ****         
 343:main.c        ****             /* Clean Up */
 344:main.c        ****             packets_destoryBuffers(&packetBuffer);
 345:main.c        ****         }
 346:main.c        ****         
 347:main.c        ****         /* ### Process RX Byte Test Suite ### */
 348:main.c        ****         {
 349:main.c        ****             usbUart_print("\r\n*** Process RX Byte - State Errors ***\r\n");
ARM GAS  C:\Users\ccheney\AppData\Local\Temp\cc3QIFu1.s 			page 8


 350:main.c        ****             /* Create a packet object and initialize */
 351:main.c        ****             packets_BUFFER_FULL_S packetBuffer;
 352:main.c        ****             packets_initialize(&packetBuffer);
 353:main.c        ****             /* No buffers generated */
 354:main.c        ****             uint8 bytes[1] = {packets_SYM_START};
 355:main.c        ****             testRunner_run(test_processRxByte_stateError(&packetBuffer, bytes, 1, "No Buffers", pac
 356:main.c        ****             /* Generate buffer */
 357:main.c        ****             packets_generateBuffers(&packetBuffer, 100);
 358:main.c        ****             /* Buffer overflow */
 359:main.c        ****             packetBuffer.receive.processBuffer.bufferIndex = 100;
 360:main.c        ****             bytes[0] = packets_SYM_START;
 361:main.c        ****             testRunner_run(test_processRxByte_stateError(&packetBuffer, bytes, 1, "Buffer overflow"
 362:main.c        ****             /* Valid Start Byte */
 363:main.c        ****             bytes[0] = packets_SYM_START;
 364:main.c        ****             testRunner_run(test_processRxByte_stateError(&packetBuffer, bytes, 1, "Valid Start", pa
 365:main.c        ****             /* Invalid Start Byte */
 366:main.c        ****             bytes[0] = packets_SYM_START + 1;
 367:main.c        ****             testRunner_run(test_processRxByte_stateError(&packetBuffer, bytes, 1, "invalid Start", 
 368:main.c        ****             
 369:main.c        ****             /* Clean up */
 370:main.c        ****             packets_destoryBuffers(&packetBuffer);
 371:main.c        ****         }
 372:main.c        ****         
 373:main.c        ****         
 374:main.c        ****         /* ### Packet parsing Test Suite - State Errors ### */
 375:main.c        ****         {
 376:main.c        ****             usbUart_print("\r\n*** Packet parsing - State Errors ***\r\n");
 377:main.c        ****             /* Setup - Create a packet object and initialize */
 378:main.c        ****             packets_BUFFER_FULL_S packetBuffer;
 379:main.c        ****             packets_initialize(&packetBuffer);
 380:main.c        ****             packets_generateBuffers(&packetBuffer, packets_LEN_BLOCK_PACKET);
 381:main.c        ****             /* Local references */
 382:main.c        ****             packets_BUFFER_PROCESS_S* txBuffer = &(packetBuffer.send.processBuffer);
 383:main.c        ****             /* No Payload, success */
 384:main.c        ****             uint8 noPayloadPacket[15] = {0x01, 0x01, 0x00, 0x00, 0x00, 0x00, 0xFF, 0xFE, 0xAA};
 385:main.c        ****             txBuffer->bufferIndex = 9;
 386:main.c        ****             memcpy(txBuffer->buffer, noPayloadPacket, txBuffer->bufferIndex);
 387:main.c        ****             testRunner_run(test_packetParsing_stateErrors(&packetBuffer, "Valid packet - no payload
 388:main.c        ****             /* Success, payload */
 389:main.c        ****             uint8 basePacket[15] = {0x01, 0x05, 0x00, 0x02, 0xFF, 0xFF, 0x00, 0x00, 0xFD, 0xFA, 0xA
 390:main.c        ****             txBuffer->bufferIndex = 11;
 391:main.c        ****             memcpy(txBuffer->buffer, basePacket, txBuffer->bufferIndex);
 392:main.c        ****             testRunner_run(test_packetParsing_stateErrors(&packetBuffer, "Valid packet ", packets_E
 393:main.c        ****             /* Incomplete packet */
 394:main.c        ****             txBuffer->bufferIndex = 8;
 395:main.c        ****             memcpy(txBuffer->buffer, noPayloadPacket,txBuffer->bufferIndex);
 396:main.c        ****             testRunner_run(test_packetParsing_stateErrors(&packetBuffer, "Short packet", packets_ER
 397:main.c        ****             /* Invalid start symbol */
 398:main.c        ****             uint8 badStartPacket[15] = {0x02, 0x05, 0x00, 0x02, 0xFF, 0xFF, 0x00, 0x00, 0xFD, 0xF9,
 399:main.c        ****             txBuffer->bufferIndex = 11;
 400:main.c        ****             memcpy(txBuffer->buffer, badStartPacket, txBuffer->bufferIndex);
 401:main.c        ****             testRunner_run(test_packetParsing_stateErrors(&packetBuffer, "Invalid start sym", packe
 402:main.c        ****             /* Invalid Checksum */
 403:main.c        ****             uint8 badChecksumPacket[15] = {0x01, 0x05, 0x00, 0x02, 0xFF, 0xFF, 0x00, 0x00, 0xFD, 0x
 404:main.c        ****             txBuffer->bufferIndex = 11;
 405:main.c        ****             memcpy(txBuffer->buffer, badChecksumPacket, txBuffer->bufferIndex);
 406:main.c        ****             testRunner_run(test_packetParsing_stateErrors(&packetBuffer, "Bad Checksum", packets_ER
ARM GAS  C:\Users\ccheney\AppData\Local\Temp\cc3QIFu1.s 			page 9


 407:main.c        ****             /* Invalid End symbol */
 408:main.c        ****             uint8 badEndPacket[15] = {0x01, 0x05, 0x00, 0x02, 0xFF, 0xFF, 0x00, 0x00, 0xFD, 0xFA, 0
 409:main.c        ****             txBuffer->bufferIndex = 11;
 410:main.c        ****             memcpy(txBuffer->buffer, badEndPacket, txBuffer->bufferIndex);
 411:main.c        ****             testRunner_run(test_packetParsing_stateErrors(&packetBuffer, "Invalid End Symbol", pack
 412:main.c        ****         
 413:main.c        ****             /* Clean up */
 414:main.c        ****             packets_destoryBuffers(&packetBuffer);
 415:main.c        ****         }
 416:main.c        ****         
 417:main.c        ****         
 418:main.c        ****         /* ### Packet parsing Test Suite - Packet vals ### */
 419:main.c        ****         {
 420:main.c        ****             usbUart_print("\r\n*** Packet parsing - Packet Values ***\r\n");
 421:main.c        ****             /* Setup - Create a packet object and initialize */
 422:main.c        ****             packets_BUFFER_FULL_S packetBuffer1;
 423:main.c        ****             packets_initialize(&packetBuffer1);
 424:main.c        ****             packets_generateBuffers(&packetBuffer1, packets_LEN_BLOCK_PACKET);
 425:main.c        ****             /* Local references */
 426:main.c        ****             packets_BUFFER_PROCESS_S* txBuffer = &(packetBuffer1.send.processBuffer);
 427:main.c        ****             /* No Payload, success */
 428:main.c        ****             uint8 noPayloadPacket[15] = {0x01, 0x10, 0x00, 0x00, 0x00, 0x00, 0xFF, 0xEF, 0xAA};
 429:main.c        ****             txBuffer->bufferIndex = 9;
 430:main.c        ****             memcpy(txBuffer->buffer, noPayloadPacket, txBuffer->bufferIndex);
 431:main.c        ****             uint8 payload[15];
 432:main.c        ****             packets_PACKET_S expectedPacket = {
 433:main.c        ****                 .moduleId = packets_ID_MODULE_CONTROL,
 434:main.c        ****                 .cmd = 0x10,
 435:main.c        ****                 .payload = payload,
 436:main.c        ****                 .payloadLen = 0,
 437:main.c        ****                 .payloadMax = packets_LEN_BLOCK_PACKET,
 438:main.c        ****                 .flags = ZERO,
 439:main.c        ****                 .error = ZERO
 440:main.c        ****             };
 441:main.c        ****             testRunner_run(test_packetParsing_packetVals(&packetBuffer1, "No payload ", &expectedPa
 442:main.c        ****             
 443:main.c        ****             /* No Payload, success */
 444:main.c        ****             uint8 basePacket[15] = {0x01, 0x10, 0x00, 0x02, 0xFF, 0xFF, 0x00, 0x00, 0xFD, 0xEF, 0xA
 445:main.c        ****             uint8 payload2[15] = {0xFF, 0xFF};
 446:main.c        **** //            usbUart_print("checksum: %x\r\n", packets_computeChecksum16(basePacket, 8));
 447:main.c        ****             txBuffer->bufferIndex = 11;
 448:main.c        ****             memcpy(txBuffer->buffer, basePacket, txBuffer->bufferIndex);
 449:main.c        ****             packets_PACKET_S expectedPacket2 = {
 450:main.c        ****                 .moduleId = packets_ID_MODULE_CONTROL,
 451:main.c        ****                 .cmd = 0x10,
 452:main.c        ****                 .payload = payload2,
 453:main.c        ****                 .payloadLen = 2,
 454:main.c        ****                 .payloadMax = packets_LEN_BLOCK_PACKET,
 455:main.c        ****                 .flags = ZERO,
 456:main.c        ****                 .error = ZERO
 457:main.c        ****             };
 458:main.c        ****             testRunner_run(test_packetParsing_packetVals(&packetBuffer1, "Payload exists ", &expect
 459:main.c        ****             /* Actuation */
 460:main.c        ****             uint8 actuationPacket[15] = {0x01, 0x22, 0x00, 0x02, 0xFF, 0xFF, 0x00, 0x00, 0xFD, 0xDD
 461:main.c        ****             uint8 payloadAct[15] = {0xFF, 0xFF};
 462:main.c        ****             txBuffer->bufferIndex = 11;
 463:main.c        ****             memcpy(txBuffer->buffer, actuationPacket, txBuffer->bufferIndex);
ARM GAS  C:\Users\ccheney\AppData\Local\Temp\cc3QIFu1.s 			page 10


 464:main.c        ****             packets_PACKET_S expectedPacketAct = {
 465:main.c        ****                 .moduleId = packets_ID_MODULE_ACTUATION,
 466:main.c        ****                 .cmd = 0x22,
 467:main.c        ****                 .payload = payloadAct,
 468:main.c        ****                 .payloadLen = 2,
 469:main.c        ****                 .payloadMax = packets_LEN_BLOCK_PACKET,
 470:main.c        ****                 .flags = ZERO,
 471:main.c        ****                 .error = ZERO
 472:main.c        ****             };
 473:main.c        ****             testRunner_run(test_packetParsing_packetVals(&packetBuffer1, "Actuation Module", &expec
 474:main.c        ****             /* Sensing Test */
 475:main.c        ****             uint8 sensingPacket[15] = {0x01, 0x40, 0x00, 0x02, 0xFF, 0xFF, 0x00, 0x00, 0xFD, 0xBF, 
 476:main.c        ****             uint8 payload3[15] = {0xFF, 0xFF};
 477:main.c        **** //            usbUart_print("checksum: %x\r\n", packets_computeChecksum16(sensingPacket, 8));
 478:main.c        ****             txBuffer->bufferIndex = 11;
 479:main.c        ****             memcpy(txBuffer->buffer, sensingPacket, txBuffer->bufferIndex);
 480:main.c        ****             packets_PACKET_S expectedPacket3 = {
 481:main.c        ****                 .moduleId = packets_ID_MODULE_SENSING,
 482:main.c        ****                 .cmd = 0x40,
 483:main.c        ****                 .payload = payload3,
 484:main.c        ****                 .payloadLen = 2,
 485:main.c        ****                 .payloadMax = packets_LEN_BLOCK_PACKET,
 486:main.c        ****                 .flags = ZERO,
 487:main.c        ****                 .error = ZERO
 488:main.c        ****             };
 489:main.c        ****             testRunner_run(test_packetParsing_packetVals(&packetBuffer1, "Sensing Module", &expecte
 490:main.c        ****             /* Energy Module */
 491:main.c        ****             uint8 energyPacket[15] = {0x01, 0x70, 0x00, 0x02, 0xFF, 0xFF, 0x00, 0x00, 0xFD, 0x8F, 0
 492:main.c        ****             uint8 payloadEnergy[15] = {0xFF, 0xFF};
 493:main.c        ****             txBuffer->bufferIndex = 11;
 494:main.c        ****             memcpy(txBuffer->buffer, energyPacket, txBuffer->bufferIndex);
 495:main.c        ****             packets_PACKET_S expectedPacketEnergy = {
 496:main.c        ****                 .moduleId = packets_ID_MODULE_ENERGY,
 497:main.c        ****                 .cmd = 0x70,
 498:main.c        ****                 .payload = payloadEnergy,
 499:main.c        ****                 .payloadLen = 2,
 500:main.c        ****                 .payloadMax = packets_LEN_BLOCK_PACKET,
 501:main.c        ****                 .flags = ZERO,
 502:main.c        ****                 .error = ZERO
 503:main.c        ****             };
 504:main.c        ****             testRunner_run(test_packetParsing_packetVals(&packetBuffer1, "Energy Module", &expected
 505:main.c        **** //            usbUart_print("%x\r\n", packetBuffer1.receive.packet.moduleId);
 506:main.c        ****             /* Clean up */
 507:main.c        ****             packets_destoryBuffers(&packetBuffer1);
 508:main.c        ****         }
 509:main.c        ****         
 510:main.c        ****         /* ### Print testing packet ### */
 511:main.c        ****         {
 512:main.c        ****             usbUart_print("\r\n*** Validate Packets ***\r\n");
 513:main.c        ****             /* Setup - Create a packet object and initialize */
 514:main.c        ****             packets_BUFFER_FULL_S packetBuffer1;
 515:main.c        ****             packets_initialize(&packetBuffer1);
 516:main.c        ****             packets_generateBuffers(&packetBuffer1, packets_LEN_BLOCK_PACKET);
 517:main.c        **** 
 518:main.c        ****             uint8 payload[15] = {0xFF, 0x0F};
 519:main.c        ****             packets_PACKET_S testPacket = {
 520:main.c        ****                 .moduleId = packets_ID_MODULE_ENERGY,
ARM GAS  C:\Users\ccheney\AppData\Local\Temp\cc3QIFu1.s 			page 11


 521:main.c        ****                 .cmd = 0x70,
 522:main.c        ****                 .payload = payload,
 523:main.c        ****                 .payloadLen = 2,
 524:main.c        ****                 .payloadMax = packets_LEN_BLOCK_PACKET,
 525:main.c        ****                 .flags = ZERO,
 526:main.c        ****                 .error = ZERO
 527:main.c        ****             };
 528:main.c        ****                         
 529:main.c        ****             packets_printPacket(&testPacket, usbUart_print);
 530:main.c        ****             
 531:main.c        ****             packets_destoryBuffers(&packetBuffer1);
 532:main.c        ****             
 533:main.c        ****         }
 534:main.c        ****         
 535:main.c        ****         /* Display test suite results */
 536:main.c        ****         testRunner_printCount();
 537:main.c        **** 
 538:main.c        ****         /* Enable the button */
 539:main.c        ****         usbUart_print("Press any key to re-run tests\r\n");
 540:main.c        ****         /* Infinite loop */
 541:main.c        ****         for(;;) {
 542:main.c        ****             /* Reset on buton press */
 543:main.c        ****             if(usbUart_getChar()){
 544:main.c        ****                 /*Reset the device*/
 545:main.c        ****                 CySoftwareReset();   
 546:main.c        ****             }
 547:main.c        ****         }
 548:main.c        ****         
 549:main.c        ****     /* End MICA_TEST_PACKETS_ERRORS */
 550:main.c        ****     #elif defined MICA_TEST_PACKETS
 551:main.c        ****         /* Receive a packet from the IMU and print the result via the USB uart */
 552:main.c        ****         /* Start the Components */
 553:main.c        ****         UART_USB_Start();
 554:main.c        ****         UART_IMU_Start();
 555:main.c        ****         LEDS_Write(LEDS_ON_GREEN);
 556:main.c        ****         /* Initialize variables */
 557:main.c        ****         packets_BUFFER_FULL_S packetBuffer;
 558:main.c        ****         packets_initialize(&packetBuffer);
 559:main.c        ****         uint32 error = packets_generateBuffers(&packetBuffer, packets_LEN_BLOCK_PACKET);
 560:main.c        ****         /* Ensure packet buffers were created properly */
 561:main.c        ****         if(error){
 562:main.c        ****             LEDS_Write(LEDS_ON_RED);
 563:main.c        ****             for(;;){}
 564:main.c        ****         }
 565:main.c        ****         /* Infinite loop */
 566:main.c        ****         for(;;){
 567:main.c        ****             uint32 data = UART_IMU_UartGetByte();
 568:main.c        ****             /* See if data is available */
 569:main.c        ****             if( !(data & UART_IMU_UART_RX_UNDERFLOW) ){
 570:main.c        ****                 /* Process packet byte, check if packet complete */
 571:main.c        ****                 uint32 err = packets_processRxByte(&packetBuffer, (uint8) data); 
 572:main.c        ****                 /* Inidicate errors */
 573:main.c        ****                 if(err){
 574:main.c        ****                     LEDS_G_Toggle();   
 575:main.c        ****                     /* Reset the receive packet */
 576:main.c        ****                     packets_flushRxBuffers(&packetBuffer);
 577:main.c        ****                 }
ARM GAS  C:\Users\ccheney\AppData\Local\Temp\cc3QIFu1.s 			page 12


 578:main.c        ****                 /* Check if complete */
 579:main.c        ****                 if(packetBuffer.receive.bufferState == packets_BUFFER_RECEIVE_COMPLETE) {
 580:main.c        ****                     LEDS_B_Toggle();
 581:main.c        ****                     /* Parse the packet */
 582:main.c        ****                     packets_parsePacket(&packetBuffer);
 583:main.c        ****                     packets_PACKET_S* rxPacket = &(packetBuffer.receive.packet);
 584:main.c        ****                     /* Clear the screen and print out the data */
 585:main.c        ****                     usbUart_print("\n\r\nModule: %x \r\nCommand: %x\r\nPayload Len: %x\r\n", rxPack
 586:main.c        ****                     usbUart_print("Payload:");
 587:main.c        ****                     uint8 i;
 588:main.c        ****                     for(i=ZERO; i< rxPacket->payloadLen; i++){
 589:main.c        ****                         usbUart_print(" %x", rxPacket->payload[i]);
 590:main.c        ****                     }
 591:main.c        ****                 }
 592:main.c        ****             }
 593:main.c        ****         }
 594:main.c        ****     /* End MICA_TEST_PACKETS */
 595:main.c        ****     #elif defined MICA_TEST_PACKETS_ISR
 596:main.c        ****         /* Receive a packet from the IMU Uart via an interrupt and print the result via the USB uar
 597:main.c        ****         /* Start the Components */
 598:main.c        ****         UART_USB_Start();
 599:main.c        ****         UART_IMU_Start();
 600:main.c        ****         LEDS_Write(LEDS_ON_GREEN);
 601:main.c        ****         /* Initialize variables */
 602:main.c        ****         packets_BUFFER_FULL_S packetBuffer;
 603:main.c        ****         packets_initialize(&packetBuffer);
 604:main.c        ****         uint32 error = packets_generateBuffers(&packetBuffer, packets_LEN_BLOCK_PACKET);
 605:main.c        ****         /* Ensure packet buffers were created properly */
 606:main.c        ****         if(error){
 607:main.c        ****             LEDS_Write(LEDS_ON_RED);
 608:main.c        ****             for(;;){}
 609:main.c        ****         }
 610:main.c        ****         /* Enable the uart interrupts */
 611:main.c        ****         UART_IMU_EnableInt();
 612:main.c        ****         UART_IMU_SetCustomInterruptHandler(ISR_imuUart);
 613:main.c        **** 
 614:main.c        ****         /* Infinite loop */
 615:main.c        ****         for(;;){
 616:main.c        ****             /* See if there are any pending bytes */
 617:main.c        ****             if(flag_pendingRxByte){
 618:main.c        ****                 /* Reset the flag */
 619:main.c        ****                 flag_pendingRxByte = false;
 620:main.c        ****                 /* Read in the byte */
 621:main.c        ****                 uint8 newData = imuUart_getChar();
 622:main.c        ****                 uint32 err = packets_processRxByte(&packetBuffer, newData);
 623:main.c        ****                 /* Inidicate errors */
 624:main.c        ****                 if(err){ 
 625:main.c        ****                     /* Reset the receive packet */
 626:main.c        ****                     packets_flushRxBuffers(&packetBuffer);
 627:main.c        ****                 }
 628:main.c        ****                 /* Check if complete */
 629:main.c        ****                 if(packetBuffer.receive.bufferState == packets_BUFFER_RECEIVE_COMPLETE) {
 630:main.c        ****                     LEDS_B_Toggle();
 631:main.c        ****                     /* Parse the packet */
 632:main.c        ****                     packets_parsePacket(&packetBuffer);
 633:main.c        ****                     packets_PACKET_S* rxPacket = &(packetBuffer.receive.packet);
 634:main.c        ****                     /* Clear the screen and print out the data */
ARM GAS  C:\Users\ccheney\AppData\Local\Temp\cc3QIFu1.s 			page 13


 635:main.c        ****                     usbUart_print("\n\r\nModule: %x \r\nCommand: %x\r\nPayload Len: %x\r\n", rxPack
 636:main.c        ****                     usbUart_print("Payload:");
 637:main.c        ****                     uint8 i;
 638:main.c        ****                     for(i=ZERO; i< rxPacket->payloadLen; i++){
 639:main.c        ****                         usbUart_print(" %x", rxPacket->payload[i]);
 640:main.c        ****                     }
 641:main.c        ****                 }
 642:main.c        ****             }
 643:main.c        ****         }
 644:main.c        ****     /* End MICA_TEST_PACKETS_ISR */
 645:main.c        ****     #elif defined MICA_TEST_PERIPHERAL_ID
 646:main.c        ****         /* Request the ID from the peripheral and display the results over USB */
 647:main.c        ****           /* Start the Components */
 648:main.c        ****         UART_USB_Start();
 649:main.c        ****         UART_IMU_Start();
 650:main.c        ****         LEDS_Write(LEDS_ON_GREEN);
 651:main.c        ****         /* Initialize variables */
 652:main.c        ****         packets_BUFFER_FULL_S packetBuffer;
 653:main.c        ****         packets_initialize(&packetBuffer);
 654:main.c        ****         uint32 error = packets_generateBuffers(&packetBuffer, packets_LEN_BLOCK_PACKET);
 655:main.c        ****         /* Ensure packet buffers were created properly */
 656:main.c        ****         if(error){
 657:main.c        ****             LEDS_Write(LEDS_ON_RED);
 658:main.c        ****             for(;;){}
 659:main.c        ****         }
 660:main.c        ****         /* Enable the uart interrupts */
 661:main.c        ****         UART_IMU_EnableInt();
 662:main.c        ****         UART_IMU_SetCustomInterruptHandler(ISR_imuUart);
 663:main.c        ****         UART_USB_EnableInt();
 664:main.c        ****         UART_USB_SetCustomInterruptHandler(ISR_usbUart);
 665:main.c        ****         
 666:main.c        ****         /* Print Program Header */
 667:main.c        ****         usbUart_clearScreen();
 668:main.c        ****         usbUart_printHeader(__TIME__, __DATE__, "      Peripheral Packet Test ");
 669:main.c        ****         usbUart_print("\r\nPress 'enter' to request the ID from the peripheral\r\n");
 670:main.c        ****         usbUart_print("Press 'c' to reset the LED to green\r\n");
 671:main.c        ****         usbUart_print("Press 'space' to reset the device\r\n\r\n");
 672:main.c        ****         
 673:main.c        ****         
 674:main.c        ****         /* Infinite loop */
 675:main.c        ****         for(;;){
 676:main.c        ****             /* See if there are any pending bytes */
 677:main.c        ****             if(flag_pendingRxByte){
 678:main.c        ****                 /* Reset the flag */
 679:main.c        ****                 flag_pendingRxByte = false;
 680:main.c        ****                 uint32_t bytesPending = UART_IMU_SpiUartGetRxBufferSize();
 681:main.c        ****                 usbUart_print("Bytes Received: %d\r\n" , bytesPending);
 682:main.c        ****                 /* Read in the data */
 683:main.c        ****                 uint32_t i;
 684:main.c        ****                 for(i = ZERO; i < bytesPending; i++){
 685:main.c        ****                     uint8 newData = imuUart_getChar();
 686:main.c        ****                     usbUart_print("rx:0x%x\r\n", newData);
 687:main.c        ****                     uint32 err = packets_processRxByte(&packetBuffer, newData);
 688:main.c        ****                     /* Inidicate errors */
 689:main.c        ****                     if(err){ 
 690:main.c        ****                         usbUart_print("err: 0x%x\r\n", err);
 691:main.c        ****                         /* Reset the receive packet */
ARM GAS  C:\Users\ccheney\AppData\Local\Temp\cc3QIFu1.s 			page 14


 692:main.c        ****                         packets_flushRxBuffers(&packetBuffer);
 693:main.c        ****                     }
 694:main.c        ****                     /* Check if packet is complete */
 695:main.c        ****                     if(packetBuffer.receive.bufferState == packets_BUFFER_RECEIVE_COMPLETE) {
 696:main.c        ****                         LEDS_Write(LEDS_ON_MAGENTA);
 697:main.c        ****                         /* Parse the packet */
 698:main.c        ****                         packets_parsePacket(&packetBuffer);
 699:main.c        ****                         /* Clear the screen and print out the data */
 700:main.c        ****                         packets_printPacket(&(packetBuffer.receive.packet), usbUart_print);
 701:main.c        ****                     }
 702:main.c        ****                 }
 703:main.c        ****             }
 704:main.c        ****             /* Wait for a usb key to be hit */
 705:main.c        ****             if(flag_pendingUsbByte){
 706:main.c        ****                 /* Reset flag */
 707:main.c        ****                 flag_pendingUsbByte = false;
 708:main.c        ****                 /* Read in the byte */
 709:main.c        ****                 uint8 usbData = usbUart_getChar();
 710:main.c        ****                 if(usbData == '\r'){
 711:main.c        ****                     usbUart_print("Requesting device ID..\r\n");   
 712:main.c        ****                     /* Initiate the request */
 713:main.c        ****                     packetBuffer.send.packet.cmd = packets_CMD_ID;
 714:main.c        ****                     uint32_t err = packets_sendPacket(&packetBuffer);
 715:main.c        ****                     if(!err){
 716:main.c        ****                         usbUart_print("Packet successfully sent, awaiting response\r\n");
 717:main.c        ****                     } else {
 718:main.c        ****                         usbUart_print("Packet failed to send with error 0x%x", err);   
 719:main.c        ****                     }
 720:main.c        ****                 } else if(usbData == 'c'){
 721:main.c        ****                     usbUart_print("Reset LEDs to green\r\n");
 722:main.c        ****                     LEDS_Write(LEDS_ON_GREEN);   
 723:main.c        ****                 } else if(usbData == ' '){
 724:main.c        ****                     /* Reset the device */
 725:main.c        ****                     CySoftwareReset();
 726:main.c        ****                 }
 727:main.c        ****             }
 728:main.c        ****         }
 729:main.c        ****     /* End MICA_TEST_PERIPHERAL_ID */
 730:main.c        ****     #elif defined MICA_TEST_SELF_PACKETS
 731:main.c        ****         /* REQ: Hard-wired RX & TX lines - Send packets to self for testing. Display the results ov
 732:main.c        ****         /* See hardware test MICA_DEBUG_SELF_UART */
 733:main.c        ****                   /* Start the Components */
 734:main.c        ****         UART_USB_Start();
  51              		.loc 1 734 0
  52 000c FFF7FEFF 		bl	UART_USB_Start
  53              	.LVL1:
 735:main.c        ****         UART_IMU_Start();
  54              		.loc 1 735 0
  55 0010 FFF7FEFF 		bl	UART_IMU_Start
  56              	.LVL2:
 736:main.c        ****         LEDS_Write(LEDS_ON_GREEN);
  57              		.loc 1 736 0
  58 0014 0220     		movs	r0, #2
  59 0016 FFF7FEFF 		bl	LEDS_Write
  60              	.LVL3:
 737:main.c        **** 
 738:main.c        ****         /* Print Program Header */
ARM GAS  C:\Users\ccheney\AppData\Local\Temp\cc3QIFu1.s 			page 15


 739:main.c        ****         usbUart_clearScreen();
  61              		.loc 1 739 0
  62 001a 4048     		ldr	r0, .L6+4
  63 001c FFF7FEFF 		bl	usbUart_print
  64              	.LVL4:
 740:main.c        ****         usbUart_printHeader(__TIME__, __DATE__, "      Self Packet Test ");
  65              		.loc 1 740 0
  66 0020 3F4A     		ldr	r2, .L6+8
  67 0022 4049     		ldr	r1, .L6+12
  68 0024 4048     		ldr	r0, .L6+16
  69 0026 FFF7FEFF 		bl	usbUart_printHeader
  70              	.LVL5:
 741:main.c        ****         usbUart_print("\r\nDevice imuUart RX & TX must be wired together\r\n");
  71              		.loc 1 741 0
  72 002a 4048     		ldr	r0, .L6+20
  73 002c FFF7FEFF 		bl	usbUart_print
  74              	.LVL6:
 742:main.c        ****         usbUart_print("Press 'space' to reset the device\r\n\r\n");
  75              		.loc 1 742 0
  76 0030 3F48     		ldr	r0, .L6+24
  77 0032 FFF7FEFF 		bl	usbUart_print
  78              	.LVL7:
  79              	.LBB2:
 743:main.c        ****         
 744:main.c        ****         
 745:main.c        ****         /* ### Self UART Test ### */
 746:main.c        ****         {
 747:main.c        ****             usbUart_print("\r\n*** Self UART Test ***\r\n");
  80              		.loc 1 747 0
  81 0036 3F48     		ldr	r0, .L6+28
  82 0038 FFF7FEFF 		bl	usbUart_print
  83              	.LVL8:
 748:main.c        ****             uint8_t data[255];
 749:main.c        ****             uint8_t i;
 750:main.c        ****             for(i = ZERO; i<255; i++){
  84              		.loc 1 750 0
  85 003c 0023     		movs	r3, #0
  86 003e 03E0     		b	.L2
  87              	.LVL9:
  88              	.L3:
 751:main.c        ****                 data[i] = i;   
  89              		.loc 1 751 0 discriminator 3
  90 0040 04AA     		add	r2, sp, #16
  91 0042 D354     		strb	r3, [r2, r3]
 750:main.c        ****                 data[i] = i;   
  92              		.loc 1 750 0 discriminator 3
  93 0044 0133     		adds	r3, r3, #1
  94              	.LVL10:
  95 0046 DBB2     		uxtb	r3, r3
  96              	.LVL11:
  97              	.L2:
 750:main.c        ****                 data[i] = i;   
  98              		.loc 1 750 0 is_stmt 0 discriminator 1
  99 0048 FF2B     		cmp	r3, #255
 100 004a F9D1     		bne	.L3
 752:main.c        ****             }
 753:main.c        ****             /* Run a single byte; */
ARM GAS  C:\Users\ccheney\AppData\Local\Temp\cc3QIFu1.s 			page 16


 754:main.c        ****             testRunner_run(test_uartSelf("1 Byte", data, 1));
 101              		.loc 1 754 0 is_stmt 1
 102 004c 0122     		movs	r2, #1
 103 004e 04A9     		add	r1, sp, #16
 104 0050 3948     		ldr	r0, .L6+32
 105 0052 FFF7FEFF 		bl	test_uartSelf
 106              	.LVL12:
 107 0056 FFF7FEFF 		bl	testRunner_run
 108              	.LVL13:
 755:main.c        ****             testRunner_run(test_uartSelf("8 Bytes", data, 8));
 109              		.loc 1 755 0
 110 005a 0822     		movs	r2, #8
 111 005c 04A9     		add	r1, sp, #16
 112 005e 3748     		ldr	r0, .L6+36
 113 0060 FFF7FEFF 		bl	test_uartSelf
 114              	.LVL14:
 115 0064 FFF7FEFF 		bl	testRunner_run
 116              	.LVL15:
 756:main.c        ****             testRunner_run(test_uartSelf("64 Bytes", data, 64));
 117              		.loc 1 756 0
 118 0068 4022     		movs	r2, #64
 119 006a 04A9     		add	r1, sp, #16
 120 006c 3448     		ldr	r0, .L6+40
 121 006e FFF7FEFF 		bl	test_uartSelf
 122              	.LVL16:
 123 0072 FFF7FEFF 		bl	testRunner_run
 124              	.LVL17:
 757:main.c        ****             testRunner_run(test_uartSelf("packets_LEN_BLOCK_PACKET", data, packets_LEN_BLOCK_PACKET
 125              		.loc 1 757 0
 126 0076 8922     		movs	r2, #137
 127 0078 04A9     		add	r1, sp, #16
 128 007a 3248     		ldr	r0, .L6+44
 129 007c FFF7FEFF 		bl	test_uartSelf
 130              	.LVL18:
 131 0080 FFF7FEFF 		bl	testRunner_run
 132              	.LVL19:
 133              	.LBE2:
 134              	.LBB3:
 758:main.c        ****             
 759:main.c        ****         }
 760:main.c        ****         
 761:main.c        ****         /* ### Send Packet Test ### */
 762:main.c        ****         {
 763:main.c        ****             usbUart_print("\r\n*** Send Packet Test ***\r\n");
 135              		.loc 1 763 0
 136 0084 3048     		ldr	r0, .L6+48
 137 0086 FFF7FEFF 		bl	usbUart_print
 138              	.LVL20:
 764:main.c        ****             /* Setup - Create a packet object and initialize */
 765:main.c        ****             packets_BUFFER_FULL_S packetBuffer;
 766:main.c        ****             packets_initialize(&packetBuffer);
 139              		.loc 1 766 0
 140 008a 04A8     		add	r0, sp, #16
 141 008c FFF7FEFF 		bl	packets_initialize
 142              	.LVL21:
 767:main.c        ****             packets_generateBuffers(&packetBuffer, packets_LEN_BLOCK_PACKET);
 143              		.loc 1 767 0
ARM GAS  C:\Users\ccheney\AppData\Local\Temp\cc3QIFu1.s 			page 17


 144 0090 8921     		movs	r1, #137
 145 0092 04A8     		add	r0, sp, #16
 146 0094 FFF7FEFF 		bl	packets_generateBuffers
 147              	.LVL22:
 768:main.c        ****             /* Local Variables */
 769:main.c        ****             packets_PACKET_S* txPacket = &(packetBuffer.send.packet);
 770:main.c        ****             
 771:main.c        ****             /* Blank packet */
 772:main.c        ****             testRunner_run(test_selfPacketParsing(&packetBuffer, "UnInitialized Packet"));
 148              		.loc 1 772 0
 149 0098 2C49     		ldr	r1, .L6+52
 150 009a 04A8     		add	r0, sp, #16
 151              	.LVL23:
 152 009c FFF7FEFF 		bl	test_selfPacketParsing
 153              	.LVL24:
 154 00a0 FFF7FEFF 		bl	testRunner_run
 155              	.LVL25:
 773:main.c        ****             /* None zero packet */
 774:main.c        ****             txPacket->cmd = 0x01;
 156              		.loc 1 774 0
 157 00a4 04AD     		add	r5, sp, #16
 158              	.LVL26:
 159 00a6 0126     		movs	r6, #1
 160 00a8 6E70     		strb	r6, [r5, #1]
 775:main.c        ****             testRunner_run(test_selfPacketParsing(&packetBuffer, "New command"));
 161              		.loc 1 775 0
 162 00aa 2949     		ldr	r1, .L6+56
 163 00ac 2800     		movs	r0, r5
 164 00ae FFF7FEFF 		bl	test_selfPacketParsing
 165              	.LVL27:
 166 00b2 FFF7FEFF 		bl	testRunner_run
 167              	.LVL28:
 776:main.c        ****             /* With Payload */
 777:main.c        ****             txPacket->cmd = 0x01;
 168              		.loc 1 777 0
 169 00b6 6E70     		strb	r6, [r5, #1]
 778:main.c        ****             uint8_t data[10] = {0x01, 0xff, 0xCC, 0xDD, 0x3E};
 170              		.loc 1 778 0
 171 00b8 01AC     		add	r4, sp, #4
 172 00ba 0A22     		movs	r2, #10
 173 00bc 0021     		movs	r1, #0
 174 00be 2000     		movs	r0, r4
 175 00c0 FFF7FEFF 		bl	memset
 176              	.LVL29:
 177 00c4 2670     		strb	r6, [r4]
 178 00c6 FF23     		movs	r3, #255
 179 00c8 6370     		strb	r3, [r4, #1]
 180 00ca 333B     		subs	r3, r3, #51
 181 00cc A370     		strb	r3, [r4, #2]
 182 00ce 1133     		adds	r3, r3, #17
 183 00d0 E370     		strb	r3, [r4, #3]
 184 00d2 9F3B     		subs	r3, r3, #159
 185 00d4 2371     		strb	r3, [r4, #4]
 779:main.c        ****             txPacket->payloadLen = 5;
 186              		.loc 1 779 0
 187 00d6 393B     		subs	r3, r3, #57
 188 00d8 6B81     		strh	r3, [r5, #10]
ARM GAS  C:\Users\ccheney\AppData\Local\Temp\cc3QIFu1.s 			page 18


 780:main.c        ****             memcpy(txPacket->payload, data, txPacket->payloadLen);
 189              		.loc 1 780 0
 190 00da 6868     		ldr	r0, [r5, #4]
 191 00dc 0522     		movs	r2, #5
 192 00de 01A9     		add	r1, sp, #4
 193 00e0 FFF7FEFF 		bl	memcpy
 194              	.LVL30:
 781:main.c        ****             testRunner_run(test_selfPacketParsing(&packetBuffer, "Payload"));
 195              		.loc 1 781 0
 196 00e4 1B49     		ldr	r1, .L6+60
 197 00e6 04A8     		add	r0, sp, #16
 198 00e8 FFF7FEFF 		bl	test_selfPacketParsing
 199              	.LVL31:
 200 00ec FFF7FEFF 		bl	testRunner_run
 201              	.LVL32:
 782:main.c        ****             
 783:main.c        ****             packets_destoryBuffers(&packetBuffer);
 202              		.loc 1 783 0
 203 00f0 04A8     		add	r0, sp, #16
 204 00f2 FFF7FEFF 		bl	packets_destoryBuffers
 205              	.LVL33:
 206              	.LBE3:
 784:main.c        ****             
 785:main.c        ****         }
 786:main.c        ****         
 787:main.c        ****         /* ### Respond Packet Test ### */
 788:main.c        ****         {
 789:main.c        ****             usbUart_print("\r\n***  Respond Packet Test ***\r\n");
 207              		.loc 1 789 0
 208 00f6 1848     		ldr	r0, .L6+64
 209 00f8 FFF7FEFF 		bl	usbUart_print
 210              	.LVL34:
 790:main.c        ****             testRunner_printResults("Self Respond", true, true, "@TODO Implement");
 211              		.loc 1 790 0
 212 00fc 174B     		ldr	r3, .L6+68
 213 00fe 0122     		movs	r2, #1
 214 0100 0121     		movs	r1, #1
 215 0102 1748     		ldr	r0, .L6+72
 216 0104 FFF7FEFF 		bl	testRunner_printResults
 217              	.LVL35:
 218              	.L4:
 219              	.LBB4:
 791:main.c        ****             
 792:main.c        ****         }
 793:main.c        ****         
 794:main.c        **** 
 795:main.c        ****         /* Infinite loop */
 796:main.c        ****         for(;;){
 797:main.c        **** 
 798:main.c        ****             /* Read in the byte */
 799:main.c        ****             uint8 usbData = usbUart_getChar();  
 220              		.loc 1 799 0
 221 0108 FFF7FEFF 		bl	UART_USB_UartGetChar
 222              	.LVL36:
 223 010c C0B2     		uxtb	r0, r0
 224              	.LVL37:
 800:main.c        ****             if(usbData == ' '){
ARM GAS  C:\Users\ccheney\AppData\Local\Temp\cc3QIFu1.s 			page 19


 225              		.loc 1 800 0
 226 010e 2028     		cmp	r0, #32
 227 0110 FAD1     		bne	.L4
 801:main.c        ****                 /* Reset the device */
 802:main.c        ****                 CySoftwareReset();
 228              		.loc 1 802 0
 229 0112 FFF7FEFF 		bl	CySoftwareReset
 230              	.LVL38:
 231 0116 F7E7     		b	.L4
 232              	.L7:
 233              		.align	2
 234              	.L6:
 235 0118 00000000 		.word	usbUart_print
 236 011c 00000000 		.word	.LC1
 237 0120 0C000000 		.word	.LC3
 238 0124 24000000 		.word	.LC5
 239 0128 30000000 		.word	.LC7
 240 012c 3C000000 		.word	.LC9
 241 0130 70000000 		.word	.LC11
 242 0134 98000000 		.word	.LC13
 243 0138 B4000000 		.word	.LC15
 244 013c BC000000 		.word	.LC17
 245 0140 C4000000 		.word	.LC19
 246 0144 D0000000 		.word	.LC21
 247 0148 EC000000 		.word	.LC23
 248 014c 0C010000 		.word	.LC25
 249 0150 24010000 		.word	.LC27
 250 0154 30010000 		.word	.LC29
 251 0158 38010000 		.word	.LC31
 252 015c 5C010000 		.word	.LC33
 253 0160 6C010000 		.word	.LC35
 254              	.LBE4:
 255              		.cfi_endproc
 256              	.LFE36:
 257              		.size	main, .-main
 258              		.section	.text.ISR_imuUart,"ax",%progbits
 259              		.align	2
 260              		.global	ISR_imuUart
 261              		.code	16
 262              		.thumb_func
 263              		.type	ISR_imuUart, %function
 264              	ISR_imuUart:
 265              	.LFB37:
 803:main.c        ****             }
 804:main.c        ****         }
 805:main.c        ****     /* End MICA_TEST_SELF_PACKETS */
 806:main.c        ****     #else 
 807:main.c        ****         #error "At least ONE MICA_TEST_<case> must be defined if MICA_TEST is defined"
 808:main.c        ****     #endif
 809:main.c        ****     #if defined(MICA_DEBUG) && defined(MICA_TEST)
 810:main.c        ****         #error "MICA_DEBUG and MICA_TEST may not be defined at the same time"
 811:main.c        ****     #endif
 812:main.c        **** #endif /* MICA_TEST */
 813:main.c        **** /* %%%%%%%%%%%%%%%%%%  End Debugging & Testing  %%%%%%%%%%%%%%%%%% */
 814:main.c        ****     
 815:main.c        ****     /* Fall through Infinite Loop */
 816:main.c        ****     for(;;){ }
ARM GAS  C:\Users\ccheney\AppData\Local\Temp\cc3QIFu1.s 			page 20


 817:main.c        **** } /* End main */
 818:main.c        **** 
 819:main.c        **** /*******************************************************************************
 820:main.c        **** * ISR Name: ISR_imuUart()
 821:main.c        **** ********************************************************************************
 822:main.c        **** * Summary:
 823:main.c        **** *   ISR when data is received over the imu UART. Clearing this interrupt is 
 824:main.c        **** *   not required, as it is a level sensitive interrupt.
 825:main.c        **** * Interrupt: 
 826:main.c        **** *       Internal to UART_IMU
 827:main.c        **** *
 828:main.c        **** *******************************************************************************/
 829:main.c        **** void ISR_imuUart(void){
 266              		.loc 1 829 0
 267              		.cfi_startproc
 268              		@ args = 0, pretend = 0, frame = 0
 269              		@ frame_needed = 0, uses_anonymous_args = 0
 270              		@ link register save eliminated.
 830:main.c        ****     /* Check if new data is available */
 831:main.c        ****     if( UART_IMU_GetRxInterruptSourceMasked() & UART_IMU_INTR_RX_NOT_EMPTY){
 271              		.loc 1 831 0
 272 0000 034B     		ldr	r3, .L10
 273 0002 1B68     		ldr	r3, [r3]
 274 0004 5B07     		lsls	r3, r3, #29
 275 0006 02D5     		bpl	.L8
 832:main.c        ****         flag_pendingRxByte = true;
 276              		.loc 1 832 0
 277 0008 0122     		movs	r2, #1
 278 000a 024B     		ldr	r3, .L10+4
 279 000c 1A70     		strb	r2, [r3]
 280              	.L8:
 833:main.c        ****     }
 834:main.c        **** }
 281              		.loc 1 834 0
 282              		@ sp needed
 283 000e 7047     		bx	lr
 284              	.L11:
 285              		.align	2
 286              	.L10:
 287 0010 CC0F2440 		.word	1076105164
 288 0014 00000000 		.word	.LANCHOR0
 289              		.cfi_endproc
 290              	.LFE37:
 291              		.size	ISR_imuUart, .-ISR_imuUart
 292              		.section	.text.ISR_usbUart,"ax",%progbits
 293              		.align	2
 294              		.global	ISR_usbUart
 295              		.code	16
 296              		.thumb_func
 297              		.type	ISR_usbUart, %function
 298              	ISR_usbUart:
 299              	.LFB38:
 835:main.c        **** 
 836:main.c        **** /*******************************************************************************
 837:main.c        **** * ISR Name: ISR_usbUart()
 838:main.c        **** ********************************************************************************
 839:main.c        **** * Summary:
ARM GAS  C:\Users\ccheney\AppData\Local\Temp\cc3QIFu1.s 			page 21


 840:main.c        **** *   ISR when data is received over the usb UARTClearing this interrupt is 
 841:main.c        **** *   not required, as it is a level sensitive interrupt.
 842:main.c        **** * Interrupt: 
 843:main.c        **** *       Internal to UART_USB
 844:main.c        **** *
 845:main.c        **** *******************************************************************************/
 846:main.c        **** void ISR_usbUart(void){
 300              		.loc 1 846 0
 301              		.cfi_startproc
 302              		@ args = 0, pretend = 0, frame = 0
 303              		@ frame_needed = 0, uses_anonymous_args = 0
 304              		@ link register save eliminated.
 847:main.c        ****     /* Check if new data is available */
 848:main.c        ****     if( UART_USB_GetRxInterruptSourceMasked() & UART_USB_INTR_RX_NOT_EMPTY){
 305              		.loc 1 848 0
 306 0000 034B     		ldr	r3, .L14
 307 0002 1B68     		ldr	r3, [r3]
 308 0004 5B07     		lsls	r3, r3, #29
 309 0006 02D5     		bpl	.L12
 849:main.c        ****         flag_pendingUsbByte = true;
 310              		.loc 1 849 0
 311 0008 0122     		movs	r2, #1
 312 000a 024B     		ldr	r3, .L14+4
 313 000c 5A70     		strb	r2, [r3, #1]
 314              	.L12:
 850:main.c        ****     }
 851:main.c        **** }
 315              		.loc 1 851 0
 316              		@ sp needed
 317 000e 7047     		bx	lr
 318              	.L15:
 319              		.align	2
 320              	.L14:
 321 0010 CC0F2540 		.word	1076170700
 322 0014 00000000 		.word	.LANCHOR0
 323              		.cfi_endproc
 324              	.LFE38:
 325              		.size	ISR_usbUart, .-ISR_usbUart
 326              		.global	isrErr
 327              		.global	timerExpired
 328              		.global	flag_pendingUsbByte
 329              		.global	flag_pendingRxByte
 330              		.section	.rodata.str1.4,"aMS",%progbits,1
 331              		.align	2
 332              	.LC1:
 333 0000 1B5B324A 		.ascii	"\033[2J\033[1;1H\000"
 333      1B5B313B 
 333      314800
 334 000b 00       		.space	1
 335              	.LC3:
 336 000c 20202020 		.ascii	"      Self Packet Test \000"
 336      20205365 
 336      6C662050 
 336      61636B65 
 336      74205465 
 337              	.LC5:
 338 0024 4F637420 		.ascii	"Oct  3 2018\000"
ARM GAS  C:\Users\ccheney\AppData\Local\Temp\cc3QIFu1.s 			page 22


 338      20332032 
 338      30313800 
 339              	.LC7:
 340 0030 30313A32 		.ascii	"01:20:35\000"
 340      303A3335 
 340      00
 341 0039 000000   		.space	3
 342              	.LC9:
 343 003c 0D0A4465 		.ascii	"\015\012Device imuUart RX & TX must be wired togeth"
 343      76696365 
 343      20696D75 
 343      55617274 
 343      20525820 
 344 0069 65720D0A 		.ascii	"er\015\012\000"
 344      00
 345 006e 0000     		.space	2
 346              	.LC11:
 347 0070 50726573 		.ascii	"Press 'space' to reset the device\015\012\015\012\000"
 347      73202773 
 347      70616365 
 347      2720746F 
 347      20726573 
 348 0096 0000     		.space	2
 349              	.LC13:
 350 0098 0D0A2A2A 		.ascii	"\015\012*** Self UART Test ***\015\012\000"
 350      2A205365 
 350      6C662055 
 350      41525420 
 350      54657374 
 351 00b3 00       		.space	1
 352              	.LC15:
 353 00b4 31204279 		.ascii	"1 Byte\000"
 353      746500
 354 00bb 00       		.space	1
 355              	.LC17:
 356 00bc 38204279 		.ascii	"8 Bytes\000"
 356      74657300 
 357              	.LC19:
 358 00c4 36342042 		.ascii	"64 Bytes\000"
 358      79746573 
 358      00
 359 00cd 000000   		.space	3
 360              	.LC21:
 361 00d0 7061636B 		.ascii	"packets_LEN_BLOCK_PACKET\000"
 361      6574735F 
 361      4C454E5F 
 361      424C4F43 
 361      4B5F5041 
 362 00e9 000000   		.space	3
 363              	.LC23:
 364 00ec 0D0A2A2A 		.ascii	"\015\012*** Send Packet Test ***\015\012\000"
 364      2A205365 
 364      6E642050 
 364      61636B65 
 364      74205465 
 365 0109 000000   		.space	3
 366              	.LC25:
ARM GAS  C:\Users\ccheney\AppData\Local\Temp\cc3QIFu1.s 			page 23


 367 010c 556E496E 		.ascii	"UnInitialized Packet\000"
 367      69746961 
 367      6C697A65 
 367      64205061 
 367      636B6574 
 368 0121 000000   		.space	3
 369              	.LC27:
 370 0124 4E657720 		.ascii	"New command\000"
 370      636F6D6D 
 370      616E6400 
 371              	.LC29:
 372 0130 5061796C 		.ascii	"Payload\000"
 372      6F616400 
 373              	.LC31:
 374 0138 0D0A2A2A 		.ascii	"\015\012***  Respond Packet Test ***\015\012\000"
 374      2A202052 
 374      6573706F 
 374      6E642050 
 374      61636B65 
 375 0159 000000   		.space	3
 376              	.LC33:
 377 015c 40544F44 		.ascii	"@TODO Implement\000"
 377      4F20496D 
 377      706C656D 
 377      656E7400 
 378              	.LC35:
 379 016c 53656C66 		.ascii	"Self Respond\000"
 379      20526573 
 379      706F6E64 
 379      00
 380              		.bss
 381              		.align	2
 382              		.set	.LANCHOR0,. + 0
 383              		.type	flag_pendingRxByte, %object
 384              		.size	flag_pendingRxByte, 1
 385              	flag_pendingRxByte:
 386 0000 00       		.space	1
 387              		.type	flag_pendingUsbByte, %object
 388              		.size	flag_pendingUsbByte, 1
 389              	flag_pendingUsbByte:
 390 0001 00       		.space	1
 391 0002 0000     		.space	2
 392              		.type	isrErr, %object
 393              		.size	isrErr, 4
 394              	isrErr:
 395 0004 00000000 		.space	4
 396              		.type	timerExpired, %object
 397              		.size	timerExpired, 1
 398              	timerExpired:
 399 0008 00       		.space	1
 400              		.text
 401              	.Letext0:
 402              		.file 2 "c:\\program files (x86)\\cypress\\psoc creator\\4.2\\psoc creator\\import\\gnu\\arm\\5.4.
 403              		.file 3 "c:\\program files (x86)\\cypress\\psoc creator\\4.2\\psoc creator\\import\\gnu\\arm\\5.4.
 404              		.file 4 "Generated_Source\\PSoC4/cytypes.h"
 405              		.file 5 "Generated_Source\\PSoC4/packets.h"
 406              		.file 6 "Generated_Source\\PSoC4/usbUart.h"
ARM GAS  C:\Users\ccheney\AppData\Local\Temp\cc3QIFu1.s 			page 24


 407              		.file 7 "packet_testing.h"
 408              		.file 8 "Generated_Source\\PSoC4/testRunner.h"
 409              		.file 9 "Generated_Source\\PSoC4/UART_USB_SPI_UART.h"
 410              		.file 10 "Generated_Source\\PSoC4/CyLib.h"
 411              		.file 11 "Generated_Source\\PSoC4/UART_USB.h"
 412              		.file 12 "Generated_Source\\PSoC4/UART_IMU.h"
 413              		.file 13 "Generated_Source\\PSoC4/LEDS.h"