ARM GAS  C:\Users\ccheney\AppData\Local\Temp\ccOO3kAb.s 			page 1


   1              		.syntax unified
   2              		.cpu cortex-m0
   3              		.fpu softvfp
   4              		.eabi_attribute 20, 1
   5              		.eabi_attribute 21, 1
   6              		.eabi_attribute 23, 3
   7              		.eabi_attribute 24, 1
   8              		.eabi_attribute 25, 1
   9              		.eabi_attribute 26, 1
  10              		.eabi_attribute 30, 1
  11              		.eabi_attribute 34, 0
  12              		.eabi_attribute 18, 4
  13              		.thumb
  14              		.syntax unified
  15              		.file	"main.c"
  16              		.text
  17              	.Ltext0:
  18              		.cfi_sections	.debug_frame
  19              		.section	.text.main,"ax",%progbits
  20              		.align	2
  21              		.global	main
  22              		.code	16
  23              		.thumb_func
  24              		.type	main, %function
  25              	main:
  26              	.LFB36:
  27              		.file 1 "main.c"
   1:main.c        **** /***************************************************************************
   2:main.c        **** *                                 MICA  © 2018
   3:main.c        **** *                           MIT BioInstrumentation Lab
   4:main.c        **** *
   5:main.c        **** * File: main.c
   6:main.c        **** * Workspace: DriveBot_v5
   7:main.c        **** * Project: DriveBot_v5.1
   8:main.c        **** * Version: v5.1.0
   9:main.c        **** * Authors: Craig Cheney, Scott McCuen
  10:main.c        **** * 
  11:main.c        **** * PCB: DriveBot MCU v5.1.0
  12:main.c        **** * PSoC: CY8C4245LQI-483
  13:main.c        **** *
  14:main.c        **** * Brief:
  15:main.c        **** *   This is the top-level application file for the DriveBot microcontoller. It
  16:main.c        **** *   is responsible for receiving commands from the IMU Cube over the UART, and 
  17:main.c        **** *   controlling the Drivebot based on these commands. It outputs the velocity
  18:main.c        **** *   data to IMU, which streams it to the host device. 
  19:main.c        **** * 
  20:main.c        **** * 2018.07.25 CC - Abstract out "boardTesting.c"
  21:main.c        **** * 2018.04.10 CC - Upgrade to v5. Switch to MICA Creator components from libMica
  22:main.c        **** * 2017.08.25 CC - Add libMica
  23:main.c        **** * 2017.08.13 SM - Add motor debugging
  24:main.c        **** * 2017.08.11 CC - Document Created
  25:main.c        **** ********************************************************************************/
  26:main.c        **** #include "project.h"
  27:main.c        **** #include <stdbool.h>
  28:main.c        **** #include <stdio.h>
  29:main.c        **** #include "packet_testing.h"
  30:main.c        **** #include "testRunner.h"
ARM GAS  C:\Users\ccheney\AppData\Local\Temp\ccOO3kAb.s 			page 2


  31:main.c        **** #include "supportCubeParser.h"
  32:main.c        **** 
  33:main.c        **** /*  -------------- DEBUGGING --------------
  34:main.c        **** * Uncomment MICA_DEBUG to enable general debugging.
  35:main.c        **** * Uncomment MICA_DEBUG_<case> below to
  36:main.c        **** * enable ONE of the debug levels.
  37:main.c        **** */
  38:main.c        **** //#define MICA_DEBUG
  39:main.c        **** 
  40:main.c        **** /* -------------- DEBUG CASE --------------
  41:main.c        **** * Uncomment ONE of the following
  42:main.c        **** * Debugging will only occur when MICA_DEBUG is defined
  43:main.c        **** */
  44:main.c        **** #ifdef MICA_DEBUG
  45:main.c        **** //    #define MICA_DEBUG_LEDS         /* Test the onboard LEDs */
  46:main.c        ****     #define MICA_DEBUG_SELF_UART    /* Checks to see if the mica UART RX & TX lines are shorted tog
  47:main.c        **** #endif
  48:main.c        **** 
  49:main.c        **** /* -------------- END DEBUG CASE --------------  */
  50:main.c        **** 
  51:main.c        **** /*  -------------- Testing --------------
  52:main.c        **** * Uncomment MICA_TEST to enable specific tests.
  53:main.c        **** * Uncomment MICA_TEST_<case> below to
  54:main.c        **** * enable ONE of the test levels. */
  55:main.c        **** 
  56:main.c        **** #define MICA_TEST
  57:main.c        **** 
  58:main.c        **** /* -------------- TEST LEVEL --------------
  59:main.c        **** * Uncomment ONE of the following
  60:main.c        **** * Testing will only occur when MICA_TEST is defined
  61:main.c        **** */
  62:main.c        **** #ifdef MICA_TEST
  63:main.c        ****     #define MICA_TEST_PACKETS_ERRORS       /* Test various error on packts */
  64:main.c        **** //    #define MICA_TEST_PACKETS           /* Test Packet communication */
  65:main.c        **** //    #define MICA_TEST_PACKETS_ISR        /* Receive packets from IMU via interrupt and print resu
  66:main.c        **** //    #define MICA_TEST_PERIPHERAL_ID         /* Request the ID from the peripheral and display the
  67:main.c        **** //    #define MICA_TEST_SELF_PACKETS         /* REQ: Hard-wired RX & TX lines - Send packets to sel
  68:main.c        ****     
  69:main.c        **** #endif
  70:main.c        **** /* -------------- END TEST LEVEL --------------  */
  71:main.c        **** 
  72:main.c        **** /* --------- Local Variables --------- */
  73:main.c        **** 
  74:main.c        **** void ISR_imuUart(void);
  75:main.c        **** void ISR_usbUart(void);
  76:main.c        **** void ISR_Timer(void);
  77:main.c        **** /* State variables */
  78:main.c        **** volatile bool flag_pendingRxByte = false;
  79:main.c        **** volatile bool flag_pendingUsbByte = false;
  80:main.c        **** volatile bool timerExpired = false;
  81:main.c        **** volatile uint32_t isrErr = ZERO;
  82:main.c        **** /*******************************************************************************
  83:main.c        **** * Function Name: main()
  84:main.c        **** ********************************************************************************
  85:main.c        **** * Summary:
  86:main.c        **** *   The top-level application function for the project.
  87:main.c        **** *
ARM GAS  C:\Users\ccheney\AppData\Local\Temp\ccOO3kAb.s 			page 3


  88:main.c        **** * Parameters:
  89:main.c        **** *   None
  90:main.c        **** *
  91:main.c        **** * Return:
  92:main.c        **** *   None
  93:main.c        **** *
  94:main.c        **** *******************************************************************************/
  95:main.c        **** int main(void) {
  28              		.loc 1 95 0
  29              		.cfi_startproc
  30              		@ args = 0, pretend = 0, frame = 360
  31              		@ frame_needed = 0, uses_anonymous_args = 0
  32 0000 F0B5     		push	{r4, r5, r6, r7, lr}
  33              		.cfi_def_cfa_offset 20
  34              		.cfi_offset 4, -20
  35              		.cfi_offset 5, -16
  36              		.cfi_offset 6, -12
  37              		.cfi_offset 7, -8
  38              		.cfi_offset 14, -4
  39 0002 5F46     		mov	r7, fp
  40 0004 5646     		mov	r6, r10
  41 0006 4D46     		mov	r5, r9
  42 0008 4446     		mov	r4, r8
  43 000a F0B4     		push	{r4, r5, r6, r7}
  44              		.cfi_def_cfa_offset 36
  45              		.cfi_offset 8, -36
  46              		.cfi_offset 9, -32
  47              		.cfi_offset 10, -28
  48              		.cfi_offset 11, -24
  49 000c DDB0     		sub	sp, sp, #372
  50              		.cfi_def_cfa_offset 408
  96:main.c        **** 
  97:main.c        **** 
  98:main.c        ****     /* Enable global interrupts */
  99:main.c        ****     CyGlobalIntEnable;
  51              		.loc 1 99 0
  52              		.syntax divided
  53              	@ 99 "main.c" 1
  54 000e 62B6     		CPSIE   i
  55              	@ 0 "" 2
 100:main.c        ****     
 101:main.c        **** /* %%%%%%%%%%%%%%%%%% Begin Debugging %%%%%%%%%%%%%%%%%% */
 102:main.c        **** #ifdef MICA_DEBUG
 103:main.c        ****     #warning "MICA_DEBUG is enabled"
 104:main.c        ****     /* Enable global interrupts. */
 105:main.c        ****     CyGlobalIntEnable; 
 106:main.c        ****     #ifdef MICA_DEBUG_LEDS
 107:main.c        ****         /* Test the onboard LEDs
 108:main.c        ****         Expeted outcome: 
 109:main.c        ****         0. All LEDs off
 110:main.c        ****         1. Red LED on
 111:main.c        ****         2. Green LED on
 112:main.c        ****         3. Blue LED on
 113:main.c        ****         4. Yellow (RB)
 114:main.c        ****         5. Cyan (BG)
 115:main.c        ****         6. Magenta (RG)
 116:main.c        ****         7. White (RGB) LEDs on
ARM GAS  C:\Users\ccheney\AppData\Local\Temp\ccOO3kAb.s 			page 4


 117:main.c        ****         */
 118:main.c        ****         /* Infinite loop */
 119:main.c        ****         LEDS_Test(MICA_TEST_INFINITE);
 120:main.c        ****     /* End MICA_DEBUG_LEDS */
 121:main.c        ****     #elif defined MICA_DEBUG_SELF_UART
 122:main.c        ****          /* Checks to see if the mica UART RX & TX lines are shorted together */
 123:main.c        ****         /* Expected outcome:
 124:main.c        ****         0. Green LED on
 125:main.c        ****         1. UART writes a byte out the TX line
 126:main.c        ****         2. UART reads in byte from RX line
 127:main.c        ****         3a. If data is available and matches sent B led toggle
 128:main.c        ****         3b. If data does not match toggle R led  
 129:main.c        ****         */
 130:main.c        ****         UART_IMU_Start();
 131:main.c        ****         LEDS_Write(LEDS_ON_GREEN);
 132:main.c        ****         MICA_delayMs(MICA_DELAY_MS_SEC_ONE);
 133:main.c        ****         LEDS_Write(LEDS_ON_NONE);
 134:main.c        ****         uint8_t i = ZERO;
 135:main.c        ****         /* Infinite loop */
 136:main.c        ****         for(;;){
 137:main.c        ****             /* Write a byte out over the UART */
 138:main.c        ****             imuUart_putChar(i);
 139:main.c        ****             MICA_delayMs(ONE);
 140:main.c        ****             /* Variables for debugger */
 141:main.c        ****             volatile uint8 bytesPending = UART_IMU_SpiUartGetRxBufferSize();
 142:main.c        ****             volatile uint8_t byte = imuUart_getChar();
 143:main.c        ****             /* Expect one byte in the RX buffer */
 144:main.c        ****             if(bytesPending == ONE && byte == i++){
 145:main.c        ****                 LEDS_B_Toggle();
 146:main.c        ****             } else {
 147:main.c        ****                 LEDS_R_Toggle();   
 148:main.c        ****             }
 149:main.c        ****             MICA_delayMs(MICA_DELAY_MS_SEC_ONE);
 150:main.c        ****         }
 151:main.c        ****     /* End MICA_DEBUG_SELF_UART */
 152:main.c        ****     #else
 153:main.c        ****         #error "At least ONE MICA_DEBUG_<case> must be defined if MICA_DEBUG is defined"
 154:main.c        ****     #endif /* End MICA_DEBUG_<case> */
 155:main.c        ****     /* Infinite loop */
 156:main.c        ****     for(;;){}
 157:main.c        **** #endif /* MICA_DEBUG */
 158:main.c        **** #ifdef MICA_TEST
 159:main.c        ****         testRunner_setPrintFunction(usbUart_print);
  56              		.loc 1 159 0
  57              		.thumb
  58              		.syntax unified
  59 0010 FE48     		ldr	r0, .L4
  60 0012 FFF7FEFF 		bl	testRunner_setPrintFunction
  61              	.LVL0:
 160:main.c        ****     /* end MICA_TEST_PACKET_SPAWN */
 161:main.c        ****         #if defined MICA_TEST_PACKETS_ERRORS
 162:main.c        ****         /* Unit tests for MICA Errors */
 163:main.c        ****         LEDS_Write(LEDS_ON_GREEN);
  62              		.loc 1 163 0
  63 0016 0220     		movs	r0, #2
  64 0018 FFF7FEFF 		bl	LEDS_Write
  65              	.LVL1:
ARM GAS  C:\Users\ccheney\AppData\Local\Temp\ccOO3kAb.s 			page 5


 164:main.c        ****         UART_USB_Start();
  66              		.loc 1 164 0
  67 001c FFF7FEFF 		bl	UART_USB_Start
  68              	.LVL2:
 165:main.c        ****         UART_IMU_Start();
  69              		.loc 1 165 0
  70 0020 FFF7FEFF 		bl	UART_IMU_Start
  71              	.LVL3:
 166:main.c        ****         usbUart_clearScreen();
  72              		.loc 1 166 0
  73 0024 FA48     		ldr	r0, .L4+4
  74 0026 FFF7FEFF 		bl	usbUart_print
  75              	.LVL4:
 167:main.c        **** 
 168:main.c        ****         /* Print Program Header */
 169:main.c        ****         usbUart_printHeader(__TIME__, __DATE__, "      PACKET TESTING UNIT TESTS ");
  76              		.loc 1 169 0
  77 002a FA4A     		ldr	r2, .L4+8
  78 002c FA49     		ldr	r1, .L4+12
  79 002e FB48     		ldr	r0, .L4+16
  80 0030 FFF7FEFF 		bl	usbUart_printHeader
  81              	.LVL5:
 170:main.c        ****         /* Set the Print function */
 171:main.c        ****         
 172:main.c        ****         /* ### Ensure the packet version ### */
 173:main.c        ****         {
 174:main.c        ****             usbUart_print("\r\n*** Packet Version ***\r\n");
  82              		.loc 1 174 0
  83 0034 FA48     		ldr	r0, .L4+20
  84 0036 FFF7FEFF 		bl	usbUart_print
  85              	.LVL6:
 175:main.c        ****             testRunner_run(testRunner_printResults( "Packet Version 1.4",  packets_VERSION  , 0x104
  86              		.loc 1 175 0
  87 003a 8221     		movs	r1, #130
  88 003c 4900     		lsls	r1, r1, #1
  89 003e F94B     		ldr	r3, .L4+24
  90 0040 0A00     		movs	r2, r1
  91 0042 F948     		ldr	r0, .L4+28
  92 0044 FFF7FEFF 		bl	testRunner_printResults
  93              	.LVL7:
  94 0048 FFF7FEFF 		bl	testRunner_run
  95              	.LVL8:
 176:main.c        ****         }
 177:main.c        ****         
 178:main.c        ****         /* ### Helpers test suite ### */
 179:main.c        ****         { 
 180:main.c        ****             usbUart_print("\r\n*** Command to Module ***\r\n");
  96              		.loc 1 180 0
  97 004c F748     		ldr	r0, .L4+32
  98 004e FFF7FEFF 		bl	usbUart_print
  99              	.LVL9:
 181:main.c        ****             testRunner_run(test_commandToModule("Control Command to Module",  0x00, packets_ID_MODU
 100              		.loc 1 181 0
 101 0052 F74C     		ldr	r4, .L4+36
 102 0054 0022     		movs	r2, #0
 103 0056 0021     		movs	r1, #0
 104 0058 2000     		movs	r0, r4
ARM GAS  C:\Users\ccheney\AppData\Local\Temp\ccOO3kAb.s 			page 6


 105 005a FFF7FEFF 		bl	test_commandToModule
 106              	.LVL10:
 107 005e FFF7FEFF 		bl	testRunner_run
 108              	.LVL11:
 182:main.c        ****             testRunner_run(test_commandToModule("Control Command to Module",  0x01, packets_ID_MODU
 109              		.loc 1 182 0
 110 0062 0022     		movs	r2, #0
 111 0064 0121     		movs	r1, #1
 112 0066 2000     		movs	r0, r4
 113 0068 FFF7FEFF 		bl	test_commandToModule
 114              	.LVL12:
 115 006c FFF7FEFF 		bl	testRunner_run
 116              	.LVL13:
 183:main.c        ****             testRunner_run(test_commandToModule("Control Command to Module",  0x1F, packets_ID_MODU
 117              		.loc 1 183 0
 118 0070 0022     		movs	r2, #0
 119 0072 1F21     		movs	r1, #31
 120 0074 2000     		movs	r0, r4
 121 0076 FFF7FEFF 		bl	test_commandToModule
 122              	.LVL14:
 123 007a FFF7FEFF 		bl	testRunner_run
 124              	.LVL15:
 184:main.c        ****             testRunner_run(test_commandToModule("Control Response to Module", 0x80, packets_ID_MODU
 125              		.loc 1 184 0
 126 007e ED4C     		ldr	r4, .L4+40
 127 0080 0022     		movs	r2, #0
 128 0082 8021     		movs	r1, #128
 129 0084 2000     		movs	r0, r4
 130 0086 FFF7FEFF 		bl	test_commandToModule
 131              	.LVL16:
 132 008a FFF7FEFF 		bl	testRunner_run
 133              	.LVL17:
 185:main.c        ****             testRunner_run(test_commandToModule("Control Response to Module", 0x81, packets_ID_MODU
 134              		.loc 1 185 0
 135 008e 0022     		movs	r2, #0
 136 0090 8121     		movs	r1, #129
 137 0092 2000     		movs	r0, r4
 138 0094 FFF7FEFF 		bl	test_commandToModule
 139              	.LVL18:
 140 0098 FFF7FEFF 		bl	testRunner_run
 141              	.LVL19:
 186:main.c        ****             testRunner_run(test_commandToModule("Control Response to Module", 0x9F, packets_ID_MODU
 142              		.loc 1 186 0
 143 009c 0022     		movs	r2, #0
 144 009e 9F21     		movs	r1, #159
 145 00a0 2000     		movs	r0, r4
 146 00a2 FFF7FEFF 		bl	test_commandToModule
 147              	.LVL20:
 148 00a6 FFF7FEFF 		bl	testRunner_run
 149              	.LVL21:
 187:main.c        ****             
 188:main.c        ****             testRunner_run(test_commandToModule("Actuation Command to Module",  0x20, packets_ID_MO
 150              		.loc 1 188 0
 151 00aa E34C     		ldr	r4, .L4+44
 152 00ac 0122     		movs	r2, #1
 153 00ae 2021     		movs	r1, #32
 154 00b0 2000     		movs	r0, r4
ARM GAS  C:\Users\ccheney\AppData\Local\Temp\ccOO3kAb.s 			page 7


 155 00b2 FFF7FEFF 		bl	test_commandToModule
 156              	.LVL22:
 157 00b6 FFF7FEFF 		bl	testRunner_run
 158              	.LVL23:
 189:main.c        ****             testRunner_run(test_commandToModule("Actuation Command to Module",  0x25, packets_ID_MO
 159              		.loc 1 189 0
 160 00ba 0122     		movs	r2, #1
 161 00bc 2521     		movs	r1, #37
 162 00be 2000     		movs	r0, r4
 163 00c0 FFF7FEFF 		bl	test_commandToModule
 164              	.LVL24:
 165 00c4 FFF7FEFF 		bl	testRunner_run
 166              	.LVL25:
 190:main.c        ****             testRunner_run(test_commandToModule("Actuation Command to Module",  0x3F, packets_ID_MO
 167              		.loc 1 190 0
 168 00c8 0122     		movs	r2, #1
 169 00ca 3F21     		movs	r1, #63
 170 00cc 2000     		movs	r0, r4
 171 00ce FFF7FEFF 		bl	test_commandToModule
 172              	.LVL26:
 173 00d2 FFF7FEFF 		bl	testRunner_run
 174              	.LVL27:
 191:main.c        ****             testRunner_run(test_commandToModule("Actuation Response to Module", 0xA0, packets_ID_MO
 175              		.loc 1 191 0
 176 00d6 D94C     		ldr	r4, .L4+48
 177 00d8 0122     		movs	r2, #1
 178 00da A021     		movs	r1, #160
 179 00dc 2000     		movs	r0, r4
 180 00de FFF7FEFF 		bl	test_commandToModule
 181              	.LVL28:
 182 00e2 FFF7FEFF 		bl	testRunner_run
 183              	.LVL29:
 192:main.c        ****             testRunner_run(test_commandToModule("Actuation Response to Module", 0xB3, packets_ID_MO
 184              		.loc 1 192 0
 185 00e6 0122     		movs	r2, #1
 186 00e8 B321     		movs	r1, #179
 187 00ea 2000     		movs	r0, r4
 188 00ec FFF7FEFF 		bl	test_commandToModule
 189              	.LVL30:
 190 00f0 FFF7FEFF 		bl	testRunner_run
 191              	.LVL31:
 193:main.c        ****             testRunner_run(test_commandToModule("Actuation Response to Module", 0xBF, packets_ID_MO
 192              		.loc 1 193 0
 193 00f4 0122     		movs	r2, #1
 194 00f6 BF21     		movs	r1, #191
 195 00f8 2000     		movs	r0, r4
 196 00fa FFF7FEFF 		bl	test_commandToModule
 197              	.LVL32:
 198 00fe FFF7FEFF 		bl	testRunner_run
 199              	.LVL33:
 194:main.c        ****             
 195:main.c        ****             testRunner_run(test_commandToModule("Sensing Command to Module",   0x40, packets_ID_MOD
 200              		.loc 1 195 0
 201 0102 CF4C     		ldr	r4, .L4+52
 202 0104 0222     		movs	r2, #2
 203 0106 4021     		movs	r1, #64
 204 0108 2000     		movs	r0, r4
ARM GAS  C:\Users\ccheney\AppData\Local\Temp\ccOO3kAb.s 			page 8


 205 010a FFF7FEFF 		bl	test_commandToModule
 206              	.LVL34:
 207 010e FFF7FEFF 		bl	testRunner_run
 208              	.LVL35:
 196:main.c        ****             testRunner_run(test_commandToModule("Sensing Command to Module",   0x44, packets_ID_MOD
 209              		.loc 1 196 0
 210 0112 0222     		movs	r2, #2
 211 0114 4421     		movs	r1, #68
 212 0116 2000     		movs	r0, r4
 213 0118 FFF7FEFF 		bl	test_commandToModule
 214              	.LVL36:
 215 011c FFF7FEFF 		bl	testRunner_run
 216              	.LVL37:
 197:main.c        ****             testRunner_run(test_commandToModule("Sensing Command to Module",   0x5F, packets_ID_MOD
 217              		.loc 1 197 0
 218 0120 0222     		movs	r2, #2
 219 0122 5F21     		movs	r1, #95
 220 0124 2000     		movs	r0, r4
 221 0126 FFF7FEFF 		bl	test_commandToModule
 222              	.LVL38:
 223 012a FFF7FEFF 		bl	testRunner_run
 224              	.LVL39:
 198:main.c        ****             testRunner_run(test_commandToModule("Sensing Response to Module",  0xC0, packets_ID_MOD
 225              		.loc 1 198 0
 226 012e C54C     		ldr	r4, .L4+56
 227 0130 0222     		movs	r2, #2
 228 0132 C021     		movs	r1, #192
 229 0134 2000     		movs	r0, r4
 230 0136 FFF7FEFF 		bl	test_commandToModule
 231              	.LVL40:
 232 013a FFF7FEFF 		bl	testRunner_run
 233              	.LVL41:
 199:main.c        ****             testRunner_run(test_commandToModule("Sensing Response to Module",  0xCA, packets_ID_MOD
 234              		.loc 1 199 0
 235 013e 0222     		movs	r2, #2
 236 0140 CA21     		movs	r1, #202
 237 0142 2000     		movs	r0, r4
 238 0144 FFF7FEFF 		bl	test_commandToModule
 239              	.LVL42:
 240 0148 FFF7FEFF 		bl	testRunner_run
 241              	.LVL43:
 200:main.c        ****             testRunner_run(test_commandToModule("Sensing Response to Module",  0xDF, packets_ID_MOD
 242              		.loc 1 200 0
 243 014c 0222     		movs	r2, #2
 244 014e DF21     		movs	r1, #223
 245 0150 2000     		movs	r0, r4
 246 0152 FFF7FEFF 		bl	test_commandToModule
 247              	.LVL44:
 248 0156 FFF7FEFF 		bl	testRunner_run
 249              	.LVL45:
 201:main.c        ****             
 202:main.c        ****             testRunner_run(test_commandToModule("Energy Command to Module",   0x60, packets_ID_MODU
 250              		.loc 1 202 0
 251 015a BB4C     		ldr	r4, .L4+60
 252 015c 0322     		movs	r2, #3
 253 015e 6021     		movs	r1, #96
 254 0160 2000     		movs	r0, r4
ARM GAS  C:\Users\ccheney\AppData\Local\Temp\ccOO3kAb.s 			page 9


 255 0162 FFF7FEFF 		bl	test_commandToModule
 256              	.LVL46:
 257 0166 FFF7FEFF 		bl	testRunner_run
 258              	.LVL47:
 203:main.c        ****             testRunner_run(test_commandToModule("Energy Command to Module",   0x7A, packets_ID_MODU
 259              		.loc 1 203 0
 260 016a 0322     		movs	r2, #3
 261 016c 7A21     		movs	r1, #122
 262 016e 2000     		movs	r0, r4
 263 0170 FFF7FEFF 		bl	test_commandToModule
 264              	.LVL48:
 265 0174 FFF7FEFF 		bl	testRunner_run
 266              	.LVL49:
 204:main.c        ****             testRunner_run(test_commandToModule("Energy Command to Module",   0x7F, packets_ID_MODU
 267              		.loc 1 204 0
 268 0178 0322     		movs	r2, #3
 269 017a 7F21     		movs	r1, #127
 270 017c 2000     		movs	r0, r4
 271 017e FFF7FEFF 		bl	test_commandToModule
 272              	.LVL50:
 273 0182 FFF7FEFF 		bl	testRunner_run
 274              	.LVL51:
 205:main.c        ****             testRunner_run(test_commandToModule("Energy Response to Module",  0xE0, packets_ID_MODU
 275              		.loc 1 205 0
 276 0186 B14C     		ldr	r4, .L4+64
 277 0188 0322     		movs	r2, #3
 278 018a E021     		movs	r1, #224
 279 018c 2000     		movs	r0, r4
 280 018e FFF7FEFF 		bl	test_commandToModule
 281              	.LVL52:
 282 0192 FFF7FEFF 		bl	testRunner_run
 283              	.LVL53:
 206:main.c        ****             testRunner_run(test_commandToModule("Energy Response to Module",  0xEB, packets_ID_MODU
 284              		.loc 1 206 0
 285 0196 0322     		movs	r2, #3
 286 0198 EB21     		movs	r1, #235
 287 019a 2000     		movs	r0, r4
 288 019c FFF7FEFF 		bl	test_commandToModule
 289              	.LVL54:
 290 01a0 FFF7FEFF 		bl	testRunner_run
 291              	.LVL55:
 207:main.c        ****             testRunner_run(test_commandToModule("Energy Response to Module",  0xFF, packets_ID_MODU
 292              		.loc 1 207 0
 293 01a4 0322     		movs	r2, #3
 294 01a6 FF21     		movs	r1, #255
 295 01a8 2000     		movs	r0, r4
 296 01aa FFF7FEFF 		bl	test_commandToModule
 297              	.LVL56:
 298 01ae FFF7FEFF 		bl	testRunner_run
 299              	.LVL57:
 300              	.LBB2:
 208:main.c        ****         }
 209:main.c        ****         
 210:main.c        ****         /* ### Buffer Generate Test Suite ### */
 211:main.c        ****         {
 212:main.c        ****             /* Create a packet object and initialize */
 213:main.c        ****             packets_BUFFER_FULL_S packetBuffer;
ARM GAS  C:\Users\ccheney\AppData\Local\Temp\ccOO3kAb.s 			page 10


 214:main.c        ****             packets_initialize(&packetBuffer);
 301              		.loc 1 214 0
 302 01b2 44AC     		add	r4, sp, #272
 303 01b4 2000     		movs	r0, r4
 304 01b6 FFF7FEFF 		bl	packets_initialize
 305              	.LVL58:
 215:main.c        ****             usbUart_print("\r\n*** Buffer generation ***\r\n");
 306              		.loc 1 215 0
 307 01ba A548     		ldr	r0, .L4+68
 308 01bc FFF7FEFF 		bl	usbUart_print
 309              	.LVL59:
 216:main.c        ****             /* Nominal Case */
 217:main.c        ****             testRunner_run(test_generateBuffers(&packetBuffer, "Normal", packets_LEN_PACKET_128, pa
 310              		.loc 1 217 0
 311 01c0 A44E     		ldr	r6, .L4+72
 312 01c2 0023     		movs	r3, #0
 313 01c4 8922     		movs	r2, #137
 314 01c6 3100     		movs	r1, r6
 315 01c8 2000     		movs	r0, r4
 316 01ca FFF7FEFF 		bl	test_generateBuffers
 317              	.LVL60:
 318 01ce FFF7FEFF 		bl	testRunner_run
 319              	.LVL61:
 218:main.c        ****             /* Long test */
 219:main.c        ****             testRunner_run(test_generateBuffers(&packetBuffer, "Long", 1000, packets_ERR_MEMORY));
 320              		.loc 1 219 0
 321 01d2 FA25     		movs	r5, #250
 322 01d4 AD00     		lsls	r5, r5, #2
 323 01d6 0123     		movs	r3, #1
 324 01d8 2A00     		movs	r2, r5
 325 01da 9F49     		ldr	r1, .L4+76
 326 01dc 2000     		movs	r0, r4
 327 01de FFF7FEFF 		bl	test_generateBuffers
 328              	.LVL62:
 329 01e2 FFF7FEFF 		bl	testRunner_run
 330              	.LVL63:
 220:main.c        ****             /* Multiple create */
 221:main.c        ****             packets_generateBuffers(&packetBuffer, 10);
 331              		.loc 1 221 0
 332 01e6 0A21     		movs	r1, #10
 333 01e8 2000     		movs	r0, r4
 334 01ea FFF7FEFF 		bl	packets_generateBuffers
 335              	.LVL64:
 222:main.c        ****             testRunner_run(test_generateBuffers(&packetBuffer, "Multiple Create", 10, packets_ERR_S
 336              		.loc 1 222 0
 337 01ee 8023     		movs	r3, #128
 338 01f0 DB00     		lsls	r3, r3, #3
 339 01f2 9B46     		mov	fp, r3
 340 01f4 0A22     		movs	r2, #10
 341 01f6 9949     		ldr	r1, .L4+80
 342 01f8 2000     		movs	r0, r4
 343 01fa FFF7FEFF 		bl	test_generateBuffers
 344              	.LVL65:
 345 01fe FFF7FEFF 		bl	testRunner_run
 346              	.LVL66:
 223:main.c        ****             
 224:main.c        ****             /* Clean Up */
ARM GAS  C:\Users\ccheney\AppData\Local\Temp\ccOO3kAb.s 			page 11


 225:main.c        ****             packets_destoryBuffers(&packetBuffer);
 347              		.loc 1 225 0
 348 0202 2000     		movs	r0, r4
 349 0204 FFF7FEFF 		bl	packets_destoryBuffers
 350              	.LVL67:
 351              	.LBE2:
 352              	.LBB3:
 226:main.c        ****         }
 227:main.c        ****         
 228:main.c        ****         /* ### Buffer Destroy Test Suite ### */
 229:main.c        ****         {
 230:main.c        ****             /* Create a packet object and initialize */
 231:main.c        ****             packets_BUFFER_FULL_S packetBuffer;
 232:main.c        ****             packets_initialize(&packetBuffer);
 353              		.loc 1 232 0
 354 0208 2000     		movs	r0, r4
 355 020a FFF7FEFF 		bl	packets_initialize
 356              	.LVL68:
 233:main.c        ****             usbUart_print("\r\n*** Buffer Destruction ***\r\n");
 357              		.loc 1 233 0
 358 020e 9448     		ldr	r0, .L4+84
 359 0210 FFF7FEFF 		bl	usbUart_print
 360              	.LVL69:
 234:main.c        ****             /* Buffer not generated */
 235:main.c        ****             testRunner_run( test_destroyBuffers(&packetBuffer, "Non-generated", packets_ERR_MEMORY)
 361              		.loc 1 235 0
 362 0214 0122     		movs	r2, #1
 363 0216 9349     		ldr	r1, .L4+88
 364 0218 2000     		movs	r0, r4
 365 021a FFF7FEFF 		bl	test_destroyBuffers
 366              	.LVL70:
 367 021e FFF7FEFF 		bl	testRunner_run
 368              	.LVL71:
 236:main.c        ****             /* Normal packet */
 237:main.c        ****             packets_generateBuffers(&packetBuffer, packets_LEN_PACKET_128);
 369              		.loc 1 237 0
 370 0222 8921     		movs	r1, #137
 371 0224 2000     		movs	r0, r4
 372 0226 FFF7FEFF 		bl	packets_generateBuffers
 373              	.LVL72:
 238:main.c        ****             testRunner_run(test_destroyBuffers(&packetBuffer, "Normal", packets_ERR_SUCCESS));
 374              		.loc 1 238 0
 375 022a 0022     		movs	r2, #0
 376 022c 3100     		movs	r1, r6
 377 022e 2000     		movs	r0, r4
 378 0230 FFF7FEFF 		bl	test_destroyBuffers
 379              	.LVL73:
 380 0234 FFF7FEFF 		bl	testRunner_run
 381              	.LVL74:
 239:main.c        ****             /* Too long buffer */
 240:main.c        ****             packets_generateBuffers(&packetBuffer, 2000);
 382              		.loc 1 240 0
 383 0238 FA21     		movs	r1, #250
 384 023a C900     		lsls	r1, r1, #3
 385 023c 2000     		movs	r0, r4
 386 023e FFF7FEFF 		bl	packets_generateBuffers
 387              	.LVL75:
ARM GAS  C:\Users\ccheney\AppData\Local\Temp\ccOO3kAb.s 			page 12


 241:main.c        ****             testRunner_run(test_destroyBuffers(&packetBuffer, "Failed Gen", packets_ERR_MEMORY));
 388              		.loc 1 241 0
 389 0242 0122     		movs	r2, #1
 390 0244 8849     		ldr	r1, .L4+92
 391 0246 2000     		movs	r0, r4
 392 0248 FFF7FEFF 		bl	test_destroyBuffers
 393              	.LVL76:
 394 024c FFF7FEFF 		bl	testRunner_run
 395              	.LVL77:
 242:main.c        ****             /* Multiple destroy */
 243:main.c        ****             packets_generateBuffers(&packetBuffer, 10);
 396              		.loc 1 243 0
 397 0250 0A21     		movs	r1, #10
 398 0252 2000     		movs	r0, r4
 399 0254 FFF7FEFF 		bl	packets_generateBuffers
 400              	.LVL78:
 244:main.c        ****             packets_destoryBuffers(&packetBuffer);
 401              		.loc 1 244 0
 402 0258 2000     		movs	r0, r4
 403 025a FFF7FEFF 		bl	packets_destoryBuffers
 404              	.LVL79:
 245:main.c        ****             testRunner_run(test_destroyBuffers(&packetBuffer, "Multiple destroy", packets_ERR_MEMOR
 405              		.loc 1 245 0
 406 025e 0122     		movs	r2, #1
 407 0260 8249     		ldr	r1, .L4+96
 408 0262 2000     		movs	r0, r4
 409 0264 FFF7FEFF 		bl	test_destroyBuffers
 410              	.LVL80:
 411 0268 FFF7FEFF 		bl	testRunner_run
 412              	.LVL81:
 246:main.c        ****             
 247:main.c        ****             /* Clean Up (Uncessary, here for consistency */
 248:main.c        ****             packets_destoryBuffers(&packetBuffer);
 413              		.loc 1 248 0
 414 026c 2000     		movs	r0, r4
 415 026e FFF7FEFF 		bl	packets_destoryBuffers
 416              	.LVL82:
 417              	.LBE3:
 418              	.LBB4:
 249:main.c        ****         }
 250:main.c        ****         
 251:main.c        ****         /* ### Memory leak testing ### */
 252:main.c        ****         {
 253:main.c        ****             usbUart_print("\r\n*** Memory Leak Generation ***\r\n");
 419              		.loc 1 253 0
 420 0272 7F48     		ldr	r0, .L4+100
 421 0274 FFF7FEFF 		bl	usbUart_print
 422              	.LVL83:
 254:main.c        ****             packets_BUFFER_FULL_S packetBuffer;
 255:main.c        ****             packets_initialize(&packetBuffer);
 423              		.loc 1 255 0
 424 0278 2000     		movs	r0, r4
 425 027a FFF7FEFF 		bl	packets_initialize
 426              	.LVL84:
 256:main.c        ****             testRunner_run(test_generateBuffers_iteration(&packetBuffer,"Repeat Generations", 1000)
 427              		.loc 1 256 0
 428 027e 2A00     		movs	r2, r5
ARM GAS  C:\Users\ccheney\AppData\Local\Temp\ccOO3kAb.s 			page 13


 429 0280 7C49     		ldr	r1, .L4+104
 430 0282 2000     		movs	r0, r4
 431 0284 FFF7FEFF 		bl	test_generateBuffers_iteration
 432              	.LVL85:
 433 0288 FFF7FEFF 		bl	testRunner_run
 434              	.LVL86:
 435              	.LBE4:
 436              	.LBB5:
 257:main.c        ****         }
 258:main.c        ****         
 259:main.c        ****         
 260:main.c        ****         /* ### Packet Creation Test Suite - State Errors ### */
 261:main.c        ****         {
 262:main.c        ****             usbUart_print("\r\n*** Construct Packet Test Suite - State Errors ***\r\n");
 437              		.loc 1 262 0
 438 028c 7A48     		ldr	r0, .L4+108
 439 028e FFF7FEFF 		bl	usbUart_print
 440              	.LVL87:
 263:main.c        ****             /* Create a packet object and initialize */
 264:main.c        ****             packets_BUFFER_FULL_S packetBuffer;
 265:main.c        ****             packets_initialize(&packetBuffer);
 441              		.loc 1 265 0
 442 0292 2000     		movs	r0, r4
 443 0294 FFF7FEFF 		bl	packets_initialize
 444              	.LVL88:
 266:main.c        ****             packets_generateBuffers(&packetBuffer, packets_LEN_PACKET_128);
 445              		.loc 1 266 0
 446 0298 8921     		movs	r1, #137
 447 029a 2000     		movs	r0, r4
 448 029c FFF7FEFF 		bl	packets_generateBuffers
 449              	.LVL89:
 267:main.c        ****             /* Local reference to sending buffer */
 268:main.c        ****             packets_PACKET_S* sendPacket = &(packetBuffer.send.packet); 
 269:main.c        ****             /* Define dummy data */
 270:main.c        ****             #define DATA_LEN 0x03
 271:main.c        ****             uint8 dummyData[DATA_LEN] = {0x01, 0x03, 0x05};
 450              		.loc 1 271 0
 451 02a0 3FAE     		add	r6, sp, #252
 452 02a2 0325     		movs	r5, #3
 453 02a4 0322     		movs	r2, #3
 454 02a6 7549     		ldr	r1, .L4+112
 455 02a8 3000     		movs	r0, r6
 456 02aa FFF7FEFF 		bl	memcpy
 457              	.LVL90:
 272:main.c        ****             sendPacket->moduleId = packets_ID_MODULE_SENSING;
 458              		.loc 1 272 0
 459 02ae 0223     		movs	r3, #2
 460 02b0 2370     		strb	r3, [r4]
 273:main.c        ****             sendPacket->cmd = 0xCC;
 461              		.loc 1 273 0
 462 02b2 CC23     		movs	r3, #204
 463 02b4 6370     		strb	r3, [r4, #1]
 274:main.c        ****             sendPacket->payloadLen = DATA_LEN;
 464              		.loc 1 274 0
 465 02b6 0327     		movs	r7, #3
 466 02b8 6581     		strh	r5, [r4, #10]
 275:main.c        ****             memcpy(sendPacket->payload, dummyData, sendPacket->payloadLen);
ARM GAS  C:\Users\ccheney\AppData\Local\Temp\ccOO3kAb.s 			page 14


 467              		.loc 1 275 0
 468 02ba 0322     		movs	r2, #3
 469 02bc 3100     		movs	r1, r6
 470 02be 6068     		ldr	r0, [r4, #4]
 471 02c0 FFF7FEFF 		bl	memcpy
 472              	.LVL91:
 276:main.c        ****             /* Simple working packet */
 277:main.c        ****             testRunner_run(test_packetCreation_stateErrors(&packetBuffer, "Basic Packet", packets_E
 473              		.loc 1 277 0
 474 02c4 0022     		movs	r2, #0
 475 02c6 6E49     		ldr	r1, .L4+116
 476 02c8 2000     		movs	r0, r4
 477 02ca FFF7FEFF 		bl	test_packetCreation_stateErrors
 478              	.LVL92:
 479 02ce FFF7FEFF 		bl	testRunner_run
 480              	.LVL93:
 278:main.c        ****             /* No Payload */
 279:main.c        ****             sendPacket->moduleId = 1;
 481              		.loc 1 279 0
 482 02d2 0123     		movs	r3, #1
 483 02d4 9946     		mov	r9, r3
 484 02d6 2370     		strb	r3, [r4]
 280:main.c        ****             sendPacket->payloadLen = ZERO;
 485              		.loc 1 280 0
 486 02d8 0023     		movs	r3, #0
 487 02da 6381     		strh	r3, [r4, #10]
 281:main.c        ****             testRunner_run(test_packetCreation_stateErrors(&packetBuffer, "No Payload", packets_ERR
 488              		.loc 1 281 0
 489 02dc 0022     		movs	r2, #0
 490 02de 6949     		ldr	r1, .L4+120
 491 02e0 2000     		movs	r0, r4
 492 02e2 FFF7FEFF 		bl	test_packetCreation_stateErrors
 493              	.LVL94:
 494 02e6 FFF7FEFF 		bl	testRunner_run
 495              	.LVL95:
 282:main.c        ****             /* Long Packet - no memory */
 283:main.c        ****             sendPacket->payloadLen = packets_LEN_PACKET_128 + 1;
 496              		.loc 1 283 0
 497 02ea 8A23     		movs	r3, #138
 498 02ec 6381     		strh	r3, [r4, #10]
 284:main.c        ****             testRunner_run(test_packetCreation_stateErrors(&packetBuffer, "Long Payload - no memory
 499              		.loc 1 284 0
 500 02ee 0122     		movs	r2, #1
 501 02f0 6549     		ldr	r1, .L4+124
 502 02f2 2000     		movs	r0, r4
 503 02f4 FFF7FEFF 		bl	test_packetCreation_stateErrors
 504              	.LVL96:
 505 02f8 FFF7FEFF 		bl	testRunner_run
 506              	.LVL97:
 285:main.c        ****             /* Long Packet - max payload, and memory */
 286:main.c        ****             sendPacket->payloadLen = 1024;
 507              		.loc 1 286 0
 508 02fc 5B46     		mov	r3, fp
 509 02fe 6381     		strh	r3, [r4, #10]
 287:main.c        ****             testRunner_run(test_packetCreation_stateErrors(&packetBuffer, "Long Payload - max paylo
 510              		.loc 1 287 0
 511 0300 0922     		movs	r2, #9
ARM GAS  C:\Users\ccheney\AppData\Local\Temp\ccOO3kAb.s 			page 15


 512 0302 6249     		ldr	r1, .L4+128
 513 0304 2000     		movs	r0, r4
 514 0306 FFF7FEFF 		bl	test_packetCreation_stateErrors
 515              	.LVL98:
 516 030a FFF7FEFF 		bl	testRunner_run
 517              	.LVL99:
 288:main.c        ****             
 289:main.c        ****             /* Clean Up */
 290:main.c        ****             packets_destoryBuffers(&packetBuffer);
 518              		.loc 1 290 0
 519 030e 2000     		movs	r0, r4
 520 0310 FFF7FEFF 		bl	packets_destoryBuffers
 521              	.LVL100:
 522              	.LBE5:
 523              	.LBB6:
 291:main.c        ****         }
 292:main.c        ****         
 293:main.c        ****         /* ### Packet Creation Test Suite - Packet Values ### */
 294:main.c        ****         {
 295:main.c        ****             usbUart_print("\r\n*** Construct Packet Test Suite - Packet Values ***\r\n");
 524              		.loc 1 295 0
 525 0314 5E48     		ldr	r0, .L4+132
 526 0316 FFF7FEFF 		bl	usbUart_print
 527              	.LVL101:
 296:main.c        ****             /* Create a packet object and initialize */
 297:main.c        ****             packets_BUFFER_FULL_S packetBuffer;
 298:main.c        ****             packets_initialize(&packetBuffer);
 528              		.loc 1 298 0
 529 031a 2000     		movs	r0, r4
 530 031c FFF7FEFF 		bl	packets_initialize
 531              	.LVL102:
 299:main.c        ****             packets_generateBuffers(&packetBuffer, packets_LEN_PACKET_128);
 532              		.loc 1 299 0
 533 0320 8921     		movs	r1, #137
 534 0322 2000     		movs	r0, r4
 535 0324 FFF7FEFF 		bl	packets_generateBuffers
 536              	.LVL103:
 300:main.c        ****             /* Local reference to sending buffer */
 301:main.c        ****             packets_PACKET_S* sendPacket = &(packetBuffer.send.packet); 
 302:main.c        ****             /* Define valid dummy data */
 303:main.c        ****             #define DATA_LEN 0x03
 304:main.c        ****             uint8 dummyData[DATA_LEN] = {0x01, 0x03, 0x05};
 537              		.loc 1 304 0
 538 0328 0322     		movs	r2, #3
 539 032a 5449     		ldr	r1, .L4+112
 540 032c 2BA8     		add	r0, sp, #172
 541 032e FFF7FEFF 		bl	memcpy
 542              	.LVL104:
 305:main.c        ****             sendPacket->moduleId = packets_ID_MODULE_CONTROL;
 543              		.loc 1 305 0
 544 0332 0023     		movs	r3, #0
 545 0334 2370     		strb	r3, [r4]
 306:main.c        ****             sendPacket->cmd = packets_CMD_CONTROL_MIN;
 546              		.loc 1 306 0
 547 0336 6370     		strb	r3, [r4, #1]
 307:main.c        ****             sendPacket->payloadLen = DATA_LEN;
 548              		.loc 1 307 0
ARM GAS  C:\Users\ccheney\AppData\Local\Temp\ccOO3kAb.s 			page 16


 549 0338 6581     		strh	r5, [r4, #10]
 308:main.c        ****             memcpy(sendPacket->payload, dummyData, sendPacket->payloadLen);
 550              		.loc 1 308 0
 551 033a 0322     		movs	r2, #3
 552 033c 2BA9     		add	r1, sp, #172
 553 033e 6068     		ldr	r0, [r4, #4]
 554 0340 FFF7FEFF 		bl	memcpy
 555              	.LVL105:
 309:main.c        ****             /* Simple working packet */
 310:main.c        ****             uint8 validPacket[15] = {0x01, 0x00, 0x00, 0x03, 0x01, 0x03, 0x05, 0x00, 0x00, 0xFF, 0x
 556              		.loc 1 310 0
 557 0344 30AD     		add	r5, sp, #192
 558 0346 0F22     		movs	r2, #15
 559 0348 0021     		movs	r1, #0
 560 034a 2800     		movs	r0, r5
 561 034c FFF7FEFF 		bl	memset
 562              	.LVL106:
 563 0350 4B46     		mov	r3, r9
 564 0352 2B70     		strb	r3, [r5]
 565 0354 EF70     		strb	r7, [r5, #3]
 566 0356 2B71     		strb	r3, [r5, #4]
 567 0358 6F71     		strb	r7, [r5, #5]
 568 035a 0523     		movs	r3, #5
 569 035c AB71     		strb	r3, [r5, #6]
 570 035e FF23     		movs	r3, #255
 571 0360 9846     		mov	r8, r3
 572 0362 6B72     		strb	r3, [r5, #9]
 573 0364 F323     		movs	r3, #243
 574 0366 AB72     		strb	r3, [r5, #10]
 575 0368 493B     		subs	r3, r3, #73
 576 036a 9B46     		mov	fp, r3
 577 036c EB72     		strb	r3, [r5, #11]
 311:main.c        ****             testRunner_run(test_packetCreation_packetVals(&packetBuffer, "Simple Packet", validPack
 578              		.loc 1 311 0
 579 036e 2A00     		movs	r2, r5
 580 0370 4849     		ldr	r1, .L4+136
 581 0372 2000     		movs	r0, r4
 582 0374 FFF7FEFF 		bl	test_packetCreation_packetVals
 583              	.LVL107:
 584 0378 FFF7FEFF 		bl	testRunner_run
 585              	.LVL108:
 312:main.c        ****             /* No payload */
 313:main.c        ****             sendPacket->payloadLen = ZERO;
 586              		.loc 1 313 0
 587 037c 0023     		movs	r3, #0
 588 037e 6381     		strh	r3, [r4, #10]
 314:main.c        ****             uint8 noPayloadPacket[15] = {0x01, 0x00, 0x00, 0x00, 0x00, 0x00, 0xFF, 0xFF, 0xAA};
 589              		.loc 1 314 0
 590 0380 35AF     		add	r7, sp, #212
 591 0382 0F22     		movs	r2, #15
 592 0384 0021     		movs	r1, #0
 593 0386 3800     		movs	r0, r7
 594 0388 FFF7FEFF 		bl	memset
 595              	.LVL109:
 596 038c 4B46     		mov	r3, r9
 597 038e 3B70     		strb	r3, [r7]
 598 0390 4346     		mov	r3, r8
ARM GAS  C:\Users\ccheney\AppData\Local\Temp\ccOO3kAb.s 			page 17


 599 0392 BB71     		strb	r3, [r7, #6]
 600 0394 FB71     		strb	r3, [r7, #7]
 601 0396 5B46     		mov	r3, fp
 602 0398 3B72     		strb	r3, [r7, #8]
 315:main.c        ****             testRunner_run(test_packetCreation_packetVals(&packetBuffer, "No payload", noPayloadPac
 603              		.loc 1 315 0
 604 039a 3A00     		movs	r2, r7
 605 039c 3E49     		ldr	r1, .L4+140
 606 039e 2000     		movs	r0, r4
 607 03a0 FFF7FEFF 		bl	test_packetCreation_packetVals
 608              	.LVL110:
 609 03a4 FFF7FEFF 		bl	testRunner_run
 610              	.LVL111:
 316:main.c        ****             /* No Acknowledge  Flags */
 317:main.c        ****             sendPacket->flags = packets_FLAG_NO_ACK;
 611              		.loc 1 317 0
 612 03a8 0223     		movs	r3, #2
 613 03aa A381     		strh	r3, [r4, #12]
 318:main.c        ****             uint8 respFlagPacket[15] = {0x01, 0x00, 0x00, 0x00, 0x00, 0x02, 0xFF, 0xFD, 0xAA};
 614              		.loc 1 318 0
 615 03ac 3AAF     		add	r7, sp, #232
 616 03ae 0F22     		movs	r2, #15
 617 03b0 0021     		movs	r1, #0
 618 03b2 3800     		movs	r0, r7
 619 03b4 FFF7FEFF 		bl	memset
 620              	.LVL112:
 621 03b8 4B46     		mov	r3, r9
 622 03ba 3B70     		strb	r3, [r7]
 623 03bc 0223     		movs	r3, #2
 624 03be 7B71     		strb	r3, [r7, #5]
 625 03c0 4346     		mov	r3, r8
 626 03c2 BB71     		strb	r3, [r7, #6]
 627 03c4 FD23     		movs	r3, #253
 628 03c6 FB71     		strb	r3, [r7, #7]
 629 03c8 5B46     		mov	r3, fp
 630 03ca 3B72     		strb	r3, [r7, #8]
 319:main.c        ****             testRunner_run(test_packetCreation_packetVals(&packetBuffer, "No acknowledge flag", res
 631              		.loc 1 319 0
 632 03cc 3A00     		movs	r2, r7
 633 03ce 3349     		ldr	r1, .L4+144
 634 03d0 2000     		movs	r0, r4
 635 03d2 FFF7FEFF 		bl	test_packetCreation_packetVals
 636              	.LVL113:
 637 03d6 FFF7FEFF 		bl	testRunner_run
 638              	.LVL114:
 320:main.c        ****             /* Response and payload */
 321:main.c        ****             sendPacket->payloadLen = 1;
 639              		.loc 1 321 0
 640 03da 4B46     		mov	r3, r9
 641 03dc 6381     		strh	r3, [r4, #10]
 322:main.c        ****             dummyData[0] = 0xFF;
 642              		.loc 1 322 0
 643 03de 6B46     		mov	r3, sp
 644 03e0 AC22     		movs	r2, #172
 645 03e2 9B18     		adds	r3, r3, r2
 646 03e4 4246     		mov	r2, r8
 647 03e6 1A70     		strb	r2, [r3]
ARM GAS  C:\Users\ccheney\AppData\Local\Temp\ccOO3kAb.s 			page 18


 323:main.c        ****             memcpy(sendPacket->payload, dummyData, sendPacket->payloadLen);
 648              		.loc 1 323 0
 649 03e8 6368     		ldr	r3, [r4, #4]
 650 03ea 1A70     		strb	r2, [r3]
 324:main.c        ****             sendPacket->flags = packets_FLAG_NO_ACK;
 651              		.loc 1 324 0
 652 03ec 0223     		movs	r3, #2
 653 03ee A381     		strh	r3, [r4, #12]
 325:main.c        ****             uint8 respFlagPacket2[15] = {0x01, 0x00, 0x00, 0x01, 0xFF, 0x00, 0x02, 0xFE, 0xFD, 0xAA
 654              		.loc 1 325 0
 655 03f0 0F22     		movs	r2, #15
 656 03f2 0021     		movs	r1, #0
 657 03f4 3000     		movs	r0, r6
 658 03f6 FFF7FEFF 		bl	memset
 659              	.LVL115:
 660 03fa 0123     		movs	r3, #1
 661 03fc 3370     		strb	r3, [r6]
 662 03fe 4B46     		mov	r3, r9
 663 0400 F370     		strb	r3, [r6, #3]
 664 0402 4346     		mov	r3, r8
 665 0404 3371     		strb	r3, [r6, #4]
 666 0406 0223     		movs	r3, #2
 667 0408 4AE0     		b	.L5
 668              	.L6:
 669 040a C046     		.align	2
 670              	.L4:
 671 040c 00000000 		.word	usbUart_print
 672 0410 00000000 		.word	.LC2
 673 0414 0C000000 		.word	.LC4
 674 0418 30000000 		.word	.LC6
 675 041c 3C000000 		.word	.LC8
 676 0420 48000000 		.word	.LC10
 677 0424 64000000 		.word	.LC12
 678 0428 68000000 		.word	.LC14
 679 042c 7C000000 		.word	.LC16
 680 0430 9C000000 		.word	.LC18
 681 0434 B8000000 		.word	.LC20
 682 0438 D4000000 		.word	.LC22
 683 043c F0000000 		.word	.LC24
 684 0440 10010000 		.word	.LC26
 685 0444 2C010000 		.word	.LC28
 686 0448 48010000 		.word	.LC30
 687 044c 64010000 		.word	.LC32
 688 0450 80010000 		.word	.LC34
 689 0454 A0010000 		.word	.LC36
 690 0458 A8010000 		.word	.LC38
 691 045c B0010000 		.word	.LC40
 692 0460 C0010000 		.word	.LC42
 693 0464 E0010000 		.word	.LC44
 694 0468 F0010000 		.word	.LC46
 695 046c FC010000 		.word	.LC48
 696 0470 10020000 		.word	.LC50
 697 0474 34020000 		.word	.LC52
 698 0478 48020000 		.word	.LC54
 699 047c 00000000 		.word	.LANCHOR0
 700 0480 80020000 		.word	.LC57
 701 0484 90020000 		.word	.LC59
ARM GAS  C:\Users\ccheney\AppData\Local\Temp\ccOO3kAb.s 			page 19


 702 0488 9C020000 		.word	.LC61
 703 048c B8020000 		.word	.LC63
 704 0490 DC020000 		.word	.LC65
 705 0494 14030000 		.word	.LC67
 706 0498 24030000 		.word	.LC69
 707 049c 30030000 		.word	.LC71
 708              	.L5:
 709 04a0 B371     		strb	r3, [r6, #6]
 710 04a2 FE27     		movs	r7, #254
 711 04a4 F771     		strb	r7, [r6, #7]
 712 04a6 FD23     		movs	r3, #253
 713 04a8 3372     		strb	r3, [r6, #8]
 714 04aa 5B46     		mov	r3, fp
 715 04ac 7372     		strb	r3, [r6, #9]
 326:main.c        ****             testRunner_run(test_packetCreation_packetVals(&packetBuffer, "No acknowledge flag 2", r
 716              		.loc 1 326 0
 717 04ae 3200     		movs	r2, r6
 718 04b0 FE49     		ldr	r1, .L7
 719 04b2 2000     		movs	r0, r4
 720 04b4 FFF7FEFF 		bl	test_packetCreation_packetVals
 721              	.LVL116:
 722 04b8 FFF7FEFF 		bl	testRunner_run
 723              	.LVL117:
 327:main.c        ****             
 328:main.c        ****             /* Clean Up */
 329:main.c        ****             packets_destoryBuffers(&packetBuffer);
 724              		.loc 1 329 0
 725 04bc 2000     		movs	r0, r4
 726 04be FFF7FEFF 		bl	packets_destoryBuffers
 727              	.LVL118:
 728              	.LBE6:
 330:main.c        ****         }
 331:main.c        ****         
 332:main.c        ****         /* ### Send Packet Test Suite ### */
 333:main.c        ****         {
 334:main.c        ****             usbUart_print("\r\n*** Send Packet ***\r\n");
 729              		.loc 1 334 0
 730 04c2 FB48     		ldr	r0, .L7+4
 731 04c4 FFF7FEFF 		bl	usbUart_print
 732              	.LVL119:
 335:main.c        ****             /* No tx function registered */
 336:main.c        ****             testRunner_run(test_sendPacket(NULL, "No TX function", packets_ERR_CALLBACK));
 733              		.loc 1 336 0
 734 04c8 8022     		movs	r2, #128
 735 04ca 5201     		lsls	r2, r2, #5
 736 04cc F949     		ldr	r1, .L7+8
 737 04ce 0020     		movs	r0, #0
 738 04d0 FFF7FEFF 		bl	test_sendPacket
 739              	.LVL120:
 740 04d4 FFF7FEFF 		bl	testRunner_run
 741              	.LVL121:
 337:main.c        ****             /* Dummy tx registered */
 338:main.c        ****             testRunner_run(test_sendPacket(imuUart_dummyTxArray, "Dummy TX", packets_ERR_SUCCESS));
 742              		.loc 1 338 0
 743 04d8 0022     		movs	r2, #0
 744 04da F749     		ldr	r1, .L7+12
 745 04dc F748     		ldr	r0, .L7+16
ARM GAS  C:\Users\ccheney\AppData\Local\Temp\ccOO3kAb.s 			page 20


 746 04de FFF7FEFF 		bl	test_sendPacket
 747              	.LVL122:
 748 04e2 FFF7FEFF 		bl	testRunner_run
 749              	.LVL123:
 339:main.c        ****             /* Real TX */
 340:main.c        ****             testRunner_run(test_sendPacket(imuUart_putArray, "Real TX", packets_ERR_SUCCESS));
 750              		.loc 1 340 0
 751 04e6 0022     		movs	r2, #0
 752 04e8 F549     		ldr	r1, .L7+20
 753 04ea F648     		ldr	r0, .L7+24
 754 04ec FFF7FEFF 		bl	test_sendPacket
 755              	.LVL124:
 756 04f0 FFF7FEFF 		bl	testRunner_run
 757              	.LVL125:
 758              	.LBB7:
 341:main.c        ****         }
 342:main.c        ****         
 343:main.c        ****         /* ### Process RX Byte Test Suite ### */
 344:main.c        ****         {
 345:main.c        ****             usbUart_print("\r\n*** Process RX Byte - State Errors ***\r\n");
 759              		.loc 1 345 0
 760 04f4 F448     		ldr	r0, .L7+28
 761 04f6 FFF7FEFF 		bl	usbUart_print
 762              	.LVL126:
 346:main.c        ****             /* Create a packet object and initialize */
 347:main.c        ****             packets_BUFFER_FULL_S packetBuffer;
 348:main.c        ****             packets_initialize(&packetBuffer);
 763              		.loc 1 348 0
 764 04fa 2000     		movs	r0, r4
 765 04fc FFF7FEFF 		bl	packets_initialize
 766              	.LVL127:
 349:main.c        ****             /* No buffers generated */
 350:main.c        ****             uint8 bytes[1] = {packets_SYM_START};
 767              		.loc 1 350 0
 768 0500 4B46     		mov	r3, r9
 769 0502 3370     		strb	r3, [r6]
 351:main.c        ****             testRunner_run(test_processRxByte_stateError(&packetBuffer, bytes, 1, "No Buffers", pac
 770              		.loc 1 351 0
 771 0504 4B46     		mov	r3, r9
 772 0506 0093     		str	r3, [sp]
 773 0508 F04B     		ldr	r3, .L7+32
 774 050a 0122     		movs	r2, #1
 775 050c 3100     		movs	r1, r6
 776 050e 2000     		movs	r0, r4
 777 0510 FFF7FEFF 		bl	test_processRxByte_stateError
 778              	.LVL128:
 779 0514 FFF7FEFF 		bl	testRunner_run
 780              	.LVL129:
 352:main.c        ****             /* Generate buffer */
 353:main.c        ****             packets_generateBuffers(&packetBuffer, 100);
 781              		.loc 1 353 0
 782 0518 6421     		movs	r1, #100
 783 051a 2000     		movs	r0, r4
 784 051c FFF7FEFF 		bl	packets_generateBuffers
 785              	.LVL130:
 354:main.c        ****             /* Buffer overflow */
 355:main.c        ****             packetBuffer.receive.processBuffer.bufferIndex = 100;
ARM GAS  C:\Users\ccheney\AppData\Local\Temp\ccOO3kAb.s 			page 21


 786              		.loc 1 355 0
 787 0520 6423     		movs	r3, #100
 788 0522 E387     		strh	r3, [r4, #62]
 356:main.c        ****             bytes[0] = packets_SYM_START;
 789              		.loc 1 356 0
 790 0524 4B46     		mov	r3, r9
 791 0526 3370     		strb	r3, [r6]
 357:main.c        ****             testRunner_run(test_processRxByte_stateError(&packetBuffer, bytes, 1, "Buffer overflow"
 792              		.loc 1 357 0
 793 0528 4B46     		mov	r3, r9
 794 052a 0093     		str	r3, [sp]
 795 052c E84B     		ldr	r3, .L7+36
 796 052e 0122     		movs	r2, #1
 797 0530 3100     		movs	r1, r6
 798 0532 2000     		movs	r0, r4
 799 0534 FFF7FEFF 		bl	test_processRxByte_stateError
 800              	.LVL131:
 801 0538 FFF7FEFF 		bl	testRunner_run
 802              	.LVL132:
 358:main.c        ****             /* Valid Start Byte */
 359:main.c        ****             bytes[0] = packets_SYM_START;
 803              		.loc 1 359 0
 804 053c 4B46     		mov	r3, r9
 805 053e 3370     		strb	r3, [r6]
 360:main.c        ****             testRunner_run(test_processRxByte_stateError(&packetBuffer, bytes, 1, "Valid Start", pa
 806              		.loc 1 360 0
 807 0540 0023     		movs	r3, #0
 808 0542 0093     		str	r3, [sp]
 809 0544 E34B     		ldr	r3, .L7+40
 810 0546 0122     		movs	r2, #1
 811 0548 3100     		movs	r1, r6
 812 054a 2000     		movs	r0, r4
 813 054c FFF7FEFF 		bl	test_processRxByte_stateError
 814              	.LVL133:
 815 0550 FFF7FEFF 		bl	testRunner_run
 816              	.LVL134:
 361:main.c        ****             /* Invalid Start Byte */
 362:main.c        ****             bytes[0] = packets_SYM_START + 1;
 817              		.loc 1 362 0
 818 0554 0223     		movs	r3, #2
 819 0556 3370     		strb	r3, [r6]
 363:main.c        ****             testRunner_run(test_processRxByte_stateError(&packetBuffer, bytes, 1, "invalid Start", 
 820              		.loc 1 363 0
 821 0558 0223     		movs	r3, #2
 822 055a 0093     		str	r3, [sp]
 823 055c DE4B     		ldr	r3, .L7+44
 824 055e 0122     		movs	r2, #1
 825 0560 3100     		movs	r1, r6
 826 0562 2000     		movs	r0, r4
 827 0564 FFF7FEFF 		bl	test_processRxByte_stateError
 828              	.LVL135:
 829 0568 FFF7FEFF 		bl	testRunner_run
 830              	.LVL136:
 364:main.c        ****             
 365:main.c        ****             /* Clean up */
 366:main.c        ****             packets_destoryBuffers(&packetBuffer);
 831              		.loc 1 366 0
ARM GAS  C:\Users\ccheney\AppData\Local\Temp\ccOO3kAb.s 			page 22


 832 056c 2000     		movs	r0, r4
 833 056e FFF7FEFF 		bl	packets_destoryBuffers
 834              	.LVL137:
 835              	.LBE7:
 836              	.LBB8:
 367:main.c        ****         }
 368:main.c        ****         
 369:main.c        ****         
 370:main.c        ****         /* ### Packet parsing Test Suite - State Errors ### */
 371:main.c        ****         {
 372:main.c        ****             usbUart_print("\r\n*** Packet parsing - State Errors ***\r\n");
 837              		.loc 1 372 0
 838 0572 DA48     		ldr	r0, .L7+48
 839 0574 FFF7FEFF 		bl	usbUart_print
 840              	.LVL138:
 373:main.c        ****             /* Setup - Create a packet object and initialize */
 374:main.c        ****             packets_BUFFER_FULL_S packetBuffer;
 375:main.c        ****             packets_initialize(&packetBuffer);
 841              		.loc 1 375 0
 842 0578 2000     		movs	r0, r4
 843 057a FFF7FEFF 		bl	packets_initialize
 844              	.LVL139:
 376:main.c        ****             packets_generateBuffers(&packetBuffer, packets_LEN_PACKET_128);
 845              		.loc 1 376 0
 846 057e 8921     		movs	r1, #137
 847 0580 2000     		movs	r0, r4
 848 0582 FFF7FEFF 		bl	packets_generateBuffers
 849              	.LVL140:
 377:main.c        ****             /* Local references */
 378:main.c        ****             packets_BUFFER_PROCESS_S* txBuffer = &(packetBuffer.send.processBuffer);
 379:main.c        ****             /* No Payload, success */
 380:main.c        ****             uint8 noPayloadPacket[15] = {0x01, 0x01, 0x00, 0x00, 0x00, 0x00, 0xFF, 0xFE, 0xAA};
 850              		.loc 1 380 0
 851 0586 0F22     		movs	r2, #15
 852 0588 0021     		movs	r1, #0
 853 058a 2BA8     		add	r0, sp, #172
 854 058c FFF7FEFF 		bl	memset
 855              	.LVL141:
 856 0590 6B46     		mov	r3, sp
 857 0592 AC22     		movs	r2, #172
 858 0594 9B18     		adds	r3, r3, r2
 859 0596 4A46     		mov	r2, r9
 860 0598 1A70     		strb	r2, [r3]
 861 059a 6B46     		mov	r3, sp
 862 059c AD22     		movs	r2, #173
 863 059e 9B18     		adds	r3, r3, r2
 864 05a0 4A46     		mov	r2, r9
 865 05a2 1A70     		strb	r2, [r3]
 866 05a4 6B46     		mov	r3, sp
 867 05a6 B222     		movs	r2, #178
 868 05a8 9B18     		adds	r3, r3, r2
 869 05aa 4246     		mov	r2, r8
 870 05ac 1A70     		strb	r2, [r3]
 871 05ae 6B46     		mov	r3, sp
 872 05b0 B322     		movs	r2, #179
 873 05b2 9B18     		adds	r3, r3, r2
 874 05b4 1F70     		strb	r7, [r3]
ARM GAS  C:\Users\ccheney\AppData\Local\Temp\ccOO3kAb.s 			page 23


 875 05b6 6B46     		mov	r3, sp
 876 05b8 0132     		adds	r2, r2, #1
 877 05ba 9B18     		adds	r3, r3, r2
 878 05bc 5A46     		mov	r2, fp
 879 05be 1A70     		strb	r2, [r3]
 381:main.c        ****             txBuffer->bufferIndex = 9;
 880              		.loc 1 381 0
 881 05c0 0923     		movs	r3, #9
 882 05c2 6383     		strh	r3, [r4, #26]
 382:main.c        ****             memcpy(txBuffer->buffer, noPayloadPacket, txBuffer->bufferIndex);
 883              		.loc 1 382 0
 884 05c4 0922     		movs	r2, #9
 885 05c6 2BA9     		add	r1, sp, #172
 886 05c8 6069     		ldr	r0, [r4, #20]
 887 05ca FFF7FEFF 		bl	memcpy
 888              	.LVL142:
 383:main.c        ****             testRunner_run(test_packetParsing_stateErrors(&packetBuffer, "Valid packet - no payload
 889              		.loc 1 383 0
 890 05ce 0022     		movs	r2, #0
 891 05d0 C349     		ldr	r1, .L7+52
 892 05d2 2000     		movs	r0, r4
 893 05d4 FFF7FEFF 		bl	test_packetParsing_stateErrors
 894              	.LVL143:
 895 05d8 FFF7FEFF 		bl	testRunner_run
 896              	.LVL144:
 384:main.c        ****             /* Success, payload */
 385:main.c        ****             uint8 basePacket[15] = {0x01, 0x05, 0x00, 0x02, 0xFF, 0xFF, 0x00, 0x00, 0xFD, 0xFA, 0xA
 897              		.loc 1 385 0
 898 05dc 0F22     		movs	r2, #15
 899 05de 0021     		movs	r1, #0
 900 05e0 2800     		movs	r0, r5
 901 05e2 FFF7FEFF 		bl	memset
 902              	.LVL145:
 903 05e6 4B46     		mov	r3, r9
 904 05e8 2B70     		strb	r3, [r5]
 905 05ea 0523     		movs	r3, #5
 906 05ec 6B70     		strb	r3, [r5, #1]
 907 05ee 0223     		movs	r3, #2
 908 05f0 EB70     		strb	r3, [r5, #3]
 909 05f2 4346     		mov	r3, r8
 910 05f4 2B71     		strb	r3, [r5, #4]
 911 05f6 6B71     		strb	r3, [r5, #5]
 912 05f8 FD23     		movs	r3, #253
 913 05fa 2B72     		strb	r3, [r5, #8]
 914 05fc FA23     		movs	r3, #250
 915 05fe 6B72     		strb	r3, [r5, #9]
 916 0600 5B46     		mov	r3, fp
 917 0602 AB72     		strb	r3, [r5, #10]
 386:main.c        ****             txBuffer->bufferIndex = 11;
 918              		.loc 1 386 0
 919 0604 0B23     		movs	r3, #11
 920 0606 6383     		strh	r3, [r4, #26]
 387:main.c        ****             memcpy(txBuffer->buffer, basePacket, txBuffer->bufferIndex);
 921              		.loc 1 387 0
 922 0608 6069     		ldr	r0, [r4, #20]
 923 060a 0B22     		movs	r2, #11
 924 060c 2900     		movs	r1, r5
ARM GAS  C:\Users\ccheney\AppData\Local\Temp\ccOO3kAb.s 			page 24


 925 060e FFF7FEFF 		bl	memcpy
 926              	.LVL146:
 388:main.c        ****             testRunner_run(test_packetParsing_stateErrors(&packetBuffer, "Valid packet ", packets_E
 927              		.loc 1 388 0
 928 0612 44AC     		add	r4, sp, #272
 929 0614 0022     		movs	r2, #0
 930 0616 B349     		ldr	r1, .L7+56
 931 0618 2000     		movs	r0, r4
 932 061a FFF7FEFF 		bl	test_packetParsing_stateErrors
 933              	.LVL147:
 934 061e FFF7FEFF 		bl	testRunner_run
 935              	.LVL148:
 389:main.c        ****             /* Incomplete packet */
 390:main.c        ****             txBuffer->bufferIndex = 8;
 936              		.loc 1 390 0
 937 0622 0823     		movs	r3, #8
 938 0624 6383     		strh	r3, [r4, #26]
 391:main.c        ****             memcpy(txBuffer->buffer, noPayloadPacket,txBuffer->bufferIndex);
 939              		.loc 1 391 0
 940 0626 2BAE     		add	r6, sp, #172
 941 0628 0822     		movs	r2, #8
 942 062a 3100     		movs	r1, r6
 943 062c 6069     		ldr	r0, [r4, #20]
 944 062e FFF7FEFF 		bl	memcpy
 945              	.LVL149:
 392:main.c        ****             testRunner_run(test_packetParsing_stateErrors(&packetBuffer, "Short packet", packets_ER
 946              		.loc 1 392 0
 947 0632 2022     		movs	r2, #32
 948 0634 AC49     		ldr	r1, .L7+60
 949 0636 2000     		movs	r0, r4
 950 0638 FFF7FEFF 		bl	test_packetParsing_stateErrors
 951              	.LVL150:
 952 063c FFF7FEFF 		bl	testRunner_run
 953              	.LVL151:
 393:main.c        ****             /* Invalid start symbol */
 394:main.c        ****             uint8 badStartPacket[15] = {0x02, 0x05, 0x00, 0x02, 0xFF, 0xFF, 0x00, 0x00, 0xFD, 0xF9,
 954              		.loc 1 394 0
 955 0640 0F22     		movs	r2, #15
 956 0642 0021     		movs	r1, #0
 957 0644 35A8     		add	r0, sp, #212
 958 0646 FFF7FEFF 		bl	memset
 959              	.LVL152:
 960 064a 0223     		movs	r3, #2
 961 064c 9B46     		mov	fp, r3
 962 064e 6B46     		mov	r3, sp
 963 0650 D422     		movs	r2, #212
 964 0652 9B18     		adds	r3, r3, r2
 965 0654 5A46     		mov	r2, fp
 966 0656 1A70     		strb	r2, [r3]
 967 0658 0523     		movs	r3, #5
 968 065a 9946     		mov	r9, r3
 969 065c 6B46     		mov	r3, sp
 970 065e D522     		movs	r2, #213
 971 0660 9B18     		adds	r3, r3, r2
 972 0662 4A46     		mov	r2, r9
 973 0664 1A70     		strb	r2, [r3]
 974 0666 6B46     		mov	r3, sp
ARM GAS  C:\Users\ccheney\AppData\Local\Temp\ccOO3kAb.s 			page 25


 975 0668 D722     		movs	r2, #215
 976 066a 9B18     		adds	r3, r3, r2
 977 066c 5A46     		mov	r2, fp
 978 066e 1A70     		strb	r2, [r3]
 979 0670 6B46     		mov	r3, sp
 980 0672 D822     		movs	r2, #216
 981 0674 9B18     		adds	r3, r3, r2
 982 0676 4246     		mov	r2, r8
 983 0678 1A70     		strb	r2, [r3]
 984 067a 6B46     		mov	r3, sp
 985 067c D922     		movs	r2, #217
 986 067e 9B18     		adds	r3, r3, r2
 987 0680 4246     		mov	r2, r8
 988 0682 1A70     		strb	r2, [r3]
 989 0684 6B46     		mov	r3, sp
 990 0686 DC22     		movs	r2, #220
 991 0688 9B18     		adds	r3, r3, r2
 992 068a 2132     		adds	r2, r2, #33
 993 068c 1A70     		strb	r2, [r3]
 994 068e F923     		movs	r3, #249
 995 0690 6A46     		mov	r2, sp
 996 0692 DD21     		movs	r1, #221
 997 0694 5218     		adds	r2, r2, r1
 998 0696 1370     		strb	r3, [r2]
 999 0698 6B46     		mov	r3, sp
 1000 069a DE22     		movs	r2, #222
 1001 069c 9B18     		adds	r3, r3, r2
 1002 069e 343A     		subs	r2, r2, #52
 1003 06a0 1A70     		strb	r2, [r3]
 395:main.c        ****             txBuffer->bufferIndex = 11;
 1004              		.loc 1 395 0
 1005 06a2 0B23     		movs	r3, #11
 1006 06a4 6383     		strh	r3, [r4, #26]
 396:main.c        ****             memcpy(txBuffer->buffer, badStartPacket, txBuffer->bufferIndex);
 1007              		.loc 1 396 0
 1008 06a6 0B22     		movs	r2, #11
 1009 06a8 35A9     		add	r1, sp, #212
 1010 06aa 6069     		ldr	r0, [r4, #20]
 1011 06ac FFF7FEFF 		bl	memcpy
 1012              	.LVL153:
 397:main.c        ****             testRunner_run(test_packetParsing_stateErrors(&packetBuffer, "Invalid start sym", packe
 1013              		.loc 1 397 0
 1014 06b0 0222     		movs	r2, #2
 1015 06b2 8E49     		ldr	r1, .L7+64
 1016 06b4 2000     		movs	r0, r4
 1017 06b6 FFF7FEFF 		bl	test_packetParsing_stateErrors
 1018              	.LVL154:
 1019 06ba FFF7FEFF 		bl	testRunner_run
 1020              	.LVL155:
 398:main.c        ****             /* Invalid Checksum */
 399:main.c        ****             uint8 badChecksumPacket[15] = {0x01, 0x05, 0x00, 0x02, 0xFF, 0xFF, 0x00, 0x00, 0xFD, 0x
 1021              		.loc 1 399 0
 1022 06be 3AAF     		add	r7, sp, #232
 1023 06c0 0F22     		movs	r2, #15
 1024 06c2 0021     		movs	r1, #0
 1025 06c4 3800     		movs	r0, r7
 1026 06c6 FFF7FEFF 		bl	memset
ARM GAS  C:\Users\ccheney\AppData\Local\Temp\ccOO3kAb.s 			page 26


 1027              	.LVL156:
 1028 06ca 0123     		movs	r3, #1
 1029 06cc 9A46     		mov	r10, r3
 1030 06ce 3B70     		strb	r3, [r7]
 1031 06d0 4B46     		mov	r3, r9
 1032 06d2 7B70     		strb	r3, [r7, #1]
 1033 06d4 5B46     		mov	r3, fp
 1034 06d6 FB70     		strb	r3, [r7, #3]
 1035 06d8 4346     		mov	r3, r8
 1036 06da 3B71     		strb	r3, [r7, #4]
 1037 06dc 7B71     		strb	r3, [r7, #5]
 1038 06de FD23     		movs	r3, #253
 1039 06e0 3B72     		strb	r3, [r7, #8]
 1040 06e2 F023     		movs	r3, #240
 1041 06e4 7B72     		strb	r3, [r7, #9]
 1042 06e6 463B     		subs	r3, r3, #70
 1043 06e8 BB72     		strb	r3, [r7, #10]
 400:main.c        ****             txBuffer->bufferIndex = 11;
 1044              		.loc 1 400 0
 1045 06ea 0B23     		movs	r3, #11
 1046 06ec 6383     		strh	r3, [r4, #26]
 401:main.c        ****             memcpy(txBuffer->buffer, badChecksumPacket, txBuffer->bufferIndex);
 1047              		.loc 1 401 0
 1048 06ee 0B22     		movs	r2, #11
 1049 06f0 3900     		movs	r1, r7
 1050 06f2 6069     		ldr	r0, [r4, #20]
 1051 06f4 FFF7FEFF 		bl	memcpy
 1052              	.LVL157:
 402:main.c        ****             testRunner_run(test_packetParsing_stateErrors(&packetBuffer, "Bad Checksum", packets_ER
 1053              		.loc 1 402 0
 1054 06f8 8022     		movs	r2, #128
 1055 06fa 9200     		lsls	r2, r2, #2
 1056 06fc 7C49     		ldr	r1, .L7+68
 1057 06fe 2000     		movs	r0, r4
 1058 0700 FFF7FEFF 		bl	test_packetParsing_stateErrors
 1059              	.LVL158:
 1060 0704 FFF7FEFF 		bl	testRunner_run
 1061              	.LVL159:
 403:main.c        ****             /* Invalid End symbol */
 404:main.c        ****             uint8 badEndPacket[15] = {0x01, 0x05, 0x00, 0x02, 0xFF, 0xFF, 0x00, 0x00, 0xFD, 0xFA, 0
 1062              		.loc 1 404 0
 1063 0708 3FAD     		add	r5, sp, #252
 1064 070a 0F22     		movs	r2, #15
 1065 070c 0021     		movs	r1, #0
 1066 070e 2800     		movs	r0, r5
 1067 0710 FFF7FEFF 		bl	memset
 1068              	.LVL160:
 1069 0714 5346     		mov	r3, r10
 1070 0716 2B70     		strb	r3, [r5]
 1071 0718 4B46     		mov	r3, r9
 1072 071a 6B70     		strb	r3, [r5, #1]
 1073 071c 5B46     		mov	r3, fp
 1074 071e EB70     		strb	r3, [r5, #3]
 1075 0720 4346     		mov	r3, r8
 1076 0722 2B71     		strb	r3, [r5, #4]
 1077 0724 6B71     		strb	r3, [r5, #5]
 1078 0726 FD23     		movs	r3, #253
ARM GAS  C:\Users\ccheney\AppData\Local\Temp\ccOO3kAb.s 			page 27


 1079 0728 2B72     		strb	r3, [r5, #8]
 1080 072a FA23     		movs	r3, #250
 1081 072c 6B72     		strb	r3, [r5, #9]
 1082 072e 4F3B     		subs	r3, r3, #79
 1083 0730 AB72     		strb	r3, [r5, #10]
 405:main.c        ****             txBuffer->bufferIndex = 11;
 1084              		.loc 1 405 0
 1085 0732 A03B     		subs	r3, r3, #160
 1086 0734 6383     		strh	r3, [r4, #26]
 406:main.c        ****             memcpy(txBuffer->buffer, badEndPacket, txBuffer->bufferIndex);
 1087              		.loc 1 406 0
 1088 0736 0B22     		movs	r2, #11
 1089 0738 2900     		movs	r1, r5
 1090 073a 6069     		ldr	r0, [r4, #20]
 1091 073c FFF7FEFF 		bl	memcpy
 1092              	.LVL161:
 407:main.c        ****             testRunner_run(test_packetParsing_stateErrors(&packetBuffer, "Invalid End Symbol", pack
 1093              		.loc 1 407 0
 1094 0740 0422     		movs	r2, #4
 1095 0742 6C49     		ldr	r1, .L7+72
 1096 0744 2000     		movs	r0, r4
 1097 0746 FFF7FEFF 		bl	test_packetParsing_stateErrors
 1098              	.LVL162:
 1099 074a FFF7FEFF 		bl	testRunner_run
 1100              	.LVL163:
 408:main.c        ****         
 409:main.c        ****             /* Clean up */
 410:main.c        ****             packets_destoryBuffers(&packetBuffer);
 1101              		.loc 1 410 0
 1102 074e 2000     		movs	r0, r4
 1103 0750 FFF7FEFF 		bl	packets_destoryBuffers
 1104              	.LVL164:
 1105              	.LBE8:
 1106              	.LBB9:
 411:main.c        ****         }
 412:main.c        ****         
 413:main.c        ****         
 414:main.c        ****         /* ### Packet parsing Test Suite - Packet vals ### */
 415:main.c        ****         {
 416:main.c        ****             usbUart_print("\r\n*** Packet parsing - Packet Values ***\r\n");
 1107              		.loc 1 416 0
 1108 0754 6848     		ldr	r0, .L7+76
 1109 0756 FFF7FEFF 		bl	usbUart_print
 1110              	.LVL165:
 417:main.c        ****             /* Setup - Create a packet object and initialize */
 418:main.c        ****             packets_BUFFER_FULL_S packetBuffer1;
 419:main.c        ****             packets_initialize(&packetBuffer1);
 1111              		.loc 1 419 0
 1112 075a 2000     		movs	r0, r4
 1113 075c FFF7FEFF 		bl	packets_initialize
 1114              	.LVL166:
 420:main.c        ****             packets_generateBuffers(&packetBuffer1, packets_LEN_PACKET_128);
 1115              		.loc 1 420 0
 1116 0760 8921     		movs	r1, #137
 1117 0762 2000     		movs	r0, r4
 1118 0764 FFF7FEFF 		bl	packets_generateBuffers
 1119              	.LVL167:
ARM GAS  C:\Users\ccheney\AppData\Local\Temp\ccOO3kAb.s 			page 28


 421:main.c        ****             /* Local references */
 422:main.c        ****             packets_BUFFER_PROCESS_S* txBuffer = &(packetBuffer1.send.processBuffer);
 423:main.c        ****             /* No Payload, success */
 424:main.c        ****             uint8 noPayloadPacket[15] = {0x01, 0x10, 0x00, 0x00, 0x00, 0x00, 0xFF, 0xEF, 0xAA};
 1120              		.loc 1 424 0
 1121 0768 0F22     		movs	r2, #15
 1122 076a 0021     		movs	r1, #0
 1123 076c 03A8     		add	r0, sp, #12
 1124 076e FFF7FEFF 		bl	memset
 1125              	.LVL168:
 1126 0772 6B46     		mov	r3, sp
 1127 0774 5246     		mov	r2, r10
 1128 0776 1A73     		strb	r2, [r3, #12]
 1129 0778 1022     		movs	r2, #16
 1130 077a 5A73     		strb	r2, [r3, #13]
 1131 077c 4246     		mov	r2, r8
 1132 077e 9A74     		strb	r2, [r3, #18]
 1133 0780 EF22     		movs	r2, #239
 1134 0782 DA74     		strb	r2, [r3, #19]
 1135 0784 AA22     		movs	r2, #170
 1136 0786 1A75     		strb	r2, [r3, #20]
 425:main.c        ****             txBuffer->bufferIndex = 9;
 1137              		.loc 1 425 0
 1138 0788 0923     		movs	r3, #9
 1139 078a 6383     		strh	r3, [r4, #26]
 426:main.c        ****             memcpy(txBuffer->buffer, noPayloadPacket, txBuffer->bufferIndex);
 1140              		.loc 1 426 0
 1141 078c 0922     		movs	r2, #9
 1142 078e 03A9     		add	r1, sp, #12
 1143 0790 6069     		ldr	r0, [r4, #20]
 1144 0792 FFF7FEFF 		bl	memcpy
 1145              	.LVL169:
 427:main.c        ****             uint8 payload[15];
 428:main.c        ****             packets_PACKET_S expectedPacket = {
 1146              		.loc 1 428 0
 1147 0796 0023     		movs	r3, #0
 1148 0798 9946     		mov	r9, r3
 1149 079a 3370     		strb	r3, [r6]
 1150 079c 1023     		movs	r3, #16
 1151 079e 7370     		strb	r3, [r6, #1]
 1152 07a0 07AB     		add	r3, sp, #28
 1153 07a2 7360     		str	r3, [r6, #4]
 1154 07a4 8923     		movs	r3, #137
 1155 07a6 3381     		strh	r3, [r6, #8]
 1156 07a8 4B46     		mov	r3, r9
 1157 07aa 7381     		strh	r3, [r6, #10]
 1158 07ac B381     		strh	r3, [r6, #12]
 1159 07ae 4B46     		mov	r3, r9
 1160 07b0 3361     		str	r3, [r6, #16]
 429:main.c        ****                 .moduleId = packets_ID_MODULE_CONTROL,
 430:main.c        ****                 .cmd = 0x10,
 431:main.c        ****                 .payload = payload,
 432:main.c        ****                 .payloadLen = 0,
 433:main.c        ****                 .payloadMax = packets_LEN_PACKET_128,
 434:main.c        ****                 .flags = ZERO,
 435:main.c        ****                 .error = ZERO
 436:main.c        ****             };
ARM GAS  C:\Users\ccheney\AppData\Local\Temp\ccOO3kAb.s 			page 29


 437:main.c        ****             testRunner_run(test_packetParsing_packetVals(&packetBuffer1, "No payload ", &expectedPa
 1161              		.loc 1 437 0
 1162 07b2 3200     		movs	r2, r6
 1163 07b4 5149     		ldr	r1, .L7+80
 1164 07b6 2000     		movs	r0, r4
 1165 07b8 FFF7FEFF 		bl	test_packetParsing_packetVals
 1166              	.LVL170:
 1167 07bc FFF7FEFF 		bl	testRunner_run
 1168              	.LVL171:
 438:main.c        ****             
 439:main.c        ****             /* No Payload, success */
 440:main.c        ****             uint8 basePacket[15] = {0x01, 0x10, 0x00, 0x02, 0xFF, 0xFF, 0x00, 0x00, 0xFD, 0xEF, 0xA
 1169              		.loc 1 440 0
 1170 07c0 0BAE     		add	r6, sp, #44
 1171 07c2 0F22     		movs	r2, #15
 1172 07c4 0021     		movs	r1, #0
 1173 07c6 3000     		movs	r0, r6
 1174 07c8 FFF7FEFF 		bl	memset
 1175              	.LVL172:
 1176 07cc 5346     		mov	r3, r10
 1177 07ce 3370     		strb	r3, [r6]
 1178 07d0 1023     		movs	r3, #16
 1179 07d2 7370     		strb	r3, [r6, #1]
 1180 07d4 5B46     		mov	r3, fp
 1181 07d6 F370     		strb	r3, [r6, #3]
 1182 07d8 4346     		mov	r3, r8
 1183 07da 3371     		strb	r3, [r6, #4]
 1184 07dc 7371     		strb	r3, [r6, #5]
 1185 07de FD23     		movs	r3, #253
 1186 07e0 3372     		strb	r3, [r6, #8]
 1187 07e2 EF23     		movs	r3, #239
 1188 07e4 7372     		strb	r3, [r6, #9]
 1189 07e6 AA23     		movs	r3, #170
 1190 07e8 B372     		strb	r3, [r6, #10]
 441:main.c        ****             uint8 payload2[15] = {0xFF, 0xFF};
 1191              		.loc 1 441 0
 1192 07ea 0FAE     		add	r6, sp, #60
 1193 07ec 0F22     		movs	r2, #15
 1194 07ee 0021     		movs	r1, #0
 1195 07f0 3000     		movs	r0, r6
 1196 07f2 FFF7FEFF 		bl	memset
 1197              	.LVL173:
 1198 07f6 4346     		mov	r3, r8
 1199 07f8 3370     		strb	r3, [r6]
 1200 07fa 7370     		strb	r3, [r6, #1]
 442:main.c        **** //            usbUart_print("checksum: %x\r\n", packets_computeChecksum16(basePacket, 8));
 443:main.c        ****             txBuffer->bufferIndex = 11;
 1201              		.loc 1 443 0
 1202 07fc 0B23     		movs	r3, #11
 1203 07fe 6383     		strh	r3, [r4, #26]
 444:main.c        ****             memcpy(txBuffer->buffer, basePacket, txBuffer->bufferIndex);
 1204              		.loc 1 444 0
 1205 0800 0B22     		movs	r2, #11
 1206 0802 0BA9     		add	r1, sp, #44
 1207 0804 6069     		ldr	r0, [r4, #20]
 1208 0806 FFF7FEFF 		bl	memcpy
 1209              	.LVL174:
ARM GAS  C:\Users\ccheney\AppData\Local\Temp\ccOO3kAb.s 			page 30


 445:main.c        ****             packets_PACKET_S expectedPacket2 = {
 1210              		.loc 1 445 0
 1211 080a 30AA     		add	r2, sp, #192
 1212 080c 0023     		movs	r3, #0
 1213 080e 1370     		strb	r3, [r2]
 1214 0810 1023     		movs	r3, #16
 1215 0812 5370     		strb	r3, [r2, #1]
 1216 0814 0FAB     		add	r3, sp, #60
 1217 0816 5360     		str	r3, [r2, #4]
 1218 0818 8923     		movs	r3, #137
 1219 081a 1381     		strh	r3, [r2, #8]
 1220 081c 5B46     		mov	r3, fp
 1221 081e 5381     		strh	r3, [r2, #10]
 1222 0820 4B46     		mov	r3, r9
 1223 0822 9381     		strh	r3, [r2, #12]
 1224 0824 4B46     		mov	r3, r9
 1225 0826 1361     		str	r3, [r2, #16]
 446:main.c        ****                 .moduleId = packets_ID_MODULE_CONTROL,
 447:main.c        ****                 .cmd = 0x10,
 448:main.c        ****                 .payload = payload2,
 449:main.c        ****                 .payloadLen = 2,
 450:main.c        ****                 .payloadMax = packets_LEN_PACKET_128,
 451:main.c        ****                 .flags = ZERO,
 452:main.c        ****                 .error = ZERO
 453:main.c        ****             };
 454:main.c        ****             testRunner_run(test_packetParsing_packetVals(&packetBuffer1, "Payload exists ", &expect
 1226              		.loc 1 454 0
 1227 0828 3549     		ldr	r1, .L7+84
 1228 082a 2000     		movs	r0, r4
 1229 082c FFF7FEFF 		bl	test_packetParsing_packetVals
 1230              	.LVL175:
 1231 0830 FFF7FEFF 		bl	testRunner_run
 1232              	.LVL176:
 455:main.c        ****             /* Actuation */
 456:main.c        ****             uint8 actuationPacket[15] = {0x01, 0x22, 0x00, 0x02, 0xFF, 0xFF, 0x00, 0x00, 0xFD, 0xDD
 1233              		.loc 1 456 0
 1234 0834 13AE     		add	r6, sp, #76
 1235 0836 0F22     		movs	r2, #15
 1236 0838 0021     		movs	r1, #0
 1237 083a 3000     		movs	r0, r6
 1238 083c FFF7FEFF 		bl	memset
 1239              	.LVL177:
 1240 0840 5346     		mov	r3, r10
 1241 0842 3370     		strb	r3, [r6]
 1242 0844 2223     		movs	r3, #34
 1243 0846 7370     		strb	r3, [r6, #1]
 1244 0848 0223     		movs	r3, #2
 1245 084a F370     		strb	r3, [r6, #3]
 1246 084c 4346     		mov	r3, r8
 1247 084e 3371     		strb	r3, [r6, #4]
 1248 0850 7371     		strb	r3, [r6, #5]
 1249 0852 FD23     		movs	r3, #253
 1250 0854 3372     		strb	r3, [r6, #8]
 1251 0856 DD23     		movs	r3, #221
 1252 0858 7372     		strb	r3, [r6, #9]
 1253 085a 333B     		subs	r3, r3, #51
 1254 085c B372     		strb	r3, [r6, #10]
ARM GAS  C:\Users\ccheney\AppData\Local\Temp\ccOO3kAb.s 			page 31


 457:main.c        ****             uint8 payloadAct[15] = {0xFF, 0xFF};
 1255              		.loc 1 457 0
 1256 085e 17AE     		add	r6, sp, #92
 1257 0860 0F22     		movs	r2, #15
 1258 0862 0021     		movs	r1, #0
 1259 0864 3000     		movs	r0, r6
 1260 0866 FFF7FEFF 		bl	memset
 1261              	.LVL178:
 1262 086a 4346     		mov	r3, r8
 1263 086c 3370     		strb	r3, [r6]
 1264 086e 7370     		strb	r3, [r6, #1]
 458:main.c        ****             txBuffer->bufferIndex = 11;
 1265              		.loc 1 458 0
 1266 0870 0B23     		movs	r3, #11
 1267 0872 6383     		strh	r3, [r4, #26]
 459:main.c        ****             memcpy(txBuffer->buffer, actuationPacket, txBuffer->bufferIndex);
 1268              		.loc 1 459 0
 1269 0874 0B22     		movs	r2, #11
 1270 0876 13A9     		add	r1, sp, #76
 1271 0878 6069     		ldr	r0, [r4, #20]
 1272 087a FFF7FEFF 		bl	memcpy
 1273              	.LVL179:
 460:main.c        ****             packets_PACKET_S expectedPacketAct = {
 1274              		.loc 1 460 0
 1275 087e 6B46     		mov	r3, sp
 1276 0880 D422     		movs	r2, #212
 1277 0882 9B18     		adds	r3, r3, r2
 1278 0884 5246     		mov	r2, r10
 1279 0886 1A70     		strb	r2, [r3]
 1280 0888 6B46     		mov	r3, sp
 1281 088a D522     		movs	r2, #213
 1282 088c 9B18     		adds	r3, r3, r2
 1283 088e B33A     		subs	r2, r2, #179
 1284 0890 1A70     		strb	r2, [r3]
 1285 0892 17AB     		add	r3, sp, #92
 1286 0894 3693     		str	r3, [sp, #216]
 1287 0896 6B46     		mov	r3, sp
 1288 0898 DC22     		movs	r2, #220
 1289 089a 9B18     		adds	r3, r3, r2
 1290 089c 533A     		subs	r2, r2, #83
 1291 089e 1A80     		strh	r2, [r3]
 1292 08a0 6B46     		mov	r3, sp
 1293 08a2 DE22     		movs	r2, #222
 1294 08a4 9B18     		adds	r3, r3, r2
 1295 08a6 5A46     		mov	r2, fp
 1296 08a8 2CE0     		b	.L8
 1297              	.L9:
 1298 08aa C046     		.align	2
 1299              	.L7:
 1300 08ac 44030000 		.word	.LC73
 1301 08b0 5C030000 		.word	.LC75
 1302 08b4 74030000 		.word	.LC77
 1303 08b8 84030000 		.word	.LC79
 1304 08bc 00000000 		.word	imuUart_dummyTxArray
 1305 08c0 90030000 		.word	.LC82
 1306 08c4 00000000 		.word	imuUart_putArray
 1307 08c8 98030000 		.word	.LC85
ARM GAS  C:\Users\ccheney\AppData\Local\Temp\ccOO3kAb.s 			page 32


 1308 08cc C4030000 		.word	.LC87
 1309 08d0 D0030000 		.word	.LC89
 1310 08d4 E0030000 		.word	.LC91
 1311 08d8 EC030000 		.word	.LC93
 1312 08dc FC030000 		.word	.LC95
 1313 08e0 28040000 		.word	.LC97
 1314 08e4 44040000 		.word	.LC99
 1315 08e8 54040000 		.word	.LC101
 1316 08ec 64040000 		.word	.LC103
 1317 08f0 78040000 		.word	.LC105
 1318 08f4 88040000 		.word	.LC107
 1319 08f8 9C040000 		.word	.LC109
 1320 08fc C8040000 		.word	.LC111
 1321 0900 D4040000 		.word	.LC113
 1322              	.L8:
 1323 0904 1A80     		strh	r2, [r3]
 1324 0906 6B46     		mov	r3, sp
 1325 0908 E022     		movs	r2, #224
 1326 090a 9B18     		adds	r3, r3, r2
 1327 090c 4A46     		mov	r2, r9
 1328 090e 1A80     		strh	r2, [r3]
 1329 0910 4B46     		mov	r3, r9
 1330 0912 3993     		str	r3, [sp, #228]
 461:main.c        ****                 .moduleId = packets_ID_MODULE_ACTUATION,
 462:main.c        ****                 .cmd = 0x22,
 463:main.c        ****                 .payload = payloadAct,
 464:main.c        ****                 .payloadLen = 2,
 465:main.c        ****                 .payloadMax = packets_LEN_PACKET_128,
 466:main.c        ****                 .flags = ZERO,
 467:main.c        ****                 .error = ZERO
 468:main.c        ****             };
 469:main.c        ****             testRunner_run(test_packetParsing_packetVals(&packetBuffer1, "Actuation Module", &expec
 1331              		.loc 1 469 0
 1332 0914 35AA     		add	r2, sp, #212
 1333 0916 5A49     		ldr	r1, .L10
 1334 0918 2000     		movs	r0, r4
 1335 091a FFF7FEFF 		bl	test_packetParsing_packetVals
 1336              	.LVL180:
 1337 091e FFF7FEFF 		bl	testRunner_run
 1338              	.LVL181:
 470:main.c        ****             /* Sensing Test */
 471:main.c        ****             uint8 sensingPacket[15] = {0x01, 0x40, 0x00, 0x02, 0xFF, 0xFF, 0x00, 0x00, 0xFD, 0xBF, 
 1339              		.loc 1 471 0
 1340 0922 1BAE     		add	r6, sp, #108
 1341 0924 0F22     		movs	r2, #15
 1342 0926 0021     		movs	r1, #0
 1343 0928 3000     		movs	r0, r6
 1344 092a FFF7FEFF 		bl	memset
 1345              	.LVL182:
 1346 092e 5346     		mov	r3, r10
 1347 0930 3370     		strb	r3, [r6]
 1348 0932 4023     		movs	r3, #64
 1349 0934 7370     		strb	r3, [r6, #1]
 1350 0936 0223     		movs	r3, #2
 1351 0938 F370     		strb	r3, [r6, #3]
 1352 093a 4346     		mov	r3, r8
 1353 093c 3371     		strb	r3, [r6, #4]
ARM GAS  C:\Users\ccheney\AppData\Local\Temp\ccOO3kAb.s 			page 33


 1354 093e 7371     		strb	r3, [r6, #5]
 1355 0940 FD23     		movs	r3, #253
 1356 0942 3372     		strb	r3, [r6, #8]
 1357 0944 BF23     		movs	r3, #191
 1358 0946 7372     		strb	r3, [r6, #9]
 1359 0948 153B     		subs	r3, r3, #21
 1360 094a B372     		strb	r3, [r6, #10]
 472:main.c        ****             uint8 payload3[15] = {0xFF, 0xFF};
 1361              		.loc 1 472 0
 1362 094c 1FAE     		add	r6, sp, #124
 1363 094e 0F22     		movs	r2, #15
 1364 0950 0021     		movs	r1, #0
 1365 0952 3000     		movs	r0, r6
 1366 0954 FFF7FEFF 		bl	memset
 1367              	.LVL183:
 1368 0958 4346     		mov	r3, r8
 1369 095a 3370     		strb	r3, [r6]
 1370 095c 7370     		strb	r3, [r6, #1]
 473:main.c        **** //            usbUart_print("checksum: %x\r\n", packets_computeChecksum16(sensingPacket, 8));
 474:main.c        ****             txBuffer->bufferIndex = 11;
 1371              		.loc 1 474 0
 1372 095e 0B23     		movs	r3, #11
 1373 0960 6383     		strh	r3, [r4, #26]
 475:main.c        ****             memcpy(txBuffer->buffer, sensingPacket, txBuffer->bufferIndex);
 1374              		.loc 1 475 0
 1375 0962 0B22     		movs	r2, #11
 1376 0964 1BA9     		add	r1, sp, #108
 1377 0966 6069     		ldr	r0, [r4, #20]
 1378 0968 FFF7FEFF 		bl	memcpy
 1379              	.LVL184:
 476:main.c        ****             packets_PACKET_S expectedPacket3 = {
 1380              		.loc 1 476 0
 1381 096c 0223     		movs	r3, #2
 1382 096e 3B70     		strb	r3, [r7]
 1383 0970 4023     		movs	r3, #64
 1384 0972 7B70     		strb	r3, [r7, #1]
 1385 0974 7E60     		str	r6, [r7, #4]
 1386 0976 8923     		movs	r3, #137
 1387 0978 3B81     		strh	r3, [r7, #8]
 1388 097a 5B46     		mov	r3, fp
 1389 097c 7B81     		strh	r3, [r7, #10]
 1390 097e 4B46     		mov	r3, r9
 1391 0980 BB81     		strh	r3, [r7, #12]
 1392 0982 4B46     		mov	r3, r9
 1393 0984 3B61     		str	r3, [r7, #16]
 477:main.c        ****                 .moduleId = packets_ID_MODULE_SENSING,
 478:main.c        ****                 .cmd = 0x40,
 479:main.c        ****                 .payload = payload3,
 480:main.c        ****                 .payloadLen = 2,
 481:main.c        ****                 .payloadMax = packets_LEN_PACKET_128,
 482:main.c        ****                 .flags = ZERO,
 483:main.c        ****                 .error = ZERO
 484:main.c        ****             };
 485:main.c        ****             testRunner_run(test_packetParsing_packetVals(&packetBuffer1, "Sensing Module", &expecte
 1394              		.loc 1 485 0
 1395 0986 3A00     		movs	r2, r7
 1396 0988 3E49     		ldr	r1, .L10+4
ARM GAS  C:\Users\ccheney\AppData\Local\Temp\ccOO3kAb.s 			page 34


 1397 098a 2000     		movs	r0, r4
 1398 098c FFF7FEFF 		bl	test_packetParsing_packetVals
 1399              	.LVL185:
 1400 0990 FFF7FEFF 		bl	testRunner_run
 1401              	.LVL186:
 486:main.c        ****             /* Energy Module */
 487:main.c        ****             uint8 energyPacket[15] = {0x01, 0x70, 0x00, 0x02, 0xFF, 0xFF, 0x00, 0x00, 0xFD, 0x8F, 0
 1402              		.loc 1 487 0
 1403 0994 23AE     		add	r6, sp, #140
 1404 0996 0F22     		movs	r2, #15
 1405 0998 0021     		movs	r1, #0
 1406 099a 3000     		movs	r0, r6
 1407 099c FFF7FEFF 		bl	memset
 1408              	.LVL187:
 1409 09a0 5346     		mov	r3, r10
 1410 09a2 3370     		strb	r3, [r6]
 1411 09a4 7023     		movs	r3, #112
 1412 09a6 9A46     		mov	r10, r3
 1413 09a8 7370     		strb	r3, [r6, #1]
 1414 09aa 0223     		movs	r3, #2
 1415 09ac F370     		strb	r3, [r6, #3]
 1416 09ae 4346     		mov	r3, r8
 1417 09b0 3371     		strb	r3, [r6, #4]
 1418 09b2 7371     		strb	r3, [r6, #5]
 1419 09b4 FD23     		movs	r3, #253
 1420 09b6 3372     		strb	r3, [r6, #8]
 1421 09b8 8F23     		movs	r3, #143
 1422 09ba 7372     		strb	r3, [r6, #9]
 1423 09bc 1B33     		adds	r3, r3, #27
 1424 09be B372     		strb	r3, [r6, #10]
 488:main.c        ****             uint8 payloadEnergy[15] = {0xFF, 0xFF};
 1425              		.loc 1 488 0
 1426 09c0 0F22     		movs	r2, #15
 1427 09c2 0021     		movs	r1, #0
 1428 09c4 27A8     		add	r0, sp, #156
 1429 09c6 FFF7FEFF 		bl	memset
 1430              	.LVL188:
 1431 09ca 6B46     		mov	r3, sp
 1432 09cc 9C22     		movs	r2, #156
 1433 09ce 9B18     		adds	r3, r3, r2
 1434 09d0 4246     		mov	r2, r8
 1435 09d2 1A70     		strb	r2, [r3]
 1436 09d4 6B46     		mov	r3, sp
 1437 09d6 9D22     		movs	r2, #157
 1438 09d8 9B18     		adds	r3, r3, r2
 1439 09da 4246     		mov	r2, r8
 1440 09dc 1A70     		strb	r2, [r3]
 489:main.c        ****             txBuffer->bufferIndex = 11;
 1441              		.loc 1 489 0
 1442 09de 0B23     		movs	r3, #11
 1443 09e0 6383     		strh	r3, [r4, #26]
 490:main.c        ****             memcpy(txBuffer->buffer, energyPacket, txBuffer->bufferIndex);
 1444              		.loc 1 490 0
 1445 09e2 0B22     		movs	r2, #11
 1446 09e4 3100     		movs	r1, r6
 1447 09e6 6069     		ldr	r0, [r4, #20]
 1448 09e8 FFF7FEFF 		bl	memcpy
ARM GAS  C:\Users\ccheney\AppData\Local\Temp\ccOO3kAb.s 			page 35


 1449              	.LVL189:
 491:main.c        ****             packets_PACKET_S expectedPacketEnergy = {
 1450              		.loc 1 491 0
 1451 09ec 0326     		movs	r6, #3
 1452 09ee 2E70     		strb	r6, [r5]
 1453 09f0 5346     		mov	r3, r10
 1454 09f2 6B70     		strb	r3, [r5, #1]
 1455 09f4 27AB     		add	r3, sp, #156
 1456 09f6 6B60     		str	r3, [r5, #4]
 1457 09f8 8923     		movs	r3, #137
 1458 09fa 2B81     		strh	r3, [r5, #8]
 1459 09fc 5B46     		mov	r3, fp
 1460 09fe 6B81     		strh	r3, [r5, #10]
 1461 0a00 4B46     		mov	r3, r9
 1462 0a02 AB81     		strh	r3, [r5, #12]
 1463 0a04 4B46     		mov	r3, r9
 1464 0a06 2B61     		str	r3, [r5, #16]
 492:main.c        ****                 .moduleId = packets_ID_MODULE_ENERGY,
 493:main.c        ****                 .cmd = 0x70,
 494:main.c        ****                 .payload = payloadEnergy,
 495:main.c        ****                 .payloadLen = 2,
 496:main.c        ****                 .payloadMax = packets_LEN_PACKET_128,
 497:main.c        ****                 .flags = ZERO,
 498:main.c        ****                 .error = ZERO
 499:main.c        ****             };
 500:main.c        ****             testRunner_run(test_packetParsing_packetVals(&packetBuffer1, "Energy Module", &expected
 1465              		.loc 1 500 0
 1466 0a08 2A00     		movs	r2, r5
 1467 0a0a 1F49     		ldr	r1, .L10+8
 1468 0a0c 2000     		movs	r0, r4
 1469 0a0e FFF7FEFF 		bl	test_packetParsing_packetVals
 1470              	.LVL190:
 1471 0a12 FFF7FEFF 		bl	testRunner_run
 1472              	.LVL191:
 501:main.c        **** //            usbUart_print("%x\r\n", packetBuffer1.receive.packet.moduleId);
 502:main.c        ****             /* Clean up */
 503:main.c        ****             packets_destoryBuffers(&packetBuffer1);
 1473              		.loc 1 503 0
 1474 0a16 2000     		movs	r0, r4
 1475 0a18 FFF7FEFF 		bl	packets_destoryBuffers
 1476              	.LVL192:
 1477              	.LBE9:
 1478              	.LBB10:
 504:main.c        ****         }
 505:main.c        ****         
 506:main.c        ****         /* ### Print testing packet ### */
 507:main.c        ****         {
 508:main.c        ****             usbUart_print("\r\n*** Validate Packets ***\r\n");
 1479              		.loc 1 508 0
 1480 0a1c 1B48     		ldr	r0, .L10+12
 1481 0a1e FFF7FEFF 		bl	usbUart_print
 1482              	.LVL193:
 509:main.c        ****             /* Setup - Create a packet object and initialize */
 510:main.c        ****             packets_BUFFER_FULL_S packetBuffer1;
 511:main.c        ****             packets_initialize(&packetBuffer1);
 1483              		.loc 1 511 0
 1484 0a22 2000     		movs	r0, r4
ARM GAS  C:\Users\ccheney\AppData\Local\Temp\ccOO3kAb.s 			page 36


 1485 0a24 FFF7FEFF 		bl	packets_initialize
 1486              	.LVL194:
 512:main.c        ****             packets_generateBuffers(&packetBuffer1, packets_LEN_PACKET_128);
 1487              		.loc 1 512 0
 1488 0a28 8921     		movs	r1, #137
 1489 0a2a 2000     		movs	r0, r4
 1490 0a2c FFF7FEFF 		bl	packets_generateBuffers
 1491              	.LVL195:
 513:main.c        **** 
 514:main.c        ****             uint8 payload[15] = {0xFF, 0x0F};
 1492              		.loc 1 514 0
 1493 0a30 0F22     		movs	r2, #15
 1494 0a32 0021     		movs	r1, #0
 1495 0a34 3800     		movs	r0, r7
 1496 0a36 FFF7FEFF 		bl	memset
 1497              	.LVL196:
 1498 0a3a 4346     		mov	r3, r8
 1499 0a3c 3B70     		strb	r3, [r7]
 1500 0a3e 0F23     		movs	r3, #15
 1501 0a40 7B70     		strb	r3, [r7, #1]
 515:main.c        ****             packets_PACKET_S testPacket = {
 1502              		.loc 1 515 0
 1503 0a42 2E70     		strb	r6, [r5]
 1504 0a44 5346     		mov	r3, r10
 1505 0a46 6B70     		strb	r3, [r5, #1]
 1506 0a48 6F60     		str	r7, [r5, #4]
 1507 0a4a 8923     		movs	r3, #137
 1508 0a4c 2B81     		strh	r3, [r5, #8]
 1509 0a4e 5B46     		mov	r3, fp
 1510 0a50 6B81     		strh	r3, [r5, #10]
 1511 0a52 4B46     		mov	r3, r9
 1512 0a54 AB81     		strh	r3, [r5, #12]
 1513 0a56 4B46     		mov	r3, r9
 1514 0a58 2B61     		str	r3, [r5, #16]
 516:main.c        ****                 .moduleId = packets_ID_MODULE_ENERGY,
 517:main.c        ****                 .cmd = 0x70,
 518:main.c        ****                 .payload = payload,
 519:main.c        ****                 .payloadLen = 2,
 520:main.c        ****                 .payloadMax = packets_LEN_PACKET_128,
 521:main.c        ****                 .flags = ZERO,
 522:main.c        ****                 .error = ZERO
 523:main.c        ****             };
 524:main.c        ****                         
 525:main.c        ****             packets_printPacket(&testPacket, usbUart_print);
 1515              		.loc 1 525 0
 1516 0a5a 0D49     		ldr	r1, .L10+16
 1517 0a5c 2800     		movs	r0, r5
 1518 0a5e FFF7FEFF 		bl	packets_printPacket
 1519              	.LVL197:
 526:main.c        ****             
 527:main.c        ****             packets_destoryBuffers(&packetBuffer1);
 1520              		.loc 1 527 0
 1521 0a62 2000     		movs	r0, r4
 1522 0a64 FFF7FEFF 		bl	packets_destoryBuffers
 1523              	.LVL198:
 1524              	.LBE10:
 528:main.c        ****             
ARM GAS  C:\Users\ccheney\AppData\Local\Temp\ccOO3kAb.s 			page 37


 529:main.c        ****         }
 530:main.c        ****         
 531:main.c        ****         /* Display test suite results */
 532:main.c        ****         testRunner_printCount();
 1525              		.loc 1 532 0
 1526 0a68 FFF7FEFF 		bl	testRunner_printCount
 1527              	.LVL199:
 533:main.c        **** 
 534:main.c        ****         /* Enable the button */
 535:main.c        ****         usbUart_print("Press any key to re-run tests\r\n");
 1528              		.loc 1 535 0
 1529 0a6c 0948     		ldr	r0, .L10+20
 1530 0a6e FFF7FEFF 		bl	usbUart_print
 1531              	.LVL200:
 1532              	.L2:
 536:main.c        ****         /* Infinite loop */
 537:main.c        ****         for(;;) {
 538:main.c        ****             /* Reset on buton press */
 539:main.c        ****             if(usbUart_getChar()){
 1533              		.loc 1 539 0
 1534 0a72 FFF7FEFF 		bl	UART_USB_UartGetChar
 1535              	.LVL201:
 1536 0a76 0028     		cmp	r0, #0
 1537 0a78 FBD0     		beq	.L2
 540:main.c        ****                 /*Reset the device*/
 541:main.c        ****                 CySoftwareReset();   
 1538              		.loc 1 541 0
 1539 0a7a FFF7FEFF 		bl	CySoftwareReset
 1540              	.LVL202:
 1541 0a7e F8E7     		b	.L2
 1542              	.L11:
 1543              		.align	2
 1544              	.L10:
 1545 0a80 E4040000 		.word	.LC115
 1546 0a84 F8040000 		.word	.LC117
 1547 0a88 08050000 		.word	.LC119
 1548 0a8c 18050000 		.word	.LC121
 1549 0a90 00000000 		.word	usbUart_print
 1550 0a94 38050000 		.word	.LC123
 1551              		.cfi_endproc
 1552              	.LFE36:
 1553              		.size	main, .-main
 1554              		.section	.text.ISR_imuUart,"ax",%progbits
 1555              		.align	2
 1556              		.global	ISR_imuUart
 1557              		.code	16
 1558              		.thumb_func
 1559              		.type	ISR_imuUart, %function
 1560              	ISR_imuUart:
 1561              	.LFB37:
 542:main.c        ****             }
 543:main.c        ****         }
 544:main.c        ****         
 545:main.c        ****     /* End MICA_TEST_PACKETS_ERRORS */
 546:main.c        ****     #elif defined MICA_TEST_PACKETS
 547:main.c        ****         /* Receive a packet from the IMU and print the result via the USB uart */
 548:main.c        ****         /* Start the Components */
ARM GAS  C:\Users\ccheney\AppData\Local\Temp\ccOO3kAb.s 			page 38


 549:main.c        ****         UART_USB_Start();
 550:main.c        ****         UART_IMU_Start();
 551:main.c        ****         LEDS_Write(LEDS_ON_GREEN);
 552:main.c        ****         /* Initialize variables */
 553:main.c        ****         packets_BUFFER_FULL_S packetBuffer;
 554:main.c        ****         packets_initialize(&packetBuffer);
 555:main.c        ****         uint32 error = packets_generateBuffers(&packetBuffer, packets_LEN_PACKET_128);
 556:main.c        ****         /* Ensure packet buffers were created properly */
 557:main.c        ****         if(error){
 558:main.c        ****             LEDS_Write(LEDS_ON_RED);
 559:main.c        ****             for(;;){}
 560:main.c        ****         }
 561:main.c        ****         /* Infinite loop */
 562:main.c        ****         for(;;){
 563:main.c        ****             uint32 data = UART_IMU_UartGetByte();
 564:main.c        ****             /* See if data is available */
 565:main.c        ****             if( !(data & UART_IMU_UART_RX_UNDERFLOW) ){
 566:main.c        ****                 /* Process packet byte, check if packet complete */
 567:main.c        ****                 uint32 err = packets_processRxByte(&packetBuffer, (uint8) data); 
 568:main.c        ****                 /* Inidicate errors */
 569:main.c        ****                 if(err){
 570:main.c        ****                     LEDS_G_Toggle();   
 571:main.c        ****                     /* Reset the receive packet */
 572:main.c        ****                     packets_flushRxBuffers(&packetBuffer);
 573:main.c        ****                 }
 574:main.c        ****                 /* Check if complete */
 575:main.c        ****                 if(packetBuffer.receive.bufferState == packets_BUFFER_RECEIVE_COMPLETE) {
 576:main.c        ****                     LEDS_B_Toggle();
 577:main.c        ****                     /* Parse the packet */
 578:main.c        ****                     packets_parsePacket(&packetBuffer);
 579:main.c        ****                     packets_PACKET_S* rxPacket = &(packetBuffer.receive.packet);
 580:main.c        ****                     /* Clear the screen and print out the data */
 581:main.c        ****                     usbUart_print("\n\r\nModule: %x \r\nCommand: %x\r\nPayload Len: %x\r\n", rxPack
 582:main.c        ****                     usbUart_print("Payload:");
 583:main.c        ****                     uint8 i;
 584:main.c        ****                     for(i=ZERO; i< rxPacket->payloadLen; i++){
 585:main.c        ****                         usbUart_print(" %x", rxPacket->payload[i]);
 586:main.c        ****                     }
 587:main.c        ****                 }
 588:main.c        ****             }
 589:main.c        ****         }
 590:main.c        ****     /* End MICA_TEST_PACKETS */
 591:main.c        ****     #elif defined MICA_TEST_PACKETS_ISR
 592:main.c        ****         /* Receive a packet from the IMU Uart via an interrupt and print the result via the USB uar
 593:main.c        ****         /* Start the Components */
 594:main.c        ****         UART_USB_Start();
 595:main.c        ****         UART_IMU_Start();
 596:main.c        ****         LEDS_Write(LEDS_ON_GREEN);
 597:main.c        ****         /* Initialize variables */
 598:main.c        ****         packets_BUFFER_FULL_S packetBuffer;
 599:main.c        ****         packets_initialize(&packetBuffer);
 600:main.c        ****         uint32 error = packets_generateBuffers(&packetBuffer, packets_LEN_PACKET_128);
 601:main.c        ****         /* Ensure packet buffers were created properly */
 602:main.c        ****         if(error){
 603:main.c        ****             LEDS_Write(LEDS_ON_RED);
 604:main.c        ****             for(;;){}
 605:main.c        ****         }
ARM GAS  C:\Users\ccheney\AppData\Local\Temp\ccOO3kAb.s 			page 39


 606:main.c        ****         /* Enable the uart interrupts */
 607:main.c        ****         UART_IMU_EnableInt();
 608:main.c        ****         UART_IMU_SetCustomInterruptHandler(ISR_imuUart);
 609:main.c        **** 
 610:main.c        ****         /* Infinite loop */
 611:main.c        ****         for(;;){
 612:main.c        ****             /* See if there are any pending bytes */
 613:main.c        ****             if(flag_pendingRxByte){
 614:main.c        ****                 /* Reset the flag */
 615:main.c        ****                 flag_pendingRxByte = false;
 616:main.c        ****                 /* Read in the byte */
 617:main.c        ****                 uint8 newData = imuUart_getChar();
 618:main.c        ****                 uint32 err = packets_processRxByte(&packetBuffer, newData);
 619:main.c        ****                 /* Inidicate errors */
 620:main.c        ****                 if(err){ 
 621:main.c        ****                     /* Reset the receive packet */
 622:main.c        ****                     packets_flushRxBuffers(&packetBuffer);
 623:main.c        ****                 }
 624:main.c        ****                 /* Check if complete */
 625:main.c        ****                 if(packetBuffer.receive.bufferState == packets_BUFFER_RECEIVE_COMPLETE) {
 626:main.c        ****                     LEDS_B_Toggle();
 627:main.c        ****                     /* Parse the packet */
 628:main.c        ****                     packets_parsePacket(&packetBuffer);
 629:main.c        ****                     packets_PACKET_S* rxPacket = &(packetBuffer.receive.packet);
 630:main.c        ****                     /* Clear the screen and print out the data */
 631:main.c        ****                     usbUart_print("\n\r\nModule: %x \r\nCommand: %x\r\nPayload Len: %x\r\n", rxPack
 632:main.c        ****                     usbUart_print("Payload:");
 633:main.c        ****                     uint8 i;
 634:main.c        ****                     for(i=ZERO; i< rxPacket->payloadLen; i++){
 635:main.c        ****                         usbUart_print(" %x", rxPacket->payload[i]);
 636:main.c        ****                     }
 637:main.c        ****                 }
 638:main.c        ****             }
 639:main.c        ****         }
 640:main.c        ****     /* End MICA_TEST_PACKETS_ISR */
 641:main.c        ****     #elif defined MICA_TEST_PERIPHERAL_ID
 642:main.c        ****         /* Request the ID from the peripheral and display the results over USB */
 643:main.c        ****           /* Start the Components */
 644:main.c        ****         UART_USB_Start();
 645:main.c        ****         UART_IMU_Start();
 646:main.c        ****         LEDS_Write(LEDS_ON_GREEN);
 647:main.c        ****         /* Initialize variables */
 648:main.c        ****         packets_BUFFER_FULL_S packetBuffer;
 649:main.c        ****         packets_initialize(&packetBuffer);
 650:main.c        ****         uint32 error = packets_generateBuffers(&packetBuffer, packets_LEN_PACKET_128);
 651:main.c        ****         /* Ensure packet buffers were created properly */
 652:main.c        ****         if(error){
 653:main.c        ****             LEDS_Write(LEDS_ON_RED);
 654:main.c        ****             for(;;){}
 655:main.c        ****         }
 656:main.c        ****         /* Enable the uart interrupts */
 657:main.c        ****         UART_IMU_EnableInt();
 658:main.c        ****         UART_IMU_SetCustomInterruptHandler(ISR_imuUart);
 659:main.c        ****         UART_USB_EnableInt();
 660:main.c        ****         UART_USB_SetCustomInterruptHandler(ISR_usbUart);
 661:main.c        ****         
 662:main.c        ****         /* Print Program Header */
ARM GAS  C:\Users\ccheney\AppData\Local\Temp\ccOO3kAb.s 			page 40


 663:main.c        ****         usbUart_clearScreen();
 664:main.c        ****         usbUart_printHeader(__TIME__, __DATE__, "      Peripheral Packet Test ");
 665:main.c        ****         usbUart_print("\r\nPress 'enter' to request the ID from the peripheral\r\n");
 666:main.c        ****         usbUart_print("Press 'c' to reset the LED to green\r\n");
 667:main.c        ****         usbUart_print("Press 'space' to reset the device\r\n\r\n");
 668:main.c        ****         
 669:main.c        ****         
 670:main.c        ****         /* Infinite loop */
 671:main.c        ****         for(;;){
 672:main.c        ****             /* See if there are any pending bytes */
 673:main.c        ****             if(flag_pendingRxByte){
 674:main.c        ****                 /* Reset the flag */
 675:main.c        ****                 flag_pendingRxByte = false;
 676:main.c        ****                 uint32_t bytesPending = UART_IMU_SpiUartGetRxBufferSize();
 677:main.c        ****                 usbUart_print("Bytes Received: %d\r\n" , bytesPending);
 678:main.c        ****                 /* Read in the data */
 679:main.c        ****                 uint32_t i;
 680:main.c        ****                 for(i = ZERO; i < bytesPending; i++){
 681:main.c        ****                     uint8 newData = imuUart_getChar();
 682:main.c        ****                     usbUart_print("rx:0x%x\r\n", newData);
 683:main.c        ****                     uint32 err = packets_processRxByte(&packetBuffer, newData);
 684:main.c        ****                     /* Inidicate errors */
 685:main.c        ****                     if(err){ 
 686:main.c        ****                         usbUart_print("err: 0x%x\r\n", err);
 687:main.c        ****                         /* Reset the receive packet */
 688:main.c        ****                         packets_flushRxBuffers(&packetBuffer);
 689:main.c        ****                     }
 690:main.c        ****                     /* Check if packet is complete */
 691:main.c        ****                     if(packetBuffer.receive.bufferState == packets_BUFFER_RECEIVE_COMPLETE) {
 692:main.c        ****                         LEDS_Write(LEDS_ON_MAGENTA);
 693:main.c        ****                         /* Parse the packet */
 694:main.c        ****                         packets_parsePacket(&packetBuffer);
 695:main.c        ****                         /* Clear the screen and print out the data */
 696:main.c        ****                         packets_printPacket(&(packetBuffer.receive.packet), usbUart_print);
 697:main.c        ****                     }
 698:main.c        ****                 }
 699:main.c        ****             }
 700:main.c        ****             /* Wait for a usb key to be hit */
 701:main.c        ****             if(flag_pendingUsbByte){
 702:main.c        ****                 /* Reset flag */
 703:main.c        ****                 flag_pendingUsbByte = false;
 704:main.c        ****                 /* Read in the byte */
 705:main.c        ****                 uint8 usbData = usbUart_getChar();
 706:main.c        ****                 if(usbData == '\r'){
 707:main.c        ****                     usbUart_print("Requesting device ID..\r\n");   
 708:main.c        ****                     /* Initiate the request */
 709:main.c        ****                     packetBuffer.send.packet.cmd = packets_CMD_ID;
 710:main.c        ****                     uint32_t err = packets_sendPacket(&packetBuffer);
 711:main.c        ****                     if(!err){
 712:main.c        ****                         usbUart_print("Packet successfully sent, awaiting response\r\n");
 713:main.c        ****                     } else {
 714:main.c        ****                         usbUart_print("Packet failed to send with error 0x%x", err);   
 715:main.c        ****                     }
 716:main.c        ****                 } else if(usbData == 'c'){
 717:main.c        ****                     usbUart_print("Reset LEDs to green\r\n");
 718:main.c        ****                     LEDS_Write(LEDS_ON_GREEN);   
 719:main.c        ****                 } else if(usbData == ' '){
ARM GAS  C:\Users\ccheney\AppData\Local\Temp\ccOO3kAb.s 			page 41


 720:main.c        ****                     /* Reset the device */
 721:main.c        ****                     CySoftwareReset();
 722:main.c        ****                 }
 723:main.c        ****             }
 724:main.c        ****         }
 725:main.c        ****     /* End MICA_TEST_PERIPHERAL_ID */
 726:main.c        ****     #elif defined MICA_TEST_SELF_PACKETS
 727:main.c        ****         /* REQ: Hard-wired RX & TX lines - Send packets to self for testing. Display the results ov
 728:main.c        ****         /* See hardware test MICA_DEBUG_SELF_UART */
 729:main.c        ****                   /* Start the Components */
 730:main.c        ****         UART_USB_Start();
 731:main.c        ****         UART_IMU_Start();
 732:main.c        ****         LEDS_Write(LEDS_ON_GREEN);
 733:main.c        **** 
 734:main.c        ****         /* Print Program Header */
 735:main.c        ****         usbUart_clearScreen();
 736:main.c        ****         usbUart_printHeader(__TIME__, __DATE__, "      Self Packet Test ");
 737:main.c        ****         usbUart_print("\r\nDevice imuUart RX & TX must be wired together\r\n");
 738:main.c        ****         usbUart_print("Press 'space' to reset the device\r\n\r\n");
 739:main.c        ****         
 740:main.c        ****         
 741:main.c        ****         /* ### Self UART Test - Wait ### */
 742:main.c        ****         {
 743:main.c        ****             usbUart_print("\r\n*** Self UART Test ***\r\n");
 744:main.c        ****             uint8_t data[255];
 745:main.c        ****             uint8_t i;
 746:main.c        ****             for(i = ZERO; i<255; i++){
 747:main.c        ****                 data[i] = i;   
 748:main.c        ****             }
 749:main.c        ****             /* Run a single byte; */
 750:main.c        ****             testRunner_run(test_uartSelf("1 Byte", data, 1));
 751:main.c        ****             testRunner_run(test_uartSelf("8 Bytes", data, 8));
 752:main.c        ****             testRunner_run(test_uartSelf("64 Bytes", data, 64));
 753:main.c        ****             testRunner_run(test_uartSelf("packets_LEN_PACKET_128", data, packets_LEN_PACKET_128));
 754:main.c        ****             
 755:main.c        ****         }
 756:main.c        ****         
 757:main.c        ****         /* ### Self Packet Test ### */
 758:main.c        ****         {
 759:main.c        ****             usbUart_print("\r\n*** Self Packet Test - Wait ***\r\n");
 760:main.c        ****             /* Setup - Create a packet object and initialize */
 761:main.c        ****             packets_BUFFER_FULL_S packetBuffer;
 762:main.c        ****             packets_initialize(&packetBuffer);
 763:main.c        ****             packets_generateBuffers(&packetBuffer, packets_LEN_PACKET_128);
 764:main.c        ****             /* Local Variables */
 765:main.c        ****             packets_PACKET_S* txPacket = &(packetBuffer.send.packet);
 766:main.c        ****             
 767:main.c        ****             /* Blank packet */
 768:main.c        ****             testRunner_run(test_selfPacket_wait(&packetBuffer, "Wait - UnInitialized Packet"));
 769:main.c        ****             /* None zero packet */
 770:main.c        ****             txPacket->cmd = 0x01;
 771:main.c        ****             testRunner_run(test_selfPacket_wait(&packetBuffer, "Wait - New command"));
 772:main.c        ****             /* With Payload */
 773:main.c        ****             txPacket->cmd = 0x01;
 774:main.c        ****             uint8_t data[10] = {0x01, 0xff, 0xCC, 0xDD, 0x3E};
 775:main.c        ****             txPacket->payloadLen = 5;
 776:main.c        ****             memcpy(txPacket->payload, data, txPacket->payloadLen);
ARM GAS  C:\Users\ccheney\AppData\Local\Temp\ccOO3kAb.s 			page 42


 777:main.c        ****             testRunner_run(test_selfPacket_wait(&packetBuffer, "Wait - Payload"));
 778:main.c        ****             
 779:main.c        ****             packets_destoryBuffers(&packetBuffer);
 780:main.c        ****         }
 781:main.c        **** 
 782:main.c        ****                /* ### Self Packet Test - Async ### */
 783:main.c        ****         {
 784:main.c        ****             usbUart_print("\r\n*** Self Packet Test - Async ***\r\n");
 785:main.c        ****             /* Setup - Create a packet object and initialize */
 786:main.c        ****             packets_BUFFER_FULL_S packetBuffer;
 787:main.c        ****             packets_initialize(&packetBuffer);
 788:main.c        ****             packets_generateBuffers(&packetBuffer, packets_LEN_PACKET_128);
 789:main.c        ****             /* Local Variables */
 790:main.c        ****             packets_PACKET_S* txPacket = &(packetBuffer.send.packet);
 791:main.c        ****             
 792:main.c        ****             /* Blank packet */
 793:main.c        ****             testRunner_run(test_selfPacket_async(&packetBuffer, "Async - UnInitialized Packet"));
 794:main.c        ****             /* None zero packet */
 795:main.c        ****             txPacket->cmd = 0x01;
 796:main.c        ****             testRunner_run(test_selfPacket_async(&packetBuffer, "Async - New command"));
 797:main.c        ****             /* With Payload */
 798:main.c        ****             txPacket->cmd = 0x01;
 799:main.c        ****             uint8_t data[10] = {0x01, 0xff, 0xCC, 0xDD, 0x3E};
 800:main.c        ****             txPacket->payloadLen = 5;
 801:main.c        ****             memcpy(txPacket->payload, data, txPacket->payloadLen);
 802:main.c        ****             testRunner_run(test_selfPacket_async(&packetBuffer, "Async - Payload"));
 803:main.c        ****             
 804:main.c        ****             packets_destoryBuffers(&packetBuffer);
 805:main.c        ****         }
 806:main.c        ****         
 807:main.c        **** 
 808:main.c        ****         /* Infinite loop */
 809:main.c        ****         for(;;){
 810:main.c        **** 
 811:main.c        ****             /* Read in the byte */
 812:main.c        ****             uint8 usbData = usbUart_getChar();  
 813:main.c        ****             if(usbData == ' '){
 814:main.c        ****                 /* Reset the device */
 815:main.c        ****                 CySoftwareReset();
 816:main.c        ****             }
 817:main.c        ****         }
 818:main.c        ****     /* End MICA_TEST_SELF_PACKETS */
 819:main.c        ****     #else 
 820:main.c        ****         #error "At least ONE MICA_TEST_<case> must be defined if MICA_TEST is defined"
 821:main.c        ****     #endif
 822:main.c        ****     #if defined(MICA_DEBUG) && defined(MICA_TEST)
 823:main.c        ****         #error "MICA_DEBUG and MICA_TEST may not be defined at the same time"
 824:main.c        ****     #endif
 825:main.c        **** #endif /* MICA_TEST */
 826:main.c        **** /* %%%%%%%%%%%%%%%%%%  End Debugging & Testing  %%%%%%%%%%%%%%%%%% */
 827:main.c        ****     
 828:main.c        ****     /* Fall through Infinite Loop */
 829:main.c        ****     for(;;){ }
 830:main.c        **** } /* End main */
 831:main.c        **** 
 832:main.c        **** /*******************************************************************************
 833:main.c        **** * ISR Name: ISR_imuUart()
ARM GAS  C:\Users\ccheney\AppData\Local\Temp\ccOO3kAb.s 			page 43


 834:main.c        **** ********************************************************************************
 835:main.c        **** * Summary:
 836:main.c        **** *   ISR when data is received over the imu UART. Clearing this interrupt is 
 837:main.c        **** *   not required, as it is a level sensitive interrupt.
 838:main.c        **** * Interrupt: 
 839:main.c        **** *       Internal to UART_IMU
 840:main.c        **** *
 841:main.c        **** *******************************************************************************/
 842:main.c        **** void ISR_imuUart(void){
 1562              		.loc 1 842 0
 1563              		.cfi_startproc
 1564              		@ args = 0, pretend = 0, frame = 0
 1565              		@ frame_needed = 0, uses_anonymous_args = 0
 1566              		@ link register save eliminated.
 843:main.c        ****     /* Check if new data is available */
 844:main.c        ****     if( UART_IMU_GetRxInterruptSourceMasked() & UART_IMU_INTR_RX_NOT_EMPTY){
 1567              		.loc 1 844 0
 1568 0000 034B     		ldr	r3, .L14
 1569 0002 1B68     		ldr	r3, [r3]
 1570 0004 5B07     		lsls	r3, r3, #29
 1571 0006 02D5     		bpl	.L12
 845:main.c        ****         flag_pendingRxByte = true;
 1572              		.loc 1 845 0
 1573 0008 0122     		movs	r2, #1
 1574 000a 024B     		ldr	r3, .L14+4
 1575 000c 1A70     		strb	r2, [r3]
 1576              	.L12:
 846:main.c        ****     }
 847:main.c        **** }
 1577              		.loc 1 847 0
 1578              		@ sp needed
 1579 000e 7047     		bx	lr
 1580              	.L15:
 1581              		.align	2
 1582              	.L14:
 1583 0010 CC0F2440 		.word	1076105164
 1584 0014 00000000 		.word	.LANCHOR1
 1585              		.cfi_endproc
 1586              	.LFE37:
 1587              		.size	ISR_imuUart, .-ISR_imuUart
 1588              		.section	.text.ISR_usbUart,"ax",%progbits
 1589              		.align	2
 1590              		.global	ISR_usbUart
 1591              		.code	16
 1592              		.thumb_func
 1593              		.type	ISR_usbUart, %function
 1594              	ISR_usbUart:
 1595              	.LFB38:
 848:main.c        **** 
 849:main.c        **** /*******************************************************************************
 850:main.c        **** * ISR Name: ISR_usbUart()
 851:main.c        **** ********************************************************************************
 852:main.c        **** * Summary:
 853:main.c        **** *   ISR when data is received over the usb UARTClearing this interrupt is 
 854:main.c        **** *   not required, as it is a level sensitive interrupt.
 855:main.c        **** * Interrupt: 
 856:main.c        **** *       Internal to UART_USB
ARM GAS  C:\Users\ccheney\AppData\Local\Temp\ccOO3kAb.s 			page 44


 857:main.c        **** *
 858:main.c        **** *******************************************************************************/
 859:main.c        **** void ISR_usbUart(void){
 1596              		.loc 1 859 0
 1597              		.cfi_startproc
 1598              		@ args = 0, pretend = 0, frame = 0
 1599              		@ frame_needed = 0, uses_anonymous_args = 0
 1600              		@ link register save eliminated.
 860:main.c        ****     /* Check if new data is available */
 861:main.c        ****     if( UART_USB_GetRxInterruptSourceMasked() & UART_USB_INTR_RX_NOT_EMPTY){
 1601              		.loc 1 861 0
 1602 0000 034B     		ldr	r3, .L18
 1603 0002 1B68     		ldr	r3, [r3]
 1604 0004 5B07     		lsls	r3, r3, #29
 1605 0006 02D5     		bpl	.L16
 862:main.c        ****         flag_pendingUsbByte = true;
 1606              		.loc 1 862 0
 1607 0008 0122     		movs	r2, #1
 1608 000a 024B     		ldr	r3, .L18+4
 1609 000c 5A70     		strb	r2, [r3, #1]
 1610              	.L16:
 863:main.c        ****     }
 864:main.c        **** }
 1611              		.loc 1 864 0
 1612              		@ sp needed
 1613 000e 7047     		bx	lr
 1614              	.L19:
 1615              		.align	2
 1616              	.L18:
 1617 0010 CC0F2540 		.word	1076170700
 1618 0014 00000000 		.word	.LANCHOR1
 1619              		.cfi_endproc
 1620              	.LFE38:
 1621              		.size	ISR_usbUart, .-ISR_usbUart
 1622              		.global	isrErr
 1623              		.global	timerExpired
 1624              		.global	flag_pendingUsbByte
 1625              		.global	flag_pendingRxByte
 1626              		.section	.rodata
 1627              		.align	2
 1628              		.set	.LANCHOR0,. + 0
 1629              	.LC0:
 1630 0000 01       		.byte	1
 1631 0001 03       		.byte	3
 1632 0002 05       		.byte	5
 1633              		.section	.rodata.str1.4,"aMS",%progbits,1
 1634              		.align	2
 1635              	.LC2:
 1636 0000 1B5B324A 		.ascii	"\033[2J\033[1;1H\000"
 1636      1B5B313B 
 1636      314800
 1637 000b 00       		.space	1
 1638              	.LC4:
 1639 000c 20202020 		.ascii	"      PACKET TESTING UNIT TESTS \000"
 1639      20205041 
 1639      434B4554 
 1639      20544553 
ARM GAS  C:\Users\ccheney\AppData\Local\Temp\ccOO3kAb.s 			page 45


 1639      54494E47 
 1640 002d 000000   		.space	3
 1641              	.LC6:
 1642 0030 4F637420 		.ascii	"Oct  4 2018\000"
 1642      20342032 
 1642      30313800 
 1643              	.LC8:
 1644 003c 30303A34 		.ascii	"00:44:29\000"
 1644      343A3239 
 1644      00
 1645 0045 000000   		.space	3
 1646              	.LC10:
 1647 0048 0D0A2A2A 		.ascii	"\015\012*** Packet Version ***\015\012\000"
 1647      2A205061 
 1647      636B6574 
 1647      20566572 
 1647      73696F6E 
 1648 0063 00       		.space	1
 1649              	.LC12:
 1650 0064 00       		.ascii	"\000"
 1651 0065 000000   		.space	3
 1652              	.LC14:
 1653 0068 5061636B 		.ascii	"Packet Version 1.4\000"
 1653      65742056 
 1653      65727369 
 1653      6F6E2031 
 1653      2E3400
 1654 007b 00       		.space	1
 1655              	.LC16:
 1656 007c 0D0A2A2A 		.ascii	"\015\012*** Command to Module ***\015\012\000"
 1656      2A20436F 
 1656      6D6D616E 
 1656      6420746F 
 1656      204D6F64 
 1657 009a 0000     		.space	2
 1658              	.LC18:
 1659 009c 436F6E74 		.ascii	"Control Command to Module\000"
 1659      726F6C20 
 1659      436F6D6D 
 1659      616E6420 
 1659      746F204D 
 1660 00b6 0000     		.space	2
 1661              	.LC20:
 1662 00b8 436F6E74 		.ascii	"Control Response to Module\000"
 1662      726F6C20 
 1662      52657370 
 1662      6F6E7365 
 1662      20746F20 
 1663 00d3 00       		.space	1
 1664              	.LC22:
 1665 00d4 41637475 		.ascii	"Actuation Command to Module\000"
 1665      6174696F 
 1665      6E20436F 
 1665      6D6D616E 
 1665      6420746F 
 1666              	.LC24:
 1667 00f0 41637475 		.ascii	"Actuation Response to Module\000"
ARM GAS  C:\Users\ccheney\AppData\Local\Temp\ccOO3kAb.s 			page 46


 1667      6174696F 
 1667      6E205265 
 1667      73706F6E 
 1667      73652074 
 1668 010d 000000   		.space	3
 1669              	.LC26:
 1670 0110 53656E73 		.ascii	"Sensing Command to Module\000"
 1670      696E6720 
 1670      436F6D6D 
 1670      616E6420 
 1670      746F204D 
 1671 012a 0000     		.space	2
 1672              	.LC28:
 1673 012c 53656E73 		.ascii	"Sensing Response to Module\000"
 1673      696E6720 
 1673      52657370 
 1673      6F6E7365 
 1673      20746F20 
 1674 0147 00       		.space	1
 1675              	.LC30:
 1676 0148 456E6572 		.ascii	"Energy Command to Module\000"
 1676      67792043 
 1676      6F6D6D61 
 1676      6E642074 
 1676      6F204D6F 
 1677 0161 000000   		.space	3
 1678              	.LC32:
 1679 0164 456E6572 		.ascii	"Energy Response to Module\000"
 1679      67792052 
 1679      6573706F 
 1679      6E736520 
 1679      746F204D 
 1680 017e 0000     		.space	2
 1681              	.LC34:
 1682 0180 0D0A2A2A 		.ascii	"\015\012*** Buffer generation ***\015\012\000"
 1682      2A204275 
 1682      66666572 
 1682      2067656E 
 1682      65726174 
 1683 019e 0000     		.space	2
 1684              	.LC36:
 1685 01a0 4E6F726D 		.ascii	"Normal\000"
 1685      616C00
 1686 01a7 00       		.space	1
 1687              	.LC38:
 1688 01a8 4C6F6E67 		.ascii	"Long\000"
 1688      00
 1689 01ad 000000   		.space	3
 1690              	.LC40:
 1691 01b0 4D756C74 		.ascii	"Multiple Create\000"
 1691      69706C65 
 1691      20437265 
 1691      61746500 
 1692              	.LC42:
 1693 01c0 0D0A2A2A 		.ascii	"\015\012*** Buffer Destruction ***\015\012\000"
 1693      2A204275 
 1693      66666572 
ARM GAS  C:\Users\ccheney\AppData\Local\Temp\ccOO3kAb.s 			page 47


 1693      20446573 
 1693      74727563 
 1694 01df 00       		.space	1
 1695              	.LC44:
 1696 01e0 4E6F6E2D 		.ascii	"Non-generated\000"
 1696      67656E65 
 1696      72617465 
 1696      6400
 1697 01ee 0000     		.space	2
 1698              	.LC46:
 1699 01f0 4661696C 		.ascii	"Failed Gen\000"
 1699      65642047 
 1699      656E00
 1700 01fb 00       		.space	1
 1701              	.LC48:
 1702 01fc 4D756C74 		.ascii	"Multiple destroy\000"
 1702      69706C65 
 1702      20646573 
 1702      74726F79 
 1702      00
 1703 020d 000000   		.space	3
 1704              	.LC50:
 1705 0210 0D0A2A2A 		.ascii	"\015\012*** Memory Leak Generation ***\015\012\000"
 1705      2A204D65 
 1705      6D6F7279 
 1705      204C6561 
 1705      6B204765 
 1706 0233 00       		.space	1
 1707              	.LC52:
 1708 0234 52657065 		.ascii	"Repeat Generations\000"
 1708      61742047 
 1708      656E6572 
 1708      6174696F 
 1708      6E7300
 1709 0247 00       		.space	1
 1710              	.LC54:
 1711 0248 0D0A2A2A 		.ascii	"\015\012*** Construct Packet Test Suite - State Err"
 1711      2A20436F 
 1711      6E737472 
 1711      75637420 
 1711      5061636B 
 1712 0275 6F727320 		.ascii	"ors ***\015\012\000"
 1712      2A2A2A0D 
 1712      0A00
 1713 027f 00       		.space	1
 1714              	.LC57:
 1715 0280 42617369 		.ascii	"Basic Packet\000"
 1715      63205061 
 1715      636B6574 
 1715      00
 1716 028d 000000   		.space	3
 1717              	.LC59:
 1718 0290 4E6F2050 		.ascii	"No Payload\000"
 1718      61796C6F 
 1718      616400
 1719 029b 00       		.space	1
 1720              	.LC61:
ARM GAS  C:\Users\ccheney\AppData\Local\Temp\ccOO3kAb.s 			page 48


 1721 029c 4C6F6E67 		.ascii	"Long Payload - no memory\000"
 1721      20506179 
 1721      6C6F6164 
 1721      202D206E 
 1721      6F206D65 
 1722 02b5 000000   		.space	3
 1723              	.LC63:
 1724 02b8 4C6F6E67 		.ascii	"Long Payload - max payload, memory\000"
 1724      20506179 
 1724      6C6F6164 
 1724      202D206D 
 1724      61782070 
 1725 02db 00       		.space	1
 1726              	.LC65:
 1727 02dc 0D0A2A2A 		.ascii	"\015\012*** Construct Packet Test Suite - Packet Va"
 1727      2A20436F 
 1727      6E737472 
 1727      75637420 
 1727      5061636B 
 1728 0309 6C756573 		.ascii	"lues ***\015\012\000"
 1728      202A2A2A 
 1728      0D0A00
 1729              	.LC67:
 1730 0314 53696D70 		.ascii	"Simple Packet\000"
 1730      6C652050 
 1730      61636B65 
 1730      7400
 1731 0322 0000     		.space	2
 1732              	.LC69:
 1733 0324 4E6F2070 		.ascii	"No payload\000"
 1733      61796C6F 
 1733      616400
 1734 032f 00       		.space	1
 1735              	.LC71:
 1736 0330 4E6F2061 		.ascii	"No acknowledge flag\000"
 1736      636B6E6F 
 1736      776C6564 
 1736      67652066 
 1736      6C616700 
 1737              	.LC73:
 1738 0344 4E6F2061 		.ascii	"No acknowledge flag 2\000"
 1738      636B6E6F 
 1738      776C6564 
 1738      67652066 
 1738      6C616720 
 1739 035a 0000     		.space	2
 1740              	.LC75:
 1741 035c 0D0A2A2A 		.ascii	"\015\012*** Send Packet ***\015\012\000"
 1741      2A205365 
 1741      6E642050 
 1741      61636B65 
 1741      74202A2A 
 1742              	.LC77:
 1743 0374 4E6F2054 		.ascii	"No TX function\000"
 1743      58206675 
 1743      6E637469 
 1743      6F6E00
ARM GAS  C:\Users\ccheney\AppData\Local\Temp\ccOO3kAb.s 			page 49


 1744 0383 00       		.space	1
 1745              	.LC79:
 1746 0384 44756D6D 		.ascii	"Dummy TX\000"
 1746      79205458 
 1746      00
 1747 038d 000000   		.space	3
 1748              	.LC82:
 1749 0390 5265616C 		.ascii	"Real TX\000"
 1749      20545800 
 1750              	.LC85:
 1751 0398 0D0A2A2A 		.ascii	"\015\012*** Process RX Byte - State Errors ***\015\012"
 1751      2A205072 
 1751      6F636573 
 1751      73205258 
 1751      20427974 
 1752 03c2 00       		.ascii	"\000"
 1753 03c3 00       		.space	1
 1754              	.LC87:
 1755 03c4 4E6F2042 		.ascii	"No Buffers\000"
 1755      75666665 
 1755      727300
 1756 03cf 00       		.space	1
 1757              	.LC89:
 1758 03d0 42756666 		.ascii	"Buffer overflow\000"
 1758      6572206F 
 1758      76657266 
 1758      6C6F7700 
 1759              	.LC91:
 1760 03e0 56616C69 		.ascii	"Valid Start\000"
 1760      64205374 
 1760      61727400 
 1761              	.LC93:
 1762 03ec 696E7661 		.ascii	"invalid Start\000"
 1762      6C696420 
 1762      53746172 
 1762      7400
 1763 03fa 0000     		.space	2
 1764              	.LC95:
 1765 03fc 0D0A2A2A 		.ascii	"\015\012*** Packet parsing - State Errors ***\015\012"
 1765      2A205061 
 1765      636B6574 
 1765      20706172 
 1765      73696E67 
 1766 0425 00       		.ascii	"\000"
 1767 0426 0000     		.space	2
 1768              	.LC97:
 1769 0428 56616C69 		.ascii	"Valid packet - no payload \000"
 1769      64207061 
 1769      636B6574 
 1769      202D206E 
 1769      6F207061 
 1770 0443 00       		.space	1
 1771              	.LC99:
 1772 0444 56616C69 		.ascii	"Valid packet \000"
 1772      64207061 
 1772      636B6574 
 1772      2000
ARM GAS  C:\Users\ccheney\AppData\Local\Temp\ccOO3kAb.s 			page 50


 1773 0452 0000     		.space	2
 1774              	.LC101:
 1775 0454 53686F72 		.ascii	"Short packet\000"
 1775      74207061 
 1775      636B6574 
 1775      00
 1776 0461 000000   		.space	3
 1777              	.LC103:
 1778 0464 496E7661 		.ascii	"Invalid start sym\000"
 1778      6C696420 
 1778      73746172 
 1778      74207379 
 1778      6D00
 1779 0476 0000     		.space	2
 1780              	.LC105:
 1781 0478 42616420 		.ascii	"Bad Checksum\000"
 1781      43686563 
 1781      6B73756D 
 1781      00
 1782 0485 000000   		.space	3
 1783              	.LC107:
 1784 0488 496E7661 		.ascii	"Invalid End Symbol\000"
 1784      6C696420 
 1784      456E6420 
 1784      53796D62 
 1784      6F6C00
 1785 049b 00       		.space	1
 1786              	.LC109:
 1787 049c 0D0A2A2A 		.ascii	"\015\012*** Packet parsing - Packet Values ***\015\012"
 1787      2A205061 
 1787      636B6574 
 1787      20706172 
 1787      73696E67 
 1788 04c6 00       		.ascii	"\000"
 1789 04c7 00       		.space	1
 1790              	.LC111:
 1791 04c8 4E6F2070 		.ascii	"No payload \000"
 1791      61796C6F 
 1791      61642000 
 1792              	.LC113:
 1793 04d4 5061796C 		.ascii	"Payload exists \000"
 1793      6F616420 
 1793      65786973 
 1793      74732000 
 1794              	.LC115:
 1795 04e4 41637475 		.ascii	"Actuation Module\000"
 1795      6174696F 
 1795      6E204D6F 
 1795      64756C65 
 1795      00
 1796 04f5 000000   		.space	3
 1797              	.LC117:
 1798 04f8 53656E73 		.ascii	"Sensing Module\000"
 1798      696E6720 
 1798      4D6F6475 
 1798      6C6500
 1799 0507 00       		.space	1
ARM GAS  C:\Users\ccheney\AppData\Local\Temp\ccOO3kAb.s 			page 51


 1800              	.LC119:
 1801 0508 456E6572 		.ascii	"Energy Module\000"
 1801      6779204D 
 1801      6F64756C 
 1801      6500
 1802 0516 0000     		.space	2
 1803              	.LC121:
 1804 0518 0D0A2A2A 		.ascii	"\015\012*** Validate Packets ***\015\012\000"
 1804      2A205661 
 1804      6C696461 
 1804      74652050 
 1804      61636B65 
 1805 0535 000000   		.space	3
 1806              	.LC123:
 1807 0538 50726573 		.ascii	"Press any key to re-run tests\015\012\000"
 1807      7320616E 
 1807      79206B65 
 1807      7920746F 
 1807      2072652D 
 1808              		.bss
 1809              		.align	2
 1810              		.set	.LANCHOR1,. + 0
 1811              		.type	flag_pendingRxByte, %object
 1812              		.size	flag_pendingRxByte, 1
 1813              	flag_pendingRxByte:
 1814 0000 00       		.space	1
 1815              		.type	flag_pendingUsbByte, %object
 1816              		.size	flag_pendingUsbByte, 1
 1817              	flag_pendingUsbByte:
 1818 0001 00       		.space	1
 1819 0002 0000     		.space	2
 1820              		.type	isrErr, %object
 1821              		.size	isrErr, 4
 1822              	isrErr:
 1823 0004 00000000 		.space	4
 1824              		.type	timerExpired, %object
 1825              		.size	timerExpired, 1
 1826              	timerExpired:
 1827 0008 00       		.space	1
 1828              		.text
 1829              	.Letext0:
 1830              		.file 2 "c:\\program files (x86)\\cypress\\psoc creator\\4.2\\psoc creator\\import\\gnu\\arm\\5.4.
 1831              		.file 3 "c:\\program files (x86)\\cypress\\psoc creator\\4.2\\psoc creator\\import\\gnu\\arm\\5.4.
 1832              		.file 4 "Generated_Source\\PSoC4/cytypes.h"
 1833              		.file 5 "Generated_Source\\PSoC4/packets.h"
 1834              		.file 6 "Generated_Source\\PSoC4/usbUart.h"
 1835              		.file 7 "packet_testing.h"
 1836              		.file 8 "Generated_Source\\PSoC4/testRunner.h"
 1837              		.file 9 "Generated_Source\\PSoC4/LEDS.h"
 1838              		.file 10 "Generated_Source\\PSoC4/UART_USB.h"
 1839              		.file 11 "Generated_Source\\PSoC4/UART_IMU.h"
 1840              		.file 12 "Generated_Source\\PSoC4/UART_USB_SPI_UART.h"
 1841              		.file 13 "Generated_Source\\PSoC4/CyLib.h"
 1842              		.section	.debug_info,"",%progbits
 1843              	.Ldebug_info0:
 1844 0000 391A0000 		.4byte	0x1a39
 1845 0004 0400     		.2byte	0x4
ARM GAS  C:\Users\ccheney\AppData\Local\Temp\ccOO3kAb.s 			page 52


 1846 0006 00000000 		.4byte	.Ldebug_abbrev0
 1847 000a 04       		.byte	0x4
 1848 000b 01       		.uleb128 0x1
 1849 000c 6B020000 		.4byte	.LASF123
 1850 0010 0C       		.byte	0xc
 1851 0011 3B000000 		.4byte	.LASF124
 1852 0015 6E060000 		.4byte	.LASF125
 1853 0019 00000000 		.4byte	.Ldebug_ranges0+0
 1854 001d 00000000 		.4byte	0
 1855 0021 00000000 		.4byte	.Ldebug_line0
 1856 0025 02       		.uleb128 0x2
 1857 0026 01       		.byte	0x1
 1858 0027 06       		.byte	0x6
 1859 0028 E5070000 		.4byte	.LASF0
 1860 002c 03       		.uleb128 0x3
 1861 002d 03060000 		.4byte	.LASF3
 1862 0031 02       		.byte	0x2
 1863 0032 1D       		.byte	0x1d
 1864 0033 37000000 		.4byte	0x37
 1865 0037 02       		.uleb128 0x2
 1866 0038 01       		.byte	0x1
 1867 0039 08       		.byte	0x8
 1868 003a 52070000 		.4byte	.LASF1
 1869 003e 02       		.uleb128 0x2
 1870 003f 02       		.byte	0x2
 1871 0040 05       		.byte	0x5
 1872 0041 75050000 		.4byte	.LASF2
 1873 0045 03       		.uleb128 0x3
 1874 0046 13020000 		.4byte	.LASF4
 1875 004a 02       		.byte	0x2
 1876 004b 2B       		.byte	0x2b
 1877 004c 50000000 		.4byte	0x50
 1878 0050 02       		.uleb128 0x2
 1879 0051 02       		.byte	0x2
 1880 0052 07       		.byte	0x7
 1881 0053 F1070000 		.4byte	.LASF5
 1882 0057 02       		.uleb128 0x2
 1883 0058 04       		.byte	0x4
 1884 0059 05       		.byte	0x5
 1885 005a 9C050000 		.4byte	.LASF6
 1886 005e 03       		.uleb128 0x3
 1887 005f 60070000 		.4byte	.LASF7
 1888 0063 02       		.byte	0x2
 1889 0064 41       		.byte	0x41
 1890 0065 69000000 		.4byte	0x69
 1891 0069 02       		.uleb128 0x2
 1892 006a 04       		.byte	0x4
 1893 006b 07       		.byte	0x7
 1894 006c D4060000 		.4byte	.LASF8
 1895 0070 02       		.uleb128 0x2
 1896 0071 08       		.byte	0x8
 1897 0072 05       		.byte	0x5
 1898 0073 E1030000 		.4byte	.LASF9
 1899 0077 02       		.uleb128 0x2
 1900 0078 08       		.byte	0x8
 1901 0079 07       		.byte	0x7
 1902 007a D8010000 		.4byte	.LASF10
ARM GAS  C:\Users\ccheney\AppData\Local\Temp\ccOO3kAb.s 			page 53


 1903 007e 04       		.uleb128 0x4
 1904 007f 04       		.byte	0x4
 1905 0080 05       		.byte	0x5
 1906 0081 696E7400 		.ascii	"int\000"
 1907 0085 02       		.uleb128 0x2
 1908 0086 04       		.byte	0x4
 1909 0087 07       		.byte	0x7
 1910 0088 AB000000 		.4byte	.LASF11
 1911 008c 03       		.uleb128 0x3
 1912 008d C7030000 		.4byte	.LASF12
 1913 0091 03       		.byte	0x3
 1914 0092 18       		.byte	0x18
 1915 0093 2C000000 		.4byte	0x2c
 1916 0097 03       		.uleb128 0x3
 1917 0098 F2040000 		.4byte	.LASF13
 1918 009c 03       		.byte	0x3
 1919 009d 24       		.byte	0x24
 1920 009e 45000000 		.4byte	0x45
 1921 00a2 03       		.uleb128 0x3
 1922 00a3 4F010000 		.4byte	.LASF14
 1923 00a7 03       		.byte	0x3
 1924 00a8 30       		.byte	0x30
 1925 00a9 5E000000 		.4byte	0x5e
 1926 00ad 05       		.uleb128 0x5
 1927 00ae 48080000 		.4byte	.LASF15
 1928 00b2 04       		.byte	0x4
 1929 00b3 E401     		.2byte	0x1e4
 1930 00b5 37000000 		.4byte	0x37
 1931 00b9 05       		.uleb128 0x5
 1932 00ba 57040000 		.4byte	.LASF16
 1933 00be 04       		.byte	0x4
 1934 00bf E601     		.2byte	0x1e6
 1935 00c1 69000000 		.4byte	0x69
 1936 00c5 02       		.uleb128 0x2
 1937 00c6 04       		.byte	0x4
 1938 00c7 04       		.byte	0x4
 1939 00c8 9E010000 		.4byte	.LASF17
 1940 00cc 02       		.uleb128 0x2
 1941 00cd 08       		.byte	0x8
 1942 00ce 04       		.byte	0x4
 1943 00cf 4E080000 		.4byte	.LASF18
 1944 00d3 02       		.uleb128 0x2
 1945 00d4 01       		.byte	0x1
 1946 00d5 08       		.byte	0x8
 1947 00d6 71030000 		.4byte	.LASF19
 1948 00da 05       		.uleb128 0x5
 1949 00db 07050000 		.4byte	.LASF20
 1950 00df 04       		.byte	0x4
 1951 00e0 9002     		.2byte	0x290
 1952 00e2 E6000000 		.4byte	0xe6
 1953 00e6 06       		.uleb128 0x6
 1954 00e7 B9000000 		.4byte	0xb9
 1955 00eb 02       		.uleb128 0x2
 1956 00ec 08       		.byte	0x8
 1957 00ed 04       		.byte	0x4
 1958 00ee D4040000 		.4byte	.LASF21
 1959 00f2 02       		.uleb128 0x2
ARM GAS  C:\Users\ccheney\AppData\Local\Temp\ccOO3kAb.s 			page 54


 1960 00f3 04       		.byte	0x4
 1961 00f4 07       		.byte	0x7
 1962 00f5 65060000 		.4byte	.LASF22
 1963 00f9 07       		.uleb128 0x7
 1964 00fa 04       		.byte	0x4
 1965 00fb AD000000 		.4byte	0xad
 1966 00ff 02       		.uleb128 0x2
 1967 0100 01       		.byte	0x1
 1968 0101 02       		.byte	0x2
 1969 0102 20030000 		.4byte	.LASF23
 1970 0106 08       		.uleb128 0x8
 1971 0107 01       		.byte	0x1
 1972 0108 37000000 		.4byte	0x37
 1973 010c 05       		.byte	0x5
 1974 010d 8E       		.byte	0x8e
 1975 010e 31010000 		.4byte	0x131
 1976 0112 09       		.uleb128 0x9
 1977 0113 0D060000 		.4byte	.LASF24
 1978 0117 00       		.byte	0
 1979 0118 09       		.uleb128 0x9
 1980 0119 B7070000 		.4byte	.LASF25
 1981 011d 01       		.byte	0x1
 1982 011e 09       		.uleb128 0x9
 1983 011f E4050000 		.4byte	.LASF26
 1984 0123 02       		.byte	0x2
 1985 0124 09       		.uleb128 0x9
 1986 0125 33050000 		.4byte	.LASF27
 1987 0129 03       		.byte	0x3
 1988 012a 09       		.uleb128 0x9
 1989 012b 04040000 		.4byte	.LASF28
 1990 012f 04       		.byte	0x4
 1991 0130 00       		.byte	0
 1992 0131 03       		.uleb128 0x3
 1993 0132 2C030000 		.4byte	.LASF29
 1994 0136 05       		.byte	0x5
 1995 0137 94       		.byte	0x94
 1996 0138 06010000 		.4byte	0x106
 1997 013c 08       		.uleb128 0x8
 1998 013d 01       		.byte	0x1
 1999 013e 37000000 		.4byte	0x37
 2000 0142 05       		.byte	0x5
 2001 0143 97       		.byte	0x97
 2002 0144 61010000 		.4byte	0x161
 2003 0148 09       		.uleb128 0x9
 2004 0149 5E040000 		.4byte	.LASF30
 2005 014d 00       		.byte	0
 2006 014e 09       		.uleb128 0x9
 2007 014f 33060000 		.4byte	.LASF31
 2008 0153 01       		.byte	0x1
 2009 0154 09       		.uleb128 0x9
 2010 0155 7F050000 		.4byte	.LASF32
 2011 0159 02       		.byte	0x2
 2012 015a 09       		.uleb128 0x9
 2013 015b 0D050000 		.4byte	.LASF33
 2014 015f 03       		.byte	0x3
 2015 0160 00       		.byte	0
 2016 0161 03       		.uleb128 0x3
ARM GAS  C:\Users\ccheney\AppData\Local\Temp\ccOO3kAb.s 			page 55


 2017 0162 BC010000 		.4byte	.LASF34
 2018 0166 05       		.byte	0x5
 2019 0167 9C       		.byte	0x9c
 2020 0168 3C010000 		.4byte	0x13c
 2021 016c 0A       		.uleb128 0xa
 2022 016d 0C       		.byte	0xc
 2023 016e 05       		.byte	0x5
 2024 016f A7       		.byte	0xa7
 2025 0170 A5010000 		.4byte	0x1a5
 2026 0174 0B       		.uleb128 0xb
 2027 0175 A4000000 		.4byte	.LASF35
 2028 0179 05       		.byte	0x5
 2029 017a A8       		.byte	0xa8
 2030 017b A5010000 		.4byte	0x1a5
 2031 017f 00       		.byte	0
 2032 0180 0B       		.uleb128 0xb
 2033 0181 B4050000 		.4byte	.LASF36
 2034 0185 05       		.byte	0x5
 2035 0186 A9       		.byte	0xa9
 2036 0187 97000000 		.4byte	0x97
 2037 018b 04       		.byte	0x4
 2038 018c 0B       		.uleb128 0xb
 2039 018d FB040000 		.4byte	.LASF37
 2040 0191 05       		.byte	0x5
 2041 0192 AA       		.byte	0xaa
 2042 0193 97000000 		.4byte	0x97
 2043 0197 06       		.byte	0x6
 2044 0198 0B       		.uleb128 0xb
 2045 0199 76070000 		.4byte	.LASF38
 2046 019d 05       		.byte	0x5
 2047 019e AB       		.byte	0xab
 2048 019f A2000000 		.4byte	0xa2
 2049 01a3 08       		.byte	0x8
 2050 01a4 00       		.byte	0
 2051 01a5 07       		.uleb128 0x7
 2052 01a6 04       		.byte	0x4
 2053 01a7 8C000000 		.4byte	0x8c
 2054 01ab 03       		.uleb128 0x3
 2055 01ac 80070000 		.4byte	.LASF39
 2056 01b0 05       		.byte	0x5
 2057 01b1 AC       		.byte	0xac
 2058 01b2 6C010000 		.4byte	0x16c
 2059 01b6 0A       		.uleb128 0xa
 2060 01b7 14       		.byte	0x14
 2061 01b8 05       		.byte	0x5
 2062 01b9 B0       		.byte	0xb0
 2063 01ba 13020000 		.4byte	0x213
 2064 01be 0B       		.uleb128 0xb
 2065 01bf 11080000 		.4byte	.LASF40
 2066 01c3 05       		.byte	0x5
 2067 01c4 B1       		.byte	0xb1
 2068 01c5 8C000000 		.4byte	0x8c
 2069 01c9 00       		.byte	0
 2070 01ca 0C       		.uleb128 0xc
 2071 01cb 636D6400 		.ascii	"cmd\000"
 2072 01cf 05       		.byte	0x5
 2073 01d0 B2       		.byte	0xb2
ARM GAS  C:\Users\ccheney\AppData\Local\Temp\ccOO3kAb.s 			page 56


 2074 01d1 8C000000 		.4byte	0x8c
 2075 01d5 01       		.byte	0x1
 2076 01d6 0B       		.uleb128 0xb
 2077 01d7 18030000 		.4byte	.LASF41
 2078 01db 05       		.byte	0x5
 2079 01dc B3       		.byte	0xb3
 2080 01dd A5010000 		.4byte	0x1a5
 2081 01e1 04       		.byte	0x4
 2082 01e2 0B       		.uleb128 0xb
 2083 01e3 6B070000 		.4byte	.LASF42
 2084 01e7 05       		.byte	0x5
 2085 01e8 B4       		.byte	0xb4
 2086 01e9 97000000 		.4byte	0x97
 2087 01ed 08       		.byte	0x8
 2088 01ee 0B       		.uleb128 0xb
 2089 01ef BE050000 		.4byte	.LASF43
 2090 01f3 05       		.byte	0x5
 2091 01f4 B5       		.byte	0xb5
 2092 01f5 97000000 		.4byte	0x97
 2093 01f9 0A       		.byte	0xa
 2094 01fa 0B       		.uleb128 0xb
 2095 01fb 85000000 		.4byte	.LASF44
 2096 01ff 05       		.byte	0x5
 2097 0200 B6       		.byte	0xb6
 2098 0201 97000000 		.4byte	0x97
 2099 0205 0C       		.byte	0xc
 2100 0206 0B       		.uleb128 0xb
 2101 0207 DA000000 		.4byte	.LASF45
 2102 020b 05       		.byte	0x5
 2103 020c B7       		.byte	0xb7
 2104 020d A2000000 		.4byte	0xa2
 2105 0211 10       		.byte	0x10
 2106 0212 00       		.byte	0
 2107 0213 03       		.uleb128 0x3
 2108 0214 E0000000 		.4byte	.LASF46
 2109 0218 05       		.byte	0x5
 2110 0219 B8       		.byte	0xb8
 2111 021a B6010000 		.4byte	0x1b6
 2112 021e 0A       		.uleb128 0xa
 2113 021f 24       		.byte	0x24
 2114 0220 05       		.byte	0x5
 2115 0221 BB       		.byte	0xbb
 2116 0222 4B020000 		.4byte	0x24b
 2117 0226 0B       		.uleb128 0xb
 2118 0227 17070000 		.4byte	.LASF47
 2119 022b 05       		.byte	0x5
 2120 022c BC       		.byte	0xbc
 2121 022d 13020000 		.4byte	0x213
 2122 0231 00       		.byte	0
 2123 0232 0B       		.uleb128 0xb
 2124 0233 2D000000 		.4byte	.LASF48
 2125 0237 05       		.byte	0x5
 2126 0238 BD       		.byte	0xbd
 2127 0239 AB010000 		.4byte	0x1ab
 2128 023d 14       		.byte	0x14
 2129 023e 0B       		.uleb128 0xb
 2130 023f 56030000 		.4byte	.LASF49
ARM GAS  C:\Users\ccheney\AppData\Local\Temp\ccOO3kAb.s 			page 57


 2131 0243 05       		.byte	0x5
 2132 0244 BE       		.byte	0xbe
 2133 0245 61010000 		.4byte	0x161
 2134 0249 20       		.byte	0x20
 2135 024a 00       		.byte	0
 2136 024b 03       		.uleb128 0x3
 2137 024c FD010000 		.4byte	.LASF50
 2138 0250 05       		.byte	0x5
 2139 0251 BF       		.byte	0xbf
 2140 0252 1E020000 		.4byte	0x21e
 2141 0256 0A       		.uleb128 0xa
 2142 0257 24       		.byte	0x24
 2143 0258 05       		.byte	0x5
 2144 0259 C2       		.byte	0xc2
 2145 025a 83020000 		.4byte	0x283
 2146 025e 0B       		.uleb128 0xb
 2147 025f 17070000 		.4byte	.LASF47
 2148 0263 05       		.byte	0x5
 2149 0264 C3       		.byte	0xc3
 2150 0265 13020000 		.4byte	0x213
 2151 0269 00       		.byte	0
 2152 026a 0B       		.uleb128 0xb
 2153 026b 2D000000 		.4byte	.LASF48
 2154 026f 05       		.byte	0x5
 2155 0270 C4       		.byte	0xc4
 2156 0271 AB010000 		.4byte	0x1ab
 2157 0275 14       		.byte	0x14
 2158 0276 0B       		.uleb128 0xb
 2159 0277 56030000 		.4byte	.LASF49
 2160 027b 05       		.byte	0x5
 2161 027c C5       		.byte	0xc5
 2162 027d 31010000 		.4byte	0x131
 2163 0281 20       		.byte	0x20
 2164 0282 00       		.byte	0
 2165 0283 03       		.uleb128 0x3
 2166 0284 8B000000 		.4byte	.LASF51
 2167 0288 05       		.byte	0x5
 2168 0289 C6       		.byte	0xc6
 2169 028a 56020000 		.4byte	0x256
 2170 028e 0A       		.uleb128 0xa
 2171 028f 18       		.byte	0x18
 2172 0290 05       		.byte	0x5
 2173 0291 C9       		.byte	0xc9
 2174 0292 DF020000 		.4byte	0x2df
 2175 0296 0B       		.uleb128 0xb
 2176 0297 CE000000 		.4byte	.LASF52
 2177 029b 05       		.byte	0x5
 2178 029c CA       		.byte	0xca
 2179 029d EF020000 		.4byte	0x2ef
 2180 02a1 00       		.byte	0
 2181 02a2 0B       		.uleb128 0xb
 2182 02a3 86040000 		.4byte	.LASF53
 2183 02a7 05       		.byte	0x5
 2184 02a8 CB       		.byte	0xcb
 2185 02a9 EF020000 		.4byte	0x2ef
 2186 02ad 04       		.byte	0x4
 2187 02ae 0B       		.uleb128 0xb
ARM GAS  C:\Users\ccheney\AppData\Local\Temp\ccOO3kAb.s 			page 58


 2188 02af E0040000 		.4byte	.LASF54
 2189 02b3 05       		.byte	0x5
 2190 02b4 CC       		.byte	0xcc
 2191 02b5 FA020000 		.4byte	0x2fa
 2192 02b9 08       		.byte	0x8
 2193 02ba 0B       		.uleb128 0xb
 2194 02bb F5060000 		.4byte	.LASF55
 2195 02bf 05       		.byte	0x5
 2196 02c0 CD       		.byte	0xcd
 2197 02c1 FA020000 		.4byte	0x2fa
 2198 02c5 0C       		.byte	0xc
 2199 02c6 0B       		.uleb128 0xb
 2200 02c7 7D080000 		.4byte	.LASF56
 2201 02cb 05       		.byte	0x5
 2202 02cc CE       		.byte	0xce
 2203 02cd 11030000 		.4byte	0x311
 2204 02d1 10       		.byte	0x10
 2205 02d2 0B       		.uleb128 0xb
 2206 02d3 79000000 		.4byte	.LASF57
 2207 02d7 05       		.byte	0x5
 2208 02d8 CF       		.byte	0xcf
 2209 02d9 11030000 		.4byte	0x311
 2210 02dd 14       		.byte	0x14
 2211 02de 00       		.byte	0
 2212 02df 0D       		.uleb128 0xd
 2213 02e0 EF020000 		.4byte	0x2ef
 2214 02e4 0E       		.uleb128 0xe
 2215 02e5 F9000000 		.4byte	0xf9
 2216 02e9 0E       		.uleb128 0xe
 2217 02ea 97000000 		.4byte	0x97
 2218 02ee 00       		.byte	0
 2219 02ef 07       		.uleb128 0x7
 2220 02f0 04       		.byte	0x4
 2221 02f1 DF020000 		.4byte	0x2df
 2222 02f5 0F       		.uleb128 0xf
 2223 02f6 A2000000 		.4byte	0xa2
 2224 02fa 07       		.uleb128 0x7
 2225 02fb 04       		.byte	0x4
 2226 02fc F5020000 		.4byte	0x2f5
 2227 0300 0D       		.uleb128 0xd
 2228 0301 0B030000 		.4byte	0x30b
 2229 0305 0E       		.uleb128 0xe
 2230 0306 0B030000 		.4byte	0x30b
 2231 030a 00       		.byte	0
 2232 030b 07       		.uleb128 0x7
 2233 030c 04       		.byte	0x4
 2234 030d 13020000 		.4byte	0x213
 2235 0311 07       		.uleb128 0x7
 2236 0312 04       		.byte	0x4
 2237 0313 00030000 		.4byte	0x300
 2238 0317 03       		.uleb128 0x3
 2239 0318 38040000 		.4byte	.LASF58
 2240 031c 05       		.byte	0x5
 2241 031d D0       		.byte	0xd0
 2242 031e 8E020000 		.4byte	0x28e
 2243 0322 0A       		.uleb128 0xa
 2244 0323 60       		.byte	0x60
ARM GAS  C:\Users\ccheney\AppData\Local\Temp\ccOO3kAb.s 			page 59


 2245 0324 05       		.byte	0x5
 2246 0325 D3       		.byte	0xd3
 2247 0326 4F030000 		.4byte	0x34f
 2248 032a 0B       		.uleb128 0xb
 2249 032b 4A010000 		.4byte	.LASF59
 2250 032f 05       		.byte	0x5
 2251 0330 D4       		.byte	0xd4
 2252 0331 4B020000 		.4byte	0x24b
 2253 0335 00       		.byte	0
 2254 0336 0B       		.uleb128 0xb
 2255 0337 9E030000 		.4byte	.LASF60
 2256 033b 05       		.byte	0x5
 2257 033c D5       		.byte	0xd5
 2258 033d 83020000 		.4byte	0x283
 2259 0341 24       		.byte	0x24
 2260 0342 0B       		.uleb128 0xb
 2261 0343 97080000 		.4byte	.LASF61
 2262 0347 05       		.byte	0x5
 2263 0348 D6       		.byte	0xd6
 2264 0349 17030000 		.4byte	0x317
 2265 034d 48       		.byte	0x48
 2266 034e 00       		.byte	0
 2267 034f 03       		.uleb128 0x3
 2268 0350 3C070000 		.4byte	.LASF62
 2269 0354 05       		.byte	0x5
 2270 0355 D7       		.byte	0xd7
 2271 0356 22030000 		.4byte	0x322
 2272 035a 06       		.uleb128 0x6
 2273 035b A2000000 		.4byte	0xa2
 2274 035f 10       		.uleb128 0x10
 2275 0360 31080000 		.4byte	.LASF126
 2276 0364 01       		.byte	0x1
 2277 0365 5F       		.byte	0x5f
 2278 0366 7E000000 		.4byte	0x7e
 2279 036a 00000000 		.4byte	.LFB36
 2280 036e 980A0000 		.4byte	.LFE36-.LFB36
 2281 0372 01       		.uleb128 0x1
 2282 0373 9C       		.byte	0x9c
 2283 0374 73180000 		.4byte	0x1873
 2284 0378 11       		.uleb128 0x11
 2285 0379 B2010000 		.4byte	.LBB2
 2286 037d 56000000 		.4byte	.LBE2-.LBB2
 2287 0381 79040000 		.4byte	0x479
 2288 0385 12       		.uleb128 0x12
 2289 0386 A6030000 		.4byte	.LASF63
 2290 038a 01       		.byte	0x1
 2291 038b D5       		.byte	0xd5
 2292 038c 4F030000 		.4byte	0x34f
 2293 0390 03       		.uleb128 0x3
 2294 0391 91       		.byte	0x91
 2295 0392 F87E     		.sleb128 -136
 2296 0394 13       		.uleb128 0x13
 2297 0395 BA010000 		.4byte	.LVL58
 2298 0399 16190000 		.4byte	0x1916
 2299 039d A8030000 		.4byte	0x3a8
 2300 03a1 14       		.uleb128 0x14
 2301 03a2 01       		.uleb128 0x1
ARM GAS  C:\Users\ccheney\AppData\Local\Temp\ccOO3kAb.s 			page 60


 2302 03a3 50       		.byte	0x50
 2303 03a4 02       		.uleb128 0x2
 2304 03a5 74       		.byte	0x74
 2305 03a6 00       		.sleb128 0
 2306 03a7 00       		.byte	0
 2307 03a8 13       		.uleb128 0x13
 2308 03a9 C0010000 		.4byte	.LVL59
 2309 03ad 21190000 		.4byte	0x1921
 2310 03b1 BF030000 		.4byte	0x3bf
 2311 03b5 14       		.uleb128 0x14
 2312 03b6 01       		.uleb128 0x1
 2313 03b7 50       		.byte	0x50
 2314 03b8 05       		.uleb128 0x5
 2315 03b9 03       		.byte	0x3
 2316 03ba 80010000 		.4byte	.LC34
 2317 03be 00       		.byte	0
 2318 03bf 13       		.uleb128 0x13
 2319 03c0 CE010000 		.4byte	.LVL60
 2320 03c4 2C190000 		.4byte	0x192c
 2321 03c8 E4030000 		.4byte	0x3e4
 2322 03cc 14       		.uleb128 0x14
 2323 03cd 01       		.uleb128 0x1
 2324 03ce 50       		.byte	0x50
 2325 03cf 02       		.uleb128 0x2
 2326 03d0 74       		.byte	0x74
 2327 03d1 00       		.sleb128 0
 2328 03d2 14       		.uleb128 0x14
 2329 03d3 01       		.uleb128 0x1
 2330 03d4 51       		.byte	0x51
 2331 03d5 02       		.uleb128 0x2
 2332 03d6 76       		.byte	0x76
 2333 03d7 00       		.sleb128 0
 2334 03d8 14       		.uleb128 0x14
 2335 03d9 01       		.uleb128 0x1
 2336 03da 52       		.byte	0x52
 2337 03db 02       		.uleb128 0x2
 2338 03dc 08       		.byte	0x8
 2339 03dd 89       		.byte	0x89
 2340 03de 14       		.uleb128 0x14
 2341 03df 01       		.uleb128 0x1
 2342 03e0 53       		.byte	0x53
 2343 03e1 01       		.uleb128 0x1
 2344 03e2 30       		.byte	0x30
 2345 03e3 00       		.byte	0
 2346 03e4 15       		.uleb128 0x15
 2347 03e5 D2010000 		.4byte	.LVL61
 2348 03e9 37190000 		.4byte	0x1937
 2349 03ed 13       		.uleb128 0x13
 2350 03ee E2010000 		.4byte	.LVL62
 2351 03f2 2C190000 		.4byte	0x192c
 2352 03f6 15040000 		.4byte	0x415
 2353 03fa 14       		.uleb128 0x14
 2354 03fb 01       		.uleb128 0x1
 2355 03fc 50       		.byte	0x50
 2356 03fd 02       		.uleb128 0x2
 2357 03fe 74       		.byte	0x74
 2358 03ff 00       		.sleb128 0
ARM GAS  C:\Users\ccheney\AppData\Local\Temp\ccOO3kAb.s 			page 61


 2359 0400 14       		.uleb128 0x14
 2360 0401 01       		.uleb128 0x1
 2361 0402 51       		.byte	0x51
 2362 0403 05       		.uleb128 0x5
 2363 0404 03       		.byte	0x3
 2364 0405 A8010000 		.4byte	.LC38
 2365 0409 14       		.uleb128 0x14
 2366 040a 01       		.uleb128 0x1
 2367 040b 52       		.byte	0x52
 2368 040c 02       		.uleb128 0x2
 2369 040d 75       		.byte	0x75
 2370 040e 00       		.sleb128 0
 2371 040f 14       		.uleb128 0x14
 2372 0410 01       		.uleb128 0x1
 2373 0411 53       		.byte	0x53
 2374 0412 01       		.uleb128 0x1
 2375 0413 31       		.byte	0x31
 2376 0414 00       		.byte	0
 2377 0415 15       		.uleb128 0x15
 2378 0416 E6010000 		.4byte	.LVL63
 2379 041a 37190000 		.4byte	0x1937
 2380 041e 13       		.uleb128 0x13
 2381 041f EE010000 		.4byte	.LVL64
 2382 0423 42190000 		.4byte	0x1942
 2383 0427 37040000 		.4byte	0x437
 2384 042b 14       		.uleb128 0x14
 2385 042c 01       		.uleb128 0x1
 2386 042d 50       		.byte	0x50
 2387 042e 02       		.uleb128 0x2
 2388 042f 74       		.byte	0x74
 2389 0430 00       		.sleb128 0
 2390 0431 14       		.uleb128 0x14
 2391 0432 01       		.uleb128 0x1
 2392 0433 51       		.byte	0x51
 2393 0434 01       		.uleb128 0x1
 2394 0435 3A       		.byte	0x3a
 2395 0436 00       		.byte	0
 2396 0437 13       		.uleb128 0x13
 2397 0438 FE010000 		.4byte	.LVL65
 2398 043c 2C190000 		.4byte	0x192c
 2399 0440 5F040000 		.4byte	0x45f
 2400 0444 14       		.uleb128 0x14
 2401 0445 01       		.uleb128 0x1
 2402 0446 50       		.byte	0x50
 2403 0447 02       		.uleb128 0x2
 2404 0448 74       		.byte	0x74
 2405 0449 00       		.sleb128 0
 2406 044a 14       		.uleb128 0x14
 2407 044b 01       		.uleb128 0x1
 2408 044c 51       		.byte	0x51
 2409 044d 05       		.uleb128 0x5
 2410 044e 03       		.byte	0x3
 2411 044f B0010000 		.4byte	.LC40
 2412 0453 14       		.uleb128 0x14
 2413 0454 01       		.uleb128 0x1
 2414 0455 52       		.byte	0x52
 2415 0456 01       		.uleb128 0x1
ARM GAS  C:\Users\ccheney\AppData\Local\Temp\ccOO3kAb.s 			page 62


 2416 0457 3A       		.byte	0x3a
 2417 0458 14       		.uleb128 0x14
 2418 0459 01       		.uleb128 0x1
 2419 045a 53       		.byte	0x53
 2420 045b 02       		.uleb128 0x2
 2421 045c 7B       		.byte	0x7b
 2422 045d 00       		.sleb128 0
 2423 045e 00       		.byte	0
 2424 045f 15       		.uleb128 0x15
 2425 0460 02020000 		.4byte	.LVL66
 2426 0464 37190000 		.4byte	0x1937
 2427 0468 16       		.uleb128 0x16
 2428 0469 08020000 		.4byte	.LVL67
 2429 046d 4D190000 		.4byte	0x194d
 2430 0471 14       		.uleb128 0x14
 2431 0472 01       		.uleb128 0x1
 2432 0473 50       		.byte	0x50
 2433 0474 02       		.uleb128 0x2
 2434 0475 74       		.byte	0x74
 2435 0476 00       		.sleb128 0
 2436 0477 00       		.byte	0
 2437 0478 00       		.byte	0
 2438 0479 11       		.uleb128 0x11
 2439 047a 08020000 		.4byte	.LBB3
 2440 047e 6A000000 		.4byte	.LBE3-.LBB3
 2441 0482 DC050000 		.4byte	0x5dc
 2442 0486 12       		.uleb128 0x12
 2443 0487 A6030000 		.4byte	.LASF63
 2444 048b 01       		.byte	0x1
 2445 048c E7       		.byte	0xe7
 2446 048d 4F030000 		.4byte	0x34f
 2447 0491 03       		.uleb128 0x3
 2448 0492 91       		.byte	0x91
 2449 0493 F87E     		.sleb128 -136
 2450 0495 13       		.uleb128 0x13
 2451 0496 0E020000 		.4byte	.LVL68
 2452 049a 16190000 		.4byte	0x1916
 2453 049e A9040000 		.4byte	0x4a9
 2454 04a2 14       		.uleb128 0x14
 2455 04a3 01       		.uleb128 0x1
 2456 04a4 50       		.byte	0x50
 2457 04a5 02       		.uleb128 0x2
 2458 04a6 74       		.byte	0x74
 2459 04a7 00       		.sleb128 0
 2460 04a8 00       		.byte	0
 2461 04a9 13       		.uleb128 0x13
 2462 04aa 14020000 		.4byte	.LVL69
 2463 04ae 21190000 		.4byte	0x1921
 2464 04b2 C0040000 		.4byte	0x4c0
 2465 04b6 14       		.uleb128 0x14
 2466 04b7 01       		.uleb128 0x1
 2467 04b8 50       		.byte	0x50
 2468 04b9 05       		.uleb128 0x5
 2469 04ba 03       		.byte	0x3
 2470 04bb C0010000 		.4byte	.LC42
 2471 04bf 00       		.byte	0
 2472 04c0 13       		.uleb128 0x13
ARM GAS  C:\Users\ccheney\AppData\Local\Temp\ccOO3kAb.s 			page 63


 2473 04c1 1E020000 		.4byte	.LVL70
 2474 04c5 58190000 		.4byte	0x1958
 2475 04c9 E2040000 		.4byte	0x4e2
 2476 04cd 14       		.uleb128 0x14
 2477 04ce 01       		.uleb128 0x1
 2478 04cf 50       		.byte	0x50
 2479 04d0 02       		.uleb128 0x2
 2480 04d1 74       		.byte	0x74
 2481 04d2 00       		.sleb128 0
 2482 04d3 14       		.uleb128 0x14
 2483 04d4 01       		.uleb128 0x1
 2484 04d5 51       		.byte	0x51
 2485 04d6 05       		.uleb128 0x5
 2486 04d7 03       		.byte	0x3
 2487 04d8 E0010000 		.4byte	.LC44
 2488 04dc 14       		.uleb128 0x14
 2489 04dd 01       		.uleb128 0x1
 2490 04de 52       		.byte	0x52
 2491 04df 01       		.uleb128 0x1
 2492 04e0 31       		.byte	0x31
 2493 04e1 00       		.byte	0
 2494 04e2 15       		.uleb128 0x15
 2495 04e3 22020000 		.4byte	.LVL71
 2496 04e7 37190000 		.4byte	0x1937
 2497 04eb 13       		.uleb128 0x13
 2498 04ec 2A020000 		.4byte	.LVL72
 2499 04f0 42190000 		.4byte	0x1942
 2500 04f4 05050000 		.4byte	0x505
 2501 04f8 14       		.uleb128 0x14
 2502 04f9 01       		.uleb128 0x1
 2503 04fa 50       		.byte	0x50
 2504 04fb 02       		.uleb128 0x2
 2505 04fc 74       		.byte	0x74
 2506 04fd 00       		.sleb128 0
 2507 04fe 14       		.uleb128 0x14
 2508 04ff 01       		.uleb128 0x1
 2509 0500 51       		.byte	0x51
 2510 0501 02       		.uleb128 0x2
 2511 0502 08       		.byte	0x8
 2512 0503 89       		.byte	0x89
 2513 0504 00       		.byte	0
 2514 0505 13       		.uleb128 0x13
 2515 0506 34020000 		.4byte	.LVL73
 2516 050a 58190000 		.4byte	0x1958
 2517 050e 24050000 		.4byte	0x524
 2518 0512 14       		.uleb128 0x14
 2519 0513 01       		.uleb128 0x1
 2520 0514 50       		.byte	0x50
 2521 0515 02       		.uleb128 0x2
 2522 0516 74       		.byte	0x74
 2523 0517 00       		.sleb128 0
 2524 0518 14       		.uleb128 0x14
 2525 0519 01       		.uleb128 0x1
 2526 051a 51       		.byte	0x51
 2527 051b 02       		.uleb128 0x2
 2528 051c 76       		.byte	0x76
 2529 051d 00       		.sleb128 0
ARM GAS  C:\Users\ccheney\AppData\Local\Temp\ccOO3kAb.s 			page 64


 2530 051e 14       		.uleb128 0x14
 2531 051f 01       		.uleb128 0x1
 2532 0520 52       		.byte	0x52
 2533 0521 01       		.uleb128 0x1
 2534 0522 30       		.byte	0x30
 2535 0523 00       		.byte	0
 2536 0524 15       		.uleb128 0x15
 2537 0525 38020000 		.4byte	.LVL74
 2538 0529 37190000 		.4byte	0x1937
 2539 052d 13       		.uleb128 0x13
 2540 052e 42020000 		.4byte	.LVL75
 2541 0532 42190000 		.4byte	0x1942
 2542 0536 48050000 		.4byte	0x548
 2543 053a 14       		.uleb128 0x14
 2544 053b 01       		.uleb128 0x1
 2545 053c 50       		.byte	0x50
 2546 053d 02       		.uleb128 0x2
 2547 053e 74       		.byte	0x74
 2548 053f 00       		.sleb128 0
 2549 0540 14       		.uleb128 0x14
 2550 0541 01       		.uleb128 0x1
 2551 0542 51       		.byte	0x51
 2552 0543 03       		.uleb128 0x3
 2553 0544 0A       		.byte	0xa
 2554 0545 D007     		.2byte	0x7d0
 2555 0547 00       		.byte	0
 2556 0548 13       		.uleb128 0x13
 2557 0549 4C020000 		.4byte	.LVL76
 2558 054d 58190000 		.4byte	0x1958
 2559 0551 6A050000 		.4byte	0x56a
 2560 0555 14       		.uleb128 0x14
 2561 0556 01       		.uleb128 0x1
 2562 0557 50       		.byte	0x50
 2563 0558 02       		.uleb128 0x2
 2564 0559 74       		.byte	0x74
 2565 055a 00       		.sleb128 0
 2566 055b 14       		.uleb128 0x14
 2567 055c 01       		.uleb128 0x1
 2568 055d 51       		.byte	0x51
 2569 055e 05       		.uleb128 0x5
 2570 055f 03       		.byte	0x3
 2571 0560 F0010000 		.4byte	.LC46
 2572 0564 14       		.uleb128 0x14
 2573 0565 01       		.uleb128 0x1
 2574 0566 52       		.byte	0x52
 2575 0567 01       		.uleb128 0x1
 2576 0568 31       		.byte	0x31
 2577 0569 00       		.byte	0
 2578 056a 15       		.uleb128 0x15
 2579 056b 50020000 		.4byte	.LVL77
 2580 056f 37190000 		.4byte	0x1937
 2581 0573 13       		.uleb128 0x13
 2582 0574 58020000 		.4byte	.LVL78
 2583 0578 42190000 		.4byte	0x1942
 2584 057c 8C050000 		.4byte	0x58c
 2585 0580 14       		.uleb128 0x14
 2586 0581 01       		.uleb128 0x1
ARM GAS  C:\Users\ccheney\AppData\Local\Temp\ccOO3kAb.s 			page 65


 2587 0582 50       		.byte	0x50
 2588 0583 02       		.uleb128 0x2
 2589 0584 74       		.byte	0x74
 2590 0585 00       		.sleb128 0
 2591 0586 14       		.uleb128 0x14
 2592 0587 01       		.uleb128 0x1
 2593 0588 51       		.byte	0x51
 2594 0589 01       		.uleb128 0x1
 2595 058a 3A       		.byte	0x3a
 2596 058b 00       		.byte	0
 2597 058c 13       		.uleb128 0x13
 2598 058d 5E020000 		.4byte	.LVL79
 2599 0591 4D190000 		.4byte	0x194d
 2600 0595 A0050000 		.4byte	0x5a0
 2601 0599 14       		.uleb128 0x14
 2602 059a 01       		.uleb128 0x1
 2603 059b 50       		.byte	0x50
 2604 059c 02       		.uleb128 0x2
 2605 059d 74       		.byte	0x74
 2606 059e 00       		.sleb128 0
 2607 059f 00       		.byte	0
 2608 05a0 13       		.uleb128 0x13
 2609 05a1 68020000 		.4byte	.LVL80
 2610 05a5 58190000 		.4byte	0x1958
 2611 05a9 C2050000 		.4byte	0x5c2
 2612 05ad 14       		.uleb128 0x14
 2613 05ae 01       		.uleb128 0x1
 2614 05af 50       		.byte	0x50
 2615 05b0 02       		.uleb128 0x2
 2616 05b1 74       		.byte	0x74
 2617 05b2 00       		.sleb128 0
 2618 05b3 14       		.uleb128 0x14
 2619 05b4 01       		.uleb128 0x1
 2620 05b5 51       		.byte	0x51
 2621 05b6 05       		.uleb128 0x5
 2622 05b7 03       		.byte	0x3
 2623 05b8 FC010000 		.4byte	.LC48
 2624 05bc 14       		.uleb128 0x14
 2625 05bd 01       		.uleb128 0x1
 2626 05be 52       		.byte	0x52
 2627 05bf 01       		.uleb128 0x1
 2628 05c0 31       		.byte	0x31
 2629 05c1 00       		.byte	0
 2630 05c2 15       		.uleb128 0x15
 2631 05c3 6C020000 		.4byte	.LVL81
 2632 05c7 37190000 		.4byte	0x1937
 2633 05cb 16       		.uleb128 0x16
 2634 05cc 72020000 		.4byte	.LVL82
 2635 05d0 4D190000 		.4byte	0x194d
 2636 05d4 14       		.uleb128 0x14
 2637 05d5 01       		.uleb128 0x1
 2638 05d6 50       		.byte	0x50
 2639 05d7 02       		.uleb128 0x2
 2640 05d8 74       		.byte	0x74
 2641 05d9 00       		.sleb128 0
 2642 05da 00       		.byte	0
 2643 05db 00       		.byte	0
ARM GAS  C:\Users\ccheney\AppData\Local\Temp\ccOO3kAb.s 			page 66


 2644 05dc 11       		.uleb128 0x11
 2645 05dd 72020000 		.4byte	.LBB4
 2646 05e1 1A000000 		.4byte	.LBE4-.LBB4
 2647 05e5 50060000 		.4byte	0x650
 2648 05e9 12       		.uleb128 0x12
 2649 05ea A6030000 		.4byte	.LASF63
 2650 05ee 01       		.byte	0x1
 2651 05ef FE       		.byte	0xfe
 2652 05f0 4F030000 		.4byte	0x34f
 2653 05f4 03       		.uleb128 0x3
 2654 05f5 91       		.byte	0x91
 2655 05f6 F87E     		.sleb128 -136
 2656 05f8 13       		.uleb128 0x13
 2657 05f9 78020000 		.4byte	.LVL83
 2658 05fd 21190000 		.4byte	0x1921
 2659 0601 0F060000 		.4byte	0x60f
 2660 0605 14       		.uleb128 0x14
 2661 0606 01       		.uleb128 0x1
 2662 0607 50       		.byte	0x50
 2663 0608 05       		.uleb128 0x5
 2664 0609 03       		.byte	0x3
 2665 060a 10020000 		.4byte	.LC50
 2666 060e 00       		.byte	0
 2667 060f 13       		.uleb128 0x13
 2668 0610 7E020000 		.4byte	.LVL84
 2669 0614 16190000 		.4byte	0x1916
 2670 0618 23060000 		.4byte	0x623
 2671 061c 14       		.uleb128 0x14
 2672 061d 01       		.uleb128 0x1
 2673 061e 50       		.byte	0x50
 2674 061f 02       		.uleb128 0x2
 2675 0620 74       		.byte	0x74
 2676 0621 00       		.sleb128 0
 2677 0622 00       		.byte	0
 2678 0623 13       		.uleb128 0x13
 2679 0624 88020000 		.4byte	.LVL85
 2680 0628 63190000 		.4byte	0x1963
 2681 062c 46060000 		.4byte	0x646
 2682 0630 14       		.uleb128 0x14
 2683 0631 01       		.uleb128 0x1
 2684 0632 50       		.byte	0x50
 2685 0633 02       		.uleb128 0x2
 2686 0634 74       		.byte	0x74
 2687 0635 00       		.sleb128 0
 2688 0636 14       		.uleb128 0x14
 2689 0637 01       		.uleb128 0x1
 2690 0638 51       		.byte	0x51
 2691 0639 05       		.uleb128 0x5
 2692 063a 03       		.byte	0x3
 2693 063b 34020000 		.4byte	.LC52
 2694 063f 14       		.uleb128 0x14
 2695 0640 01       		.uleb128 0x1
 2696 0641 52       		.byte	0x52
 2697 0642 02       		.uleb128 0x2
 2698 0643 75       		.byte	0x75
 2699 0644 00       		.sleb128 0
 2700 0645 00       		.byte	0
ARM GAS  C:\Users\ccheney\AppData\Local\Temp\ccOO3kAb.s 			page 67


 2701 0646 15       		.uleb128 0x15
 2702 0647 8C020000 		.4byte	.LVL86
 2703 064b 37190000 		.4byte	0x1937
 2704 064f 00       		.byte	0
 2705 0650 11       		.uleb128 0x11
 2706 0651 8C020000 		.4byte	.LBB5
 2707 0655 88000000 		.4byte	.LBE5-.LBB5
 2708 0659 CB070000 		.4byte	0x7cb
 2709 065d 17       		.uleb128 0x17
 2710 065e A6030000 		.4byte	.LASF63
 2711 0662 01       		.byte	0x1
 2712 0663 0801     		.2byte	0x108
 2713 0665 4F030000 		.4byte	0x34f
 2714 0669 03       		.uleb128 0x3
 2715 066a 91       		.byte	0x91
 2716 066b F87E     		.sleb128 -136
 2717 066d 17       		.uleb128 0x17
 2718 066e B8000000 		.4byte	.LASF64
 2719 0672 01       		.byte	0x1
 2720 0673 0C01     		.2byte	0x10c
 2721 0675 0B030000 		.4byte	0x30b
 2722 0679 01       		.uleb128 0x1
 2723 067a 54       		.byte	0x54
 2724 067b 17       		.uleb128 0x17
 2725 067c F1000000 		.4byte	.LASF65
 2726 0680 01       		.byte	0x1
 2727 0681 0F01     		.2byte	0x10f
 2728 0683 73180000 		.4byte	0x1873
 2729 0687 03       		.uleb128 0x3
 2730 0688 91       		.byte	0x91
 2731 0689 E47E     		.sleb128 -156
 2732 068b 13       		.uleb128 0x13
 2733 068c 92020000 		.4byte	.LVL87
 2734 0690 21190000 		.4byte	0x1921
 2735 0694 A2060000 		.4byte	0x6a2
 2736 0698 14       		.uleb128 0x14
 2737 0699 01       		.uleb128 0x1
 2738 069a 50       		.byte	0x50
 2739 069b 05       		.uleb128 0x5
 2740 069c 03       		.byte	0x3
 2741 069d 48020000 		.4byte	.LC54
 2742 06a1 00       		.byte	0
 2743 06a2 13       		.uleb128 0x13
 2744 06a3 98020000 		.4byte	.LVL88
 2745 06a7 16190000 		.4byte	0x1916
 2746 06ab B6060000 		.4byte	0x6b6
 2747 06af 14       		.uleb128 0x14
 2748 06b0 01       		.uleb128 0x1
 2749 06b1 50       		.byte	0x50
 2750 06b2 02       		.uleb128 0x2
 2751 06b3 74       		.byte	0x74
 2752 06b4 00       		.sleb128 0
 2753 06b5 00       		.byte	0
 2754 06b6 13       		.uleb128 0x13
 2755 06b7 A0020000 		.4byte	.LVL89
 2756 06bb 42190000 		.4byte	0x1942
 2757 06bf D0060000 		.4byte	0x6d0
ARM GAS  C:\Users\ccheney\AppData\Local\Temp\ccOO3kAb.s 			page 68


 2758 06c3 14       		.uleb128 0x14
 2759 06c4 01       		.uleb128 0x1
 2760 06c5 50       		.byte	0x50
 2761 06c6 02       		.uleb128 0x2
 2762 06c7 74       		.byte	0x74
 2763 06c8 00       		.sleb128 0
 2764 06c9 14       		.uleb128 0x14
 2765 06ca 01       		.uleb128 0x1
 2766 06cb 51       		.byte	0x51
 2767 06cc 02       		.uleb128 0x2
 2768 06cd 08       		.byte	0x8
 2769 06ce 89       		.byte	0x89
 2770 06cf 00       		.byte	0
 2771 06d0 13       		.uleb128 0x13
 2772 06d1 AE020000 		.4byte	.LVL90
 2773 06d5 6E190000 		.4byte	0x196e
 2774 06d9 F3060000 		.4byte	0x6f3
 2775 06dd 14       		.uleb128 0x14
 2776 06de 01       		.uleb128 0x1
 2777 06df 50       		.byte	0x50
 2778 06e0 02       		.uleb128 0x2
 2779 06e1 76       		.byte	0x76
 2780 06e2 00       		.sleb128 0
 2781 06e3 14       		.uleb128 0x14
 2782 06e4 01       		.uleb128 0x1
 2783 06e5 51       		.byte	0x51
 2784 06e6 05       		.uleb128 0x5
 2785 06e7 03       		.byte	0x3
 2786 06e8 00000000 		.4byte	.LANCHOR0
 2787 06ec 14       		.uleb128 0x14
 2788 06ed 01       		.uleb128 0x1
 2789 06ee 52       		.byte	0x52
 2790 06ef 02       		.uleb128 0x2
 2791 06f0 75       		.byte	0x75
 2792 06f1 00       		.sleb128 0
 2793 06f2 00       		.byte	0
 2794 06f3 13       		.uleb128 0x13
 2795 06f4 C4020000 		.4byte	.LVL91
 2796 06f8 6E190000 		.4byte	0x196e
 2797 06fc 0D070000 		.4byte	0x70d
 2798 0700 14       		.uleb128 0x14
 2799 0701 01       		.uleb128 0x1
 2800 0702 51       		.byte	0x51
 2801 0703 02       		.uleb128 0x2
 2802 0704 76       		.byte	0x76
 2803 0705 00       		.sleb128 0
 2804 0706 14       		.uleb128 0x14
 2805 0707 01       		.uleb128 0x1
 2806 0708 52       		.byte	0x52
 2807 0709 02       		.uleb128 0x2
 2808 070a 75       		.byte	0x75
 2809 070b 00       		.sleb128 0
 2810 070c 00       		.byte	0
 2811 070d 13       		.uleb128 0x13
 2812 070e CE020000 		.4byte	.LVL92
 2813 0712 77190000 		.4byte	0x1977
 2814 0716 2F070000 		.4byte	0x72f
ARM GAS  C:\Users\ccheney\AppData\Local\Temp\ccOO3kAb.s 			page 69


 2815 071a 14       		.uleb128 0x14
 2816 071b 01       		.uleb128 0x1
 2817 071c 50       		.byte	0x50
 2818 071d 02       		.uleb128 0x2
 2819 071e 74       		.byte	0x74
 2820 071f 00       		.sleb128 0
 2821 0720 14       		.uleb128 0x14
 2822 0721 01       		.uleb128 0x1
 2823 0722 51       		.byte	0x51
 2824 0723 05       		.uleb128 0x5
 2825 0724 03       		.byte	0x3
 2826 0725 80020000 		.4byte	.LC57
 2827 0729 14       		.uleb128 0x14
 2828 072a 01       		.uleb128 0x1
 2829 072b 52       		.byte	0x52
 2830 072c 01       		.uleb128 0x1
 2831 072d 30       		.byte	0x30
 2832 072e 00       		.byte	0
 2833 072f 15       		.uleb128 0x15
 2834 0730 D2020000 		.4byte	.LVL93
 2835 0734 37190000 		.4byte	0x1937
 2836 0738 13       		.uleb128 0x13
 2837 0739 E6020000 		.4byte	.LVL94
 2838 073d 77190000 		.4byte	0x1977
 2839 0741 5A070000 		.4byte	0x75a
 2840 0745 14       		.uleb128 0x14
 2841 0746 01       		.uleb128 0x1
 2842 0747 50       		.byte	0x50
 2843 0748 02       		.uleb128 0x2
 2844 0749 74       		.byte	0x74
 2845 074a 00       		.sleb128 0
 2846 074b 14       		.uleb128 0x14
 2847 074c 01       		.uleb128 0x1
 2848 074d 51       		.byte	0x51
 2849 074e 05       		.uleb128 0x5
 2850 074f 03       		.byte	0x3
 2851 0750 90020000 		.4byte	.LC59
 2852 0754 14       		.uleb128 0x14
 2853 0755 01       		.uleb128 0x1
 2854 0756 52       		.byte	0x52
 2855 0757 01       		.uleb128 0x1
 2856 0758 30       		.byte	0x30
 2857 0759 00       		.byte	0
 2858 075a 15       		.uleb128 0x15
 2859 075b EA020000 		.4byte	.LVL95
 2860 075f 37190000 		.4byte	0x1937
 2861 0763 13       		.uleb128 0x13
 2862 0764 F8020000 		.4byte	.LVL96
 2863 0768 77190000 		.4byte	0x1977
 2864 076c 86070000 		.4byte	0x786
 2865 0770 14       		.uleb128 0x14
 2866 0771 01       		.uleb128 0x1
 2867 0772 50       		.byte	0x50
 2868 0773 02       		.uleb128 0x2
 2869 0774 74       		.byte	0x74
 2870 0775 00       		.sleb128 0
 2871 0776 14       		.uleb128 0x14
ARM GAS  C:\Users\ccheney\AppData\Local\Temp\ccOO3kAb.s 			page 70


 2872 0777 01       		.uleb128 0x1
 2873 0778 51       		.byte	0x51
 2874 0779 05       		.uleb128 0x5
 2875 077a 03       		.byte	0x3
 2876 077b 9C020000 		.4byte	.LC61
 2877 077f 14       		.uleb128 0x14
 2878 0780 01       		.uleb128 0x1
 2879 0781 52       		.byte	0x52
 2880 0782 02       		.uleb128 0x2
 2881 0783 79       		.byte	0x79
 2882 0784 00       		.sleb128 0
 2883 0785 00       		.byte	0
 2884 0786 15       		.uleb128 0x15
 2885 0787 FC020000 		.4byte	.LVL97
 2886 078b 37190000 		.4byte	0x1937
 2887 078f 13       		.uleb128 0x13
 2888 0790 0A030000 		.4byte	.LVL98
 2889 0794 77190000 		.4byte	0x1977
 2890 0798 B1070000 		.4byte	0x7b1
 2891 079c 14       		.uleb128 0x14
 2892 079d 01       		.uleb128 0x1
 2893 079e 50       		.byte	0x50
 2894 079f 02       		.uleb128 0x2
 2895 07a0 74       		.byte	0x74
 2896 07a1 00       		.sleb128 0
 2897 07a2 14       		.uleb128 0x14
 2898 07a3 01       		.uleb128 0x1
 2899 07a4 51       		.byte	0x51
 2900 07a5 05       		.uleb128 0x5
 2901 07a6 03       		.byte	0x3
 2902 07a7 B8020000 		.4byte	.LC63
 2903 07ab 14       		.uleb128 0x14
 2904 07ac 01       		.uleb128 0x1
 2905 07ad 52       		.byte	0x52
 2906 07ae 01       		.uleb128 0x1
 2907 07af 39       		.byte	0x39
 2908 07b0 00       		.byte	0
 2909 07b1 15       		.uleb128 0x15
 2910 07b2 0E030000 		.4byte	.LVL99
 2911 07b6 37190000 		.4byte	0x1937
 2912 07ba 16       		.uleb128 0x16
 2913 07bb 14030000 		.4byte	.LVL100
 2914 07bf 4D190000 		.4byte	0x194d
 2915 07c3 14       		.uleb128 0x14
 2916 07c4 01       		.uleb128 0x1
 2917 07c5 50       		.byte	0x50
 2918 07c6 02       		.uleb128 0x2
 2919 07c7 74       		.byte	0x74
 2920 07c8 00       		.sleb128 0
 2921 07c9 00       		.byte	0
 2922 07ca 00       		.byte	0
 2923 07cb 11       		.uleb128 0x11
 2924 07cc 14030000 		.4byte	.LBB6
 2925 07d0 AE010000 		.4byte	.LBE6-.LBB6
 2926 07d4 030A0000 		.4byte	0xa03
 2927 07d8 17       		.uleb128 0x17
 2928 07d9 A6030000 		.4byte	.LASF63
ARM GAS  C:\Users\ccheney\AppData\Local\Temp\ccOO3kAb.s 			page 71


 2929 07dd 01       		.byte	0x1
 2930 07de 2901     		.2byte	0x129
 2931 07e0 4F030000 		.4byte	0x34f
 2932 07e4 03       		.uleb128 0x3
 2933 07e5 91       		.byte	0x91
 2934 07e6 F87E     		.sleb128 -136
 2935 07e8 17       		.uleb128 0x17
 2936 07e9 B8000000 		.4byte	.LASF64
 2937 07ed 01       		.byte	0x1
 2938 07ee 2D01     		.2byte	0x12d
 2939 07f0 0B030000 		.4byte	0x30b
 2940 07f4 01       		.uleb128 0x1
 2941 07f5 54       		.byte	0x54
 2942 07f6 17       		.uleb128 0x17
 2943 07f7 F1000000 		.4byte	.LASF65
 2944 07fb 01       		.byte	0x1
 2945 07fc 3001     		.2byte	0x130
 2946 07fe 73180000 		.4byte	0x1873
 2947 0802 03       		.uleb128 0x3
 2948 0803 91       		.byte	0x91
 2949 0804 947E     		.sleb128 -236
 2950 0806 17       		.uleb128 0x17
 2951 0807 92010000 		.4byte	.LASF66
 2952 080b 01       		.byte	0x1
 2953 080c 3601     		.2byte	0x136
 2954 080e 83180000 		.4byte	0x1883
 2955 0812 03       		.uleb128 0x3
 2956 0813 91       		.byte	0x91
 2957 0814 A87E     		.sleb128 -216
 2958 0816 17       		.uleb128 0x17
 2959 0817 42000000 		.4byte	.LASF67
 2960 081b 01       		.byte	0x1
 2961 081c 3A01     		.2byte	0x13a
 2962 081e 83180000 		.4byte	0x1883
 2963 0822 03       		.uleb128 0x3
 2964 0823 91       		.byte	0x91
 2965 0824 BC7E     		.sleb128 -196
 2966 0826 17       		.uleb128 0x17
 2967 0827 62030000 		.4byte	.LASF68
 2968 082b 01       		.byte	0x1
 2969 082c 3E01     		.2byte	0x13e
 2970 082e 83180000 		.4byte	0x1883
 2971 0832 03       		.uleb128 0x3
 2972 0833 91       		.byte	0x91
 2973 0834 D07E     		.sleb128 -176
 2974 0836 17       		.uleb128 0x17
 2975 0837 C4040000 		.4byte	.LASF69
 2976 083b 01       		.byte	0x1
 2977 083c 4501     		.2byte	0x145
 2978 083e 83180000 		.4byte	0x1883
 2979 0842 03       		.uleb128 0x3
 2980 0843 91       		.byte	0x91
 2981 0844 E47E     		.sleb128 -156
 2982 0846 13       		.uleb128 0x13
 2983 0847 1A030000 		.4byte	.LVL101
 2984 084b 21190000 		.4byte	0x1921
 2985 084f 5D080000 		.4byte	0x85d
ARM GAS  C:\Users\ccheney\AppData\Local\Temp\ccOO3kAb.s 			page 72


 2986 0853 14       		.uleb128 0x14
 2987 0854 01       		.uleb128 0x1
 2988 0855 50       		.byte	0x50
 2989 0856 05       		.uleb128 0x5
 2990 0857 03       		.byte	0x3
 2991 0858 DC020000 		.4byte	.LC65
 2992 085c 00       		.byte	0
 2993 085d 13       		.uleb128 0x13
 2994 085e 20030000 		.4byte	.LVL102
 2995 0862 16190000 		.4byte	0x1916
 2996 0866 71080000 		.4byte	0x871
 2997 086a 14       		.uleb128 0x14
 2998 086b 01       		.uleb128 0x1
 2999 086c 50       		.byte	0x50
 3000 086d 02       		.uleb128 0x2
 3001 086e 74       		.byte	0x74
 3002 086f 00       		.sleb128 0
 3003 0870 00       		.byte	0
 3004 0871 13       		.uleb128 0x13
 3005 0872 28030000 		.4byte	.LVL103
 3006 0876 42190000 		.4byte	0x1942
 3007 087a 8B080000 		.4byte	0x88b
 3008 087e 14       		.uleb128 0x14
 3009 087f 01       		.uleb128 0x1
 3010 0880 50       		.byte	0x50
 3011 0881 02       		.uleb128 0x2
 3012 0882 74       		.byte	0x74
 3013 0883 00       		.sleb128 0
 3014 0884 14       		.uleb128 0x14
 3015 0885 01       		.uleb128 0x1
 3016 0886 51       		.byte	0x51
 3017 0887 02       		.uleb128 0x2
 3018 0888 08       		.byte	0x8
 3019 0889 89       		.byte	0x89
 3020 088a 00       		.byte	0
 3021 088b 13       		.uleb128 0x13
 3022 088c 32030000 		.4byte	.LVL104
 3023 0890 6E190000 		.4byte	0x196e
 3024 0894 AF080000 		.4byte	0x8af
 3025 0898 14       		.uleb128 0x14
 3026 0899 01       		.uleb128 0x1
 3027 089a 50       		.byte	0x50
 3028 089b 03       		.uleb128 0x3
 3029 089c 91       		.byte	0x91
 3030 089d 947E     		.sleb128 -236
 3031 089f 14       		.uleb128 0x14
 3032 08a0 01       		.uleb128 0x1
 3033 08a1 51       		.byte	0x51
 3034 08a2 05       		.uleb128 0x5
 3035 08a3 03       		.byte	0x3
 3036 08a4 00000000 		.4byte	.LANCHOR0
 3037 08a8 14       		.uleb128 0x14
 3038 08a9 01       		.uleb128 0x1
 3039 08aa 52       		.byte	0x52
 3040 08ab 02       		.uleb128 0x2
 3041 08ac 75       		.byte	0x75
 3042 08ad 00       		.sleb128 0
ARM GAS  C:\Users\ccheney\AppData\Local\Temp\ccOO3kAb.s 			page 73


 3043 08ae 00       		.byte	0
 3044 08af 13       		.uleb128 0x13
 3045 08b0 44030000 		.4byte	.LVL105
 3046 08b4 6E190000 		.4byte	0x196e
 3047 08b8 CA080000 		.4byte	0x8ca
 3048 08bc 14       		.uleb128 0x14
 3049 08bd 01       		.uleb128 0x1
 3050 08be 51       		.byte	0x51
 3051 08bf 03       		.uleb128 0x3
 3052 08c0 91       		.byte	0x91
 3053 08c1 947E     		.sleb128 -236
 3054 08c3 14       		.uleb128 0x14
 3055 08c4 01       		.uleb128 0x1
 3056 08c5 52       		.byte	0x52
 3057 08c6 02       		.uleb128 0x2
 3058 08c7 75       		.byte	0x75
 3059 08c8 00       		.sleb128 0
 3060 08c9 00       		.byte	0
 3061 08ca 13       		.uleb128 0x13
 3062 08cb 50030000 		.4byte	.LVL106
 3063 08cf 82190000 		.4byte	0x1982
 3064 08d3 E8080000 		.4byte	0x8e8
 3065 08d7 14       		.uleb128 0x14
 3066 08d8 01       		.uleb128 0x1
 3067 08d9 50       		.byte	0x50
 3068 08da 02       		.uleb128 0x2
 3069 08db 75       		.byte	0x75
 3070 08dc 00       		.sleb128 0
 3071 08dd 14       		.uleb128 0x14
 3072 08de 01       		.uleb128 0x1
 3073 08df 51       		.byte	0x51
 3074 08e0 01       		.uleb128 0x1
 3075 08e1 30       		.byte	0x30
 3076 08e2 14       		.uleb128 0x14
 3077 08e3 01       		.uleb128 0x1
 3078 08e4 52       		.byte	0x52
 3079 08e5 01       		.uleb128 0x1
 3080 08e6 3F       		.byte	0x3f
 3081 08e7 00       		.byte	0
 3082 08e8 13       		.uleb128 0x13
 3083 08e9 78030000 		.4byte	.LVL107
 3084 08ed 8B190000 		.4byte	0x198b
 3085 08f1 0B090000 		.4byte	0x90b
 3086 08f5 14       		.uleb128 0x14
 3087 08f6 01       		.uleb128 0x1
 3088 08f7 50       		.byte	0x50
 3089 08f8 02       		.uleb128 0x2
 3090 08f9 74       		.byte	0x74
 3091 08fa 00       		.sleb128 0
 3092 08fb 14       		.uleb128 0x14
 3093 08fc 01       		.uleb128 0x1
 3094 08fd 51       		.byte	0x51
 3095 08fe 05       		.uleb128 0x5
 3096 08ff 03       		.byte	0x3
 3097 0900 14030000 		.4byte	.LC67
 3098 0904 14       		.uleb128 0x14
 3099 0905 01       		.uleb128 0x1
ARM GAS  C:\Users\ccheney\AppData\Local\Temp\ccOO3kAb.s 			page 74


 3100 0906 52       		.byte	0x52
 3101 0907 02       		.uleb128 0x2
 3102 0908 75       		.byte	0x75
 3103 0909 00       		.sleb128 0
 3104 090a 00       		.byte	0
 3105 090b 15       		.uleb128 0x15
 3106 090c 7C030000 		.4byte	.LVL108
 3107 0910 37190000 		.4byte	0x1937
 3108 0914 13       		.uleb128 0x13
 3109 0915 8C030000 		.4byte	.LVL109
 3110 0919 82190000 		.4byte	0x1982
 3111 091d 32090000 		.4byte	0x932
 3112 0921 14       		.uleb128 0x14
 3113 0922 01       		.uleb128 0x1
 3114 0923 50       		.byte	0x50
 3115 0924 02       		.uleb128 0x2
 3116 0925 77       		.byte	0x77
 3117 0926 00       		.sleb128 0
 3118 0927 14       		.uleb128 0x14
 3119 0928 01       		.uleb128 0x1
 3120 0929 51       		.byte	0x51
 3121 092a 01       		.uleb128 0x1
 3122 092b 30       		.byte	0x30
 3123 092c 14       		.uleb128 0x14
 3124 092d 01       		.uleb128 0x1
 3125 092e 52       		.byte	0x52
 3126 092f 01       		.uleb128 0x1
 3127 0930 3F       		.byte	0x3f
 3128 0931 00       		.byte	0
 3129 0932 13       		.uleb128 0x13
 3130 0933 A4030000 		.4byte	.LVL110
 3131 0937 8B190000 		.4byte	0x198b
 3132 093b 55090000 		.4byte	0x955
 3133 093f 14       		.uleb128 0x14
 3134 0940 01       		.uleb128 0x1
 3135 0941 50       		.byte	0x50
 3136 0942 02       		.uleb128 0x2
 3137 0943 74       		.byte	0x74
 3138 0944 00       		.sleb128 0
 3139 0945 14       		.uleb128 0x14
 3140 0946 01       		.uleb128 0x1
 3141 0947 51       		.byte	0x51
 3142 0948 05       		.uleb128 0x5
 3143 0949 03       		.byte	0x3
 3144 094a 24030000 		.4byte	.LC69
 3145 094e 14       		.uleb128 0x14
 3146 094f 01       		.uleb128 0x1
 3147 0950 52       		.byte	0x52
 3148 0951 02       		.uleb128 0x2
 3149 0952 77       		.byte	0x77
 3150 0953 00       		.sleb128 0
 3151 0954 00       		.byte	0
 3152 0955 15       		.uleb128 0x15
 3153 0956 A8030000 		.4byte	.LVL111
 3154 095a 37190000 		.4byte	0x1937
 3155 095e 13       		.uleb128 0x13
 3156 095f B8030000 		.4byte	.LVL112
ARM GAS  C:\Users\ccheney\AppData\Local\Temp\ccOO3kAb.s 			page 75


 3157 0963 82190000 		.4byte	0x1982
 3158 0967 7C090000 		.4byte	0x97c
 3159 096b 14       		.uleb128 0x14
 3160 096c 01       		.uleb128 0x1
 3161 096d 50       		.byte	0x50
 3162 096e 02       		.uleb128 0x2
 3163 096f 77       		.byte	0x77
 3164 0970 00       		.sleb128 0
 3165 0971 14       		.uleb128 0x14
 3166 0972 01       		.uleb128 0x1
 3167 0973 51       		.byte	0x51
 3168 0974 01       		.uleb128 0x1
 3169 0975 30       		.byte	0x30
 3170 0976 14       		.uleb128 0x14
 3171 0977 01       		.uleb128 0x1
 3172 0978 52       		.byte	0x52
 3173 0979 01       		.uleb128 0x1
 3174 097a 3F       		.byte	0x3f
 3175 097b 00       		.byte	0
 3176 097c 13       		.uleb128 0x13
 3177 097d D6030000 		.4byte	.LVL113
 3178 0981 8B190000 		.4byte	0x198b
 3179 0985 9F090000 		.4byte	0x99f
 3180 0989 14       		.uleb128 0x14
 3181 098a 01       		.uleb128 0x1
 3182 098b 50       		.byte	0x50
 3183 098c 02       		.uleb128 0x2
 3184 098d 74       		.byte	0x74
 3185 098e 00       		.sleb128 0
 3186 098f 14       		.uleb128 0x14
 3187 0990 01       		.uleb128 0x1
 3188 0991 51       		.byte	0x51
 3189 0992 05       		.uleb128 0x5
 3190 0993 03       		.byte	0x3
 3191 0994 30030000 		.4byte	.LC71
 3192 0998 14       		.uleb128 0x14
 3193 0999 01       		.uleb128 0x1
 3194 099a 52       		.byte	0x52
 3195 099b 02       		.uleb128 0x2
 3196 099c 77       		.byte	0x77
 3197 099d 00       		.sleb128 0
 3198 099e 00       		.byte	0
 3199 099f 15       		.uleb128 0x15
 3200 09a0 DA030000 		.4byte	.LVL114
 3201 09a4 37190000 		.4byte	0x1937
 3202 09a8 13       		.uleb128 0x13
 3203 09a9 FA030000 		.4byte	.LVL115
 3204 09ad 82190000 		.4byte	0x1982
 3205 09b1 C6090000 		.4byte	0x9c6
 3206 09b5 14       		.uleb128 0x14
 3207 09b6 01       		.uleb128 0x1
 3208 09b7 50       		.byte	0x50
 3209 09b8 02       		.uleb128 0x2
 3210 09b9 76       		.byte	0x76
 3211 09ba 00       		.sleb128 0
 3212 09bb 14       		.uleb128 0x14
 3213 09bc 01       		.uleb128 0x1
ARM GAS  C:\Users\ccheney\AppData\Local\Temp\ccOO3kAb.s 			page 76


 3214 09bd 51       		.byte	0x51
 3215 09be 01       		.uleb128 0x1
 3216 09bf 30       		.byte	0x30
 3217 09c0 14       		.uleb128 0x14
 3218 09c1 01       		.uleb128 0x1
 3219 09c2 52       		.byte	0x52
 3220 09c3 01       		.uleb128 0x1
 3221 09c4 3F       		.byte	0x3f
 3222 09c5 00       		.byte	0
 3223 09c6 13       		.uleb128 0x13
 3224 09c7 B8040000 		.4byte	.LVL116
 3225 09cb 8B190000 		.4byte	0x198b
 3226 09cf E9090000 		.4byte	0x9e9
 3227 09d3 14       		.uleb128 0x14
 3228 09d4 01       		.uleb128 0x1
 3229 09d5 50       		.byte	0x50
 3230 09d6 02       		.uleb128 0x2
 3231 09d7 74       		.byte	0x74
 3232 09d8 00       		.sleb128 0
 3233 09d9 14       		.uleb128 0x14
 3234 09da 01       		.uleb128 0x1
 3235 09db 51       		.byte	0x51
 3236 09dc 05       		.uleb128 0x5
 3237 09dd 03       		.byte	0x3
 3238 09de 44030000 		.4byte	.LC73
 3239 09e2 14       		.uleb128 0x14
 3240 09e3 01       		.uleb128 0x1
 3241 09e4 52       		.byte	0x52
 3242 09e5 02       		.uleb128 0x2
 3243 09e6 76       		.byte	0x76
 3244 09e7 00       		.sleb128 0
 3245 09e8 00       		.byte	0
 3246 09e9 15       		.uleb128 0x15
 3247 09ea BC040000 		.4byte	.LVL117
 3248 09ee 37190000 		.4byte	0x1937
 3249 09f2 16       		.uleb128 0x16
 3250 09f3 C2040000 		.4byte	.LVL118
 3251 09f7 4D190000 		.4byte	0x194d
 3252 09fb 14       		.uleb128 0x14
 3253 09fc 01       		.uleb128 0x1
 3254 09fd 50       		.byte	0x50
 3255 09fe 02       		.uleb128 0x2
 3256 09ff 74       		.byte	0x74
 3257 0a00 00       		.sleb128 0
 3258 0a01 00       		.byte	0
 3259 0a02 00       		.byte	0
 3260 0a03 11       		.uleb128 0x11
 3261 0a04 F4040000 		.4byte	.LBB7
 3262 0a08 7E000000 		.4byte	.LBE7-.LBB7
 3263 0a0c 680B0000 		.4byte	0xb68
 3264 0a10 17       		.uleb128 0x17
 3265 0a11 A6030000 		.4byte	.LASF63
 3266 0a15 01       		.byte	0x1
 3267 0a16 5B01     		.2byte	0x15b
 3268 0a18 4F030000 		.4byte	0x34f
 3269 0a1c 03       		.uleb128 0x3
 3270 0a1d 91       		.byte	0x91
ARM GAS  C:\Users\ccheney\AppData\Local\Temp\ccOO3kAb.s 			page 77


 3271 0a1e F87E     		.sleb128 -136
 3272 0a20 17       		.uleb128 0x17
 3273 0a21 26030000 		.4byte	.LASF70
 3274 0a25 01       		.byte	0x1
 3275 0a26 5E01     		.2byte	0x15e
 3276 0a28 93180000 		.4byte	0x1893
 3277 0a2c 03       		.uleb128 0x3
 3278 0a2d 91       		.byte	0x91
 3279 0a2e E47E     		.sleb128 -156
 3280 0a30 13       		.uleb128 0x13
 3281 0a31 FA040000 		.4byte	.LVL126
 3282 0a35 21190000 		.4byte	0x1921
 3283 0a39 470A0000 		.4byte	0xa47
 3284 0a3d 14       		.uleb128 0x14
 3285 0a3e 01       		.uleb128 0x1
 3286 0a3f 50       		.byte	0x50
 3287 0a40 05       		.uleb128 0x5
 3288 0a41 03       		.byte	0x3
 3289 0a42 98030000 		.4byte	.LC85
 3290 0a46 00       		.byte	0
 3291 0a47 13       		.uleb128 0x13
 3292 0a48 00050000 		.4byte	.LVL127
 3293 0a4c 16190000 		.4byte	0x1916
 3294 0a50 5B0A0000 		.4byte	0xa5b
 3295 0a54 14       		.uleb128 0x14
 3296 0a55 01       		.uleb128 0x1
 3297 0a56 50       		.byte	0x50
 3298 0a57 02       		.uleb128 0x2
 3299 0a58 74       		.byte	0x74
 3300 0a59 00       		.sleb128 0
 3301 0a5a 00       		.byte	0
 3302 0a5b 13       		.uleb128 0x13
 3303 0a5c 14050000 		.4byte	.LVL128
 3304 0a60 96190000 		.4byte	0x1996
 3305 0a64 8B0A0000 		.4byte	0xa8b
 3306 0a68 14       		.uleb128 0x14
 3307 0a69 01       		.uleb128 0x1
 3308 0a6a 50       		.byte	0x50
 3309 0a6b 02       		.uleb128 0x2
 3310 0a6c 74       		.byte	0x74
 3311 0a6d 00       		.sleb128 0
 3312 0a6e 14       		.uleb128 0x14
 3313 0a6f 01       		.uleb128 0x1
 3314 0a70 51       		.byte	0x51
 3315 0a71 02       		.uleb128 0x2
 3316 0a72 76       		.byte	0x76
 3317 0a73 00       		.sleb128 0
 3318 0a74 14       		.uleb128 0x14
 3319 0a75 01       		.uleb128 0x1
 3320 0a76 52       		.byte	0x52
 3321 0a77 02       		.uleb128 0x2
 3322 0a78 79       		.byte	0x79
 3323 0a79 00       		.sleb128 0
 3324 0a7a 14       		.uleb128 0x14
 3325 0a7b 01       		.uleb128 0x1
 3326 0a7c 53       		.byte	0x53
 3327 0a7d 05       		.uleb128 0x5
ARM GAS  C:\Users\ccheney\AppData\Local\Temp\ccOO3kAb.s 			page 78


 3328 0a7e 03       		.byte	0x3
 3329 0a7f C4030000 		.4byte	.LC87
 3330 0a83 14       		.uleb128 0x14
 3331 0a84 02       		.uleb128 0x2
 3332 0a85 7D       		.byte	0x7d
 3333 0a86 00       		.sleb128 0
 3334 0a87 02       		.uleb128 0x2
 3335 0a88 79       		.byte	0x79
 3336 0a89 00       		.sleb128 0
 3337 0a8a 00       		.byte	0
 3338 0a8b 15       		.uleb128 0x15
 3339 0a8c 18050000 		.4byte	.LVL129
 3340 0a90 37190000 		.4byte	0x1937
 3341 0a94 13       		.uleb128 0x13
 3342 0a95 20050000 		.4byte	.LVL130
 3343 0a99 42190000 		.4byte	0x1942
 3344 0a9d AE0A0000 		.4byte	0xaae
 3345 0aa1 14       		.uleb128 0x14
 3346 0aa2 01       		.uleb128 0x1
 3347 0aa3 50       		.byte	0x50
 3348 0aa4 02       		.uleb128 0x2
 3349 0aa5 74       		.byte	0x74
 3350 0aa6 00       		.sleb128 0
 3351 0aa7 14       		.uleb128 0x14
 3352 0aa8 01       		.uleb128 0x1
 3353 0aa9 51       		.byte	0x51
 3354 0aaa 02       		.uleb128 0x2
 3355 0aab 08       		.byte	0x8
 3356 0aac 64       		.byte	0x64
 3357 0aad 00       		.byte	0
 3358 0aae 13       		.uleb128 0x13
 3359 0aaf 38050000 		.4byte	.LVL131
 3360 0ab3 96190000 		.4byte	0x1996
 3361 0ab7 DE0A0000 		.4byte	0xade
 3362 0abb 14       		.uleb128 0x14
 3363 0abc 01       		.uleb128 0x1
 3364 0abd 50       		.byte	0x50
 3365 0abe 02       		.uleb128 0x2
 3366 0abf 74       		.byte	0x74
 3367 0ac0 00       		.sleb128 0
 3368 0ac1 14       		.uleb128 0x14
 3369 0ac2 01       		.uleb128 0x1
 3370 0ac3 51       		.byte	0x51
 3371 0ac4 02       		.uleb128 0x2
 3372 0ac5 76       		.byte	0x76
 3373 0ac6 00       		.sleb128 0
 3374 0ac7 14       		.uleb128 0x14
 3375 0ac8 01       		.uleb128 0x1
 3376 0ac9 52       		.byte	0x52
 3377 0aca 02       		.uleb128 0x2
 3378 0acb 79       		.byte	0x79
 3379 0acc 00       		.sleb128 0
 3380 0acd 14       		.uleb128 0x14
 3381 0ace 01       		.uleb128 0x1
 3382 0acf 53       		.byte	0x53
 3383 0ad0 05       		.uleb128 0x5
 3384 0ad1 03       		.byte	0x3
ARM GAS  C:\Users\ccheney\AppData\Local\Temp\ccOO3kAb.s 			page 79


 3385 0ad2 D0030000 		.4byte	.LC89
 3386 0ad6 14       		.uleb128 0x14
 3387 0ad7 02       		.uleb128 0x2
 3388 0ad8 7D       		.byte	0x7d
 3389 0ad9 00       		.sleb128 0
 3390 0ada 02       		.uleb128 0x2
 3391 0adb 79       		.byte	0x79
 3392 0adc 00       		.sleb128 0
 3393 0add 00       		.byte	0
 3394 0ade 15       		.uleb128 0x15
 3395 0adf 3C050000 		.4byte	.LVL132
 3396 0ae3 37190000 		.4byte	0x1937
 3397 0ae7 13       		.uleb128 0x13
 3398 0ae8 50050000 		.4byte	.LVL133
 3399 0aec 96190000 		.4byte	0x1996
 3400 0af0 160B0000 		.4byte	0xb16
 3401 0af4 14       		.uleb128 0x14
 3402 0af5 01       		.uleb128 0x1
 3403 0af6 50       		.byte	0x50
 3404 0af7 02       		.uleb128 0x2
 3405 0af8 74       		.byte	0x74
 3406 0af9 00       		.sleb128 0
 3407 0afa 14       		.uleb128 0x14
 3408 0afb 01       		.uleb128 0x1
 3409 0afc 51       		.byte	0x51
 3410 0afd 02       		.uleb128 0x2
 3411 0afe 76       		.byte	0x76
 3412 0aff 00       		.sleb128 0
 3413 0b00 14       		.uleb128 0x14
 3414 0b01 01       		.uleb128 0x1
 3415 0b02 52       		.byte	0x52
 3416 0b03 02       		.uleb128 0x2
 3417 0b04 79       		.byte	0x79
 3418 0b05 00       		.sleb128 0
 3419 0b06 14       		.uleb128 0x14
 3420 0b07 01       		.uleb128 0x1
 3421 0b08 53       		.byte	0x53
 3422 0b09 05       		.uleb128 0x5
 3423 0b0a 03       		.byte	0x3
 3424 0b0b E0030000 		.4byte	.LC91
 3425 0b0f 14       		.uleb128 0x14
 3426 0b10 02       		.uleb128 0x2
 3427 0b11 7D       		.byte	0x7d
 3428 0b12 00       		.sleb128 0
 3429 0b13 01       		.uleb128 0x1
 3430 0b14 30       		.byte	0x30
 3431 0b15 00       		.byte	0
 3432 0b16 15       		.uleb128 0x15
 3433 0b17 54050000 		.4byte	.LVL134
 3434 0b1b 37190000 		.4byte	0x1937
 3435 0b1f 13       		.uleb128 0x13
 3436 0b20 68050000 		.4byte	.LVL135
 3437 0b24 96190000 		.4byte	0x1996
 3438 0b28 4E0B0000 		.4byte	0xb4e
 3439 0b2c 14       		.uleb128 0x14
 3440 0b2d 01       		.uleb128 0x1
 3441 0b2e 50       		.byte	0x50
ARM GAS  C:\Users\ccheney\AppData\Local\Temp\ccOO3kAb.s 			page 80


 3442 0b2f 02       		.uleb128 0x2
 3443 0b30 74       		.byte	0x74
 3444 0b31 00       		.sleb128 0
 3445 0b32 14       		.uleb128 0x14
 3446 0b33 01       		.uleb128 0x1
 3447 0b34 51       		.byte	0x51
 3448 0b35 02       		.uleb128 0x2
 3449 0b36 76       		.byte	0x76
 3450 0b37 00       		.sleb128 0
 3451 0b38 14       		.uleb128 0x14
 3452 0b39 01       		.uleb128 0x1
 3453 0b3a 52       		.byte	0x52
 3454 0b3b 02       		.uleb128 0x2
 3455 0b3c 79       		.byte	0x79
 3456 0b3d 00       		.sleb128 0
 3457 0b3e 14       		.uleb128 0x14
 3458 0b3f 01       		.uleb128 0x1
 3459 0b40 53       		.byte	0x53
 3460 0b41 05       		.uleb128 0x5
 3461 0b42 03       		.byte	0x3
 3462 0b43 EC030000 		.4byte	.LC93
 3463 0b47 14       		.uleb128 0x14
 3464 0b48 02       		.uleb128 0x2
 3465 0b49 7D       		.byte	0x7d
 3466 0b4a 00       		.sleb128 0
 3467 0b4b 01       		.uleb128 0x1
 3468 0b4c 32       		.byte	0x32
 3469 0b4d 00       		.byte	0
 3470 0b4e 15       		.uleb128 0x15
 3471 0b4f 6C050000 		.4byte	.LVL136
 3472 0b53 37190000 		.4byte	0x1937
 3473 0b57 16       		.uleb128 0x16
 3474 0b58 72050000 		.4byte	.LVL137
 3475 0b5c 4D190000 		.4byte	0x194d
 3476 0b60 14       		.uleb128 0x14
 3477 0b61 01       		.uleb128 0x1
 3478 0b62 50       		.byte	0x50
 3479 0b63 02       		.uleb128 0x2
 3480 0b64 74       		.byte	0x74
 3481 0b65 00       		.sleb128 0
 3482 0b66 00       		.byte	0
 3483 0b67 00       		.byte	0
 3484 0b68 11       		.uleb128 0x11
 3485 0b69 72050000 		.4byte	.LBB8
 3486 0b6d E2010000 		.4byte	.LBE8-.LBB8
 3487 0b71 720E0000 		.4byte	0xe72
 3488 0b75 17       		.uleb128 0x17
 3489 0b76 A6030000 		.4byte	.LASF63
 3490 0b7a 01       		.byte	0x1
 3491 0b7b 7601     		.2byte	0x176
 3492 0b7d 4F030000 		.4byte	0x34f
 3493 0b81 03       		.uleb128 0x3
 3494 0b82 91       		.byte	0x91
 3495 0b83 F87E     		.sleb128 -136
 3496 0b85 17       		.uleb128 0x17
 3497 0b86 2A050000 		.4byte	.LASF71
 3498 0b8a 01       		.byte	0x1
ARM GAS  C:\Users\ccheney\AppData\Local\Temp\ccOO3kAb.s 			page 81


 3499 0b8b 7A01     		.2byte	0x17a
 3500 0b8d A3180000 		.4byte	0x18a3
 3501 0b91 04       		.uleb128 0x4
 3502 0b92 91       		.byte	0x91
 3503 0b93 8C7F     		.sleb128 -116
 3504 0b95 9F       		.byte	0x9f
 3505 0b96 17       		.uleb128 0x17
 3506 0b97 42000000 		.4byte	.LASF67
 3507 0b9b 01       		.byte	0x1
 3508 0b9c 7C01     		.2byte	0x17c
 3509 0b9e 83180000 		.4byte	0x1883
 3510 0ba2 03       		.uleb128 0x3
 3511 0ba3 91       		.byte	0x91
 3512 0ba4 947E     		.sleb128 -236
 3513 0ba6 17       		.uleb128 0x17
 3514 0ba7 F9020000 		.4byte	.LASF72
 3515 0bab 01       		.byte	0x1
 3516 0bac 8101     		.2byte	0x181
 3517 0bae 83180000 		.4byte	0x1883
 3518 0bb2 03       		.uleb128 0x3
 3519 0bb3 91       		.byte	0x91
 3520 0bb4 A87E     		.sleb128 -216
 3521 0bb6 17       		.uleb128 0x17
 3522 0bb7 77040000 		.4byte	.LASF73
 3523 0bbb 01       		.byte	0x1
 3524 0bbc 8A01     		.2byte	0x18a
 3525 0bbe 83180000 		.4byte	0x1883
 3526 0bc2 03       		.uleb128 0x3
 3527 0bc3 91       		.byte	0x91
 3528 0bc4 BC7E     		.sleb128 -196
 3529 0bc6 17       		.uleb128 0x17
 3530 0bc7 76030000 		.4byte	.LASF74
 3531 0bcb 01       		.byte	0x1
 3532 0bcc 8F01     		.2byte	0x18f
 3533 0bce 83180000 		.4byte	0x1883
 3534 0bd2 03       		.uleb128 0x3
 3535 0bd3 91       		.byte	0x91
 3536 0bd4 D07E     		.sleb128 -176
 3537 0bd6 17       		.uleb128 0x17
 3538 0bd7 04080000 		.4byte	.LASF75
 3539 0bdb 01       		.byte	0x1
 3540 0bdc 9401     		.2byte	0x194
 3541 0bde 83180000 		.4byte	0x1883
 3542 0be2 03       		.uleb128 0x3
 3543 0be3 91       		.byte	0x91
 3544 0be4 E47E     		.sleb128 -156
 3545 0be6 13       		.uleb128 0x13
 3546 0be7 78050000 		.4byte	.LVL138
 3547 0beb 21190000 		.4byte	0x1921
 3548 0bef FD0B0000 		.4byte	0xbfd
 3549 0bf3 14       		.uleb128 0x14
 3550 0bf4 01       		.uleb128 0x1
 3551 0bf5 50       		.byte	0x50
 3552 0bf6 05       		.uleb128 0x5
 3553 0bf7 03       		.byte	0x3
 3554 0bf8 FC030000 		.4byte	.LC95
 3555 0bfc 00       		.byte	0
ARM GAS  C:\Users\ccheney\AppData\Local\Temp\ccOO3kAb.s 			page 82


 3556 0bfd 13       		.uleb128 0x13
 3557 0bfe 7E050000 		.4byte	.LVL139
 3558 0c02 16190000 		.4byte	0x1916
 3559 0c06 110C0000 		.4byte	0xc11
 3560 0c0a 14       		.uleb128 0x14
 3561 0c0b 01       		.uleb128 0x1
 3562 0c0c 50       		.byte	0x50
 3563 0c0d 02       		.uleb128 0x2
 3564 0c0e 74       		.byte	0x74
 3565 0c0f 00       		.sleb128 0
 3566 0c10 00       		.byte	0
 3567 0c11 13       		.uleb128 0x13
 3568 0c12 86050000 		.4byte	.LVL140
 3569 0c16 42190000 		.4byte	0x1942
 3570 0c1a 2B0C0000 		.4byte	0xc2b
 3571 0c1e 14       		.uleb128 0x14
 3572 0c1f 01       		.uleb128 0x1
 3573 0c20 50       		.byte	0x50
 3574 0c21 02       		.uleb128 0x2
 3575 0c22 74       		.byte	0x74
 3576 0c23 00       		.sleb128 0
 3577 0c24 14       		.uleb128 0x14
 3578 0c25 01       		.uleb128 0x1
 3579 0c26 51       		.byte	0x51
 3580 0c27 02       		.uleb128 0x2
 3581 0c28 08       		.byte	0x8
 3582 0c29 89       		.byte	0x89
 3583 0c2a 00       		.byte	0
 3584 0c2b 13       		.uleb128 0x13
 3585 0c2c 90050000 		.4byte	.LVL141
 3586 0c30 82190000 		.4byte	0x1982
 3587 0c34 4A0C0000 		.4byte	0xc4a
 3588 0c38 14       		.uleb128 0x14
 3589 0c39 01       		.uleb128 0x1
 3590 0c3a 50       		.byte	0x50
 3591 0c3b 03       		.uleb128 0x3
 3592 0c3c 91       		.byte	0x91
 3593 0c3d 947E     		.sleb128 -236
 3594 0c3f 14       		.uleb128 0x14
 3595 0c40 01       		.uleb128 0x1
 3596 0c41 51       		.byte	0x51
 3597 0c42 01       		.uleb128 0x1
 3598 0c43 30       		.byte	0x30
 3599 0c44 14       		.uleb128 0x14
 3600 0c45 01       		.uleb128 0x1
 3601 0c46 52       		.byte	0x52
 3602 0c47 01       		.uleb128 0x1
 3603 0c48 3F       		.byte	0x3f
 3604 0c49 00       		.byte	0
 3605 0c4a 13       		.uleb128 0x13
 3606 0c4b CE050000 		.4byte	.LVL142
 3607 0c4f 6E190000 		.4byte	0x196e
 3608 0c53 640C0000 		.4byte	0xc64
 3609 0c57 14       		.uleb128 0x14
 3610 0c58 01       		.uleb128 0x1
 3611 0c59 51       		.byte	0x51
 3612 0c5a 03       		.uleb128 0x3
ARM GAS  C:\Users\ccheney\AppData\Local\Temp\ccOO3kAb.s 			page 83


 3613 0c5b 91       		.byte	0x91
 3614 0c5c 947E     		.sleb128 -236
 3615 0c5e 14       		.uleb128 0x14
 3616 0c5f 01       		.uleb128 0x1
 3617 0c60 52       		.byte	0x52
 3618 0c61 01       		.uleb128 0x1
 3619 0c62 39       		.byte	0x39
 3620 0c63 00       		.byte	0
 3621 0c64 13       		.uleb128 0x13
 3622 0c65 D8050000 		.4byte	.LVL143
 3623 0c69 A1190000 		.4byte	0x19a1
 3624 0c6d 860C0000 		.4byte	0xc86
 3625 0c71 14       		.uleb128 0x14
 3626 0c72 01       		.uleb128 0x1
 3627 0c73 50       		.byte	0x50
 3628 0c74 02       		.uleb128 0x2
 3629 0c75 74       		.byte	0x74
 3630 0c76 00       		.sleb128 0
 3631 0c77 14       		.uleb128 0x14
 3632 0c78 01       		.uleb128 0x1
 3633 0c79 51       		.byte	0x51
 3634 0c7a 05       		.uleb128 0x5
 3635 0c7b 03       		.byte	0x3
 3636 0c7c 28040000 		.4byte	.LC97
 3637 0c80 14       		.uleb128 0x14
 3638 0c81 01       		.uleb128 0x1
 3639 0c82 52       		.byte	0x52
 3640 0c83 01       		.uleb128 0x1
 3641 0c84 30       		.byte	0x30
 3642 0c85 00       		.byte	0
 3643 0c86 15       		.uleb128 0x15
 3644 0c87 DC050000 		.4byte	.LVL144
 3645 0c8b 37190000 		.4byte	0x1937
 3646 0c8f 13       		.uleb128 0x13
 3647 0c90 E6050000 		.4byte	.LVL145
 3648 0c94 82190000 		.4byte	0x1982
 3649 0c98 AD0C0000 		.4byte	0xcad
 3650 0c9c 14       		.uleb128 0x14
 3651 0c9d 01       		.uleb128 0x1
 3652 0c9e 50       		.byte	0x50
 3653 0c9f 02       		.uleb128 0x2
 3654 0ca0 75       		.byte	0x75
 3655 0ca1 00       		.sleb128 0
 3656 0ca2 14       		.uleb128 0x14
 3657 0ca3 01       		.uleb128 0x1
 3658 0ca4 51       		.byte	0x51
 3659 0ca5 01       		.uleb128 0x1
 3660 0ca6 30       		.byte	0x30
 3661 0ca7 14       		.uleb128 0x14
 3662 0ca8 01       		.uleb128 0x1
 3663 0ca9 52       		.byte	0x52
 3664 0caa 01       		.uleb128 0x1
 3665 0cab 3F       		.byte	0x3f
 3666 0cac 00       		.byte	0
 3667 0cad 13       		.uleb128 0x13
 3668 0cae 12060000 		.4byte	.LVL146
 3669 0cb2 6E190000 		.4byte	0x196e
ARM GAS  C:\Users\ccheney\AppData\Local\Temp\ccOO3kAb.s 			page 84


 3670 0cb6 C60C0000 		.4byte	0xcc6
 3671 0cba 14       		.uleb128 0x14
 3672 0cbb 01       		.uleb128 0x1
 3673 0cbc 51       		.byte	0x51
 3674 0cbd 02       		.uleb128 0x2
 3675 0cbe 75       		.byte	0x75
 3676 0cbf 00       		.sleb128 0
 3677 0cc0 14       		.uleb128 0x14
 3678 0cc1 01       		.uleb128 0x1
 3679 0cc2 52       		.byte	0x52
 3680 0cc3 01       		.uleb128 0x1
 3681 0cc4 3B       		.byte	0x3b
 3682 0cc5 00       		.byte	0
 3683 0cc6 13       		.uleb128 0x13
 3684 0cc7 1E060000 		.4byte	.LVL147
 3685 0ccb A1190000 		.4byte	0x19a1
 3686 0ccf E80C0000 		.4byte	0xce8
 3687 0cd3 14       		.uleb128 0x14
 3688 0cd4 01       		.uleb128 0x1
 3689 0cd5 50       		.byte	0x50
 3690 0cd6 02       		.uleb128 0x2
 3691 0cd7 74       		.byte	0x74
 3692 0cd8 00       		.sleb128 0
 3693 0cd9 14       		.uleb128 0x14
 3694 0cda 01       		.uleb128 0x1
 3695 0cdb 51       		.byte	0x51
 3696 0cdc 05       		.uleb128 0x5
 3697 0cdd 03       		.byte	0x3
 3698 0cde 44040000 		.4byte	.LC99
 3699 0ce2 14       		.uleb128 0x14
 3700 0ce3 01       		.uleb128 0x1
 3701 0ce4 52       		.byte	0x52
 3702 0ce5 01       		.uleb128 0x1
 3703 0ce6 30       		.byte	0x30
 3704 0ce7 00       		.byte	0
 3705 0ce8 15       		.uleb128 0x15
 3706 0ce9 22060000 		.4byte	.LVL148
 3707 0ced 37190000 		.4byte	0x1937
 3708 0cf1 13       		.uleb128 0x13
 3709 0cf2 32060000 		.4byte	.LVL149
 3710 0cf6 6E190000 		.4byte	0x196e
 3711 0cfa 0A0D0000 		.4byte	0xd0a
 3712 0cfe 14       		.uleb128 0x14
 3713 0cff 01       		.uleb128 0x1
 3714 0d00 51       		.byte	0x51
 3715 0d01 02       		.uleb128 0x2
 3716 0d02 76       		.byte	0x76
 3717 0d03 00       		.sleb128 0
 3718 0d04 14       		.uleb128 0x14
 3719 0d05 01       		.uleb128 0x1
 3720 0d06 52       		.byte	0x52
 3721 0d07 01       		.uleb128 0x1
 3722 0d08 38       		.byte	0x38
 3723 0d09 00       		.byte	0
 3724 0d0a 13       		.uleb128 0x13
 3725 0d0b 3C060000 		.4byte	.LVL150
 3726 0d0f A1190000 		.4byte	0x19a1
ARM GAS  C:\Users\ccheney\AppData\Local\Temp\ccOO3kAb.s 			page 85


 3727 0d13 2D0D0000 		.4byte	0xd2d
 3728 0d17 14       		.uleb128 0x14
 3729 0d18 01       		.uleb128 0x1
 3730 0d19 50       		.byte	0x50
 3731 0d1a 02       		.uleb128 0x2
 3732 0d1b 74       		.byte	0x74
 3733 0d1c 00       		.sleb128 0
 3734 0d1d 14       		.uleb128 0x14
 3735 0d1e 01       		.uleb128 0x1
 3736 0d1f 51       		.byte	0x51
 3737 0d20 05       		.uleb128 0x5
 3738 0d21 03       		.byte	0x3
 3739 0d22 54040000 		.4byte	.LC101
 3740 0d26 14       		.uleb128 0x14
 3741 0d27 01       		.uleb128 0x1
 3742 0d28 52       		.byte	0x52
 3743 0d29 02       		.uleb128 0x2
 3744 0d2a 08       		.byte	0x8
 3745 0d2b 20       		.byte	0x20
 3746 0d2c 00       		.byte	0
 3747 0d2d 15       		.uleb128 0x15
 3748 0d2e 40060000 		.4byte	.LVL151
 3749 0d32 37190000 		.4byte	0x1937
 3750 0d36 13       		.uleb128 0x13
 3751 0d37 4A060000 		.4byte	.LVL152
 3752 0d3b 82190000 		.4byte	0x1982
 3753 0d3f 550D0000 		.4byte	0xd55
 3754 0d43 14       		.uleb128 0x14
 3755 0d44 01       		.uleb128 0x1
 3756 0d45 50       		.byte	0x50
 3757 0d46 03       		.uleb128 0x3
 3758 0d47 91       		.byte	0x91
 3759 0d48 BC7E     		.sleb128 -196
 3760 0d4a 14       		.uleb128 0x14
 3761 0d4b 01       		.uleb128 0x1
 3762 0d4c 51       		.byte	0x51
 3763 0d4d 01       		.uleb128 0x1
 3764 0d4e 30       		.byte	0x30
 3765 0d4f 14       		.uleb128 0x14
 3766 0d50 01       		.uleb128 0x1
 3767 0d51 52       		.byte	0x52
 3768 0d52 01       		.uleb128 0x1
 3769 0d53 3F       		.byte	0x3f
 3770 0d54 00       		.byte	0
 3771 0d55 13       		.uleb128 0x13
 3772 0d56 B0060000 		.4byte	.LVL153
 3773 0d5a 6E190000 		.4byte	0x196e
 3774 0d5e 6F0D0000 		.4byte	0xd6f
 3775 0d62 14       		.uleb128 0x14
 3776 0d63 01       		.uleb128 0x1
 3777 0d64 51       		.byte	0x51
 3778 0d65 03       		.uleb128 0x3
 3779 0d66 91       		.byte	0x91
 3780 0d67 BC7E     		.sleb128 -196
 3781 0d69 14       		.uleb128 0x14
 3782 0d6a 01       		.uleb128 0x1
 3783 0d6b 52       		.byte	0x52
ARM GAS  C:\Users\ccheney\AppData\Local\Temp\ccOO3kAb.s 			page 86


 3784 0d6c 01       		.uleb128 0x1
 3785 0d6d 3B       		.byte	0x3b
 3786 0d6e 00       		.byte	0
 3787 0d6f 13       		.uleb128 0x13
 3788 0d70 BA060000 		.4byte	.LVL154
 3789 0d74 A1190000 		.4byte	0x19a1
 3790 0d78 920D0000 		.4byte	0xd92
 3791 0d7c 14       		.uleb128 0x14
 3792 0d7d 01       		.uleb128 0x1
 3793 0d7e 50       		.byte	0x50
 3794 0d7f 02       		.uleb128 0x2
 3795 0d80 74       		.byte	0x74
 3796 0d81 00       		.sleb128 0
 3797 0d82 14       		.uleb128 0x14
 3798 0d83 01       		.uleb128 0x1
 3799 0d84 51       		.byte	0x51
 3800 0d85 05       		.uleb128 0x5
 3801 0d86 03       		.byte	0x3
 3802 0d87 64040000 		.4byte	.LC103
 3803 0d8b 14       		.uleb128 0x14
 3804 0d8c 01       		.uleb128 0x1
 3805 0d8d 52       		.byte	0x52
 3806 0d8e 02       		.uleb128 0x2
 3807 0d8f 7B       		.byte	0x7b
 3808 0d90 00       		.sleb128 0
 3809 0d91 00       		.byte	0
 3810 0d92 15       		.uleb128 0x15
 3811 0d93 BE060000 		.4byte	.LVL155
 3812 0d97 37190000 		.4byte	0x1937
 3813 0d9b 13       		.uleb128 0x13
 3814 0d9c CA060000 		.4byte	.LVL156
 3815 0da0 82190000 		.4byte	0x1982
 3816 0da4 B90D0000 		.4byte	0xdb9
 3817 0da8 14       		.uleb128 0x14
 3818 0da9 01       		.uleb128 0x1
 3819 0daa 50       		.byte	0x50
 3820 0dab 02       		.uleb128 0x2
 3821 0dac 77       		.byte	0x77
 3822 0dad 00       		.sleb128 0
 3823 0dae 14       		.uleb128 0x14
 3824 0daf 01       		.uleb128 0x1
 3825 0db0 51       		.byte	0x51
 3826 0db1 01       		.uleb128 0x1
 3827 0db2 30       		.byte	0x30
 3828 0db3 14       		.uleb128 0x14
 3829 0db4 01       		.uleb128 0x1
 3830 0db5 52       		.byte	0x52
 3831 0db6 01       		.uleb128 0x1
 3832 0db7 3F       		.byte	0x3f
 3833 0db8 00       		.byte	0
 3834 0db9 13       		.uleb128 0x13
 3835 0dba F8060000 		.4byte	.LVL157
 3836 0dbe 6E190000 		.4byte	0x196e
 3837 0dc2 D20D0000 		.4byte	0xdd2
 3838 0dc6 14       		.uleb128 0x14
 3839 0dc7 01       		.uleb128 0x1
 3840 0dc8 51       		.byte	0x51
ARM GAS  C:\Users\ccheney\AppData\Local\Temp\ccOO3kAb.s 			page 87


 3841 0dc9 02       		.uleb128 0x2
 3842 0dca 77       		.byte	0x77
 3843 0dcb 00       		.sleb128 0
 3844 0dcc 14       		.uleb128 0x14
 3845 0dcd 01       		.uleb128 0x1
 3846 0dce 52       		.byte	0x52
 3847 0dcf 01       		.uleb128 0x1
 3848 0dd0 3B       		.byte	0x3b
 3849 0dd1 00       		.byte	0
 3850 0dd2 13       		.uleb128 0x13
 3851 0dd3 04070000 		.4byte	.LVL158
 3852 0dd7 A1190000 		.4byte	0x19a1
 3853 0ddb F60D0000 		.4byte	0xdf6
 3854 0ddf 14       		.uleb128 0x14
 3855 0de0 01       		.uleb128 0x1
 3856 0de1 50       		.byte	0x50
 3857 0de2 02       		.uleb128 0x2
 3858 0de3 74       		.byte	0x74
 3859 0de4 00       		.sleb128 0
 3860 0de5 14       		.uleb128 0x14
 3861 0de6 01       		.uleb128 0x1
 3862 0de7 51       		.byte	0x51
 3863 0de8 05       		.uleb128 0x5
 3864 0de9 03       		.byte	0x3
 3865 0dea 78040000 		.4byte	.LC105
 3866 0dee 14       		.uleb128 0x14
 3867 0def 01       		.uleb128 0x1
 3868 0df0 52       		.byte	0x52
 3869 0df1 03       		.uleb128 0x3
 3870 0df2 0A       		.byte	0xa
 3871 0df3 0002     		.2byte	0x200
 3872 0df5 00       		.byte	0
 3873 0df6 15       		.uleb128 0x15
 3874 0df7 08070000 		.4byte	.LVL159
 3875 0dfb 37190000 		.4byte	0x1937
 3876 0dff 13       		.uleb128 0x13
 3877 0e00 14070000 		.4byte	.LVL160
 3878 0e04 82190000 		.4byte	0x1982
 3879 0e08 1D0E0000 		.4byte	0xe1d
 3880 0e0c 14       		.uleb128 0x14
 3881 0e0d 01       		.uleb128 0x1
 3882 0e0e 50       		.byte	0x50
 3883 0e0f 02       		.uleb128 0x2
 3884 0e10 75       		.byte	0x75
 3885 0e11 00       		.sleb128 0
 3886 0e12 14       		.uleb128 0x14
 3887 0e13 01       		.uleb128 0x1
 3888 0e14 51       		.byte	0x51
 3889 0e15 01       		.uleb128 0x1
 3890 0e16 30       		.byte	0x30
 3891 0e17 14       		.uleb128 0x14
 3892 0e18 01       		.uleb128 0x1
 3893 0e19 52       		.byte	0x52
 3894 0e1a 01       		.uleb128 0x1
 3895 0e1b 3F       		.byte	0x3f
 3896 0e1c 00       		.byte	0
 3897 0e1d 13       		.uleb128 0x13
ARM GAS  C:\Users\ccheney\AppData\Local\Temp\ccOO3kAb.s 			page 88


 3898 0e1e 40070000 		.4byte	.LVL161
 3899 0e22 6E190000 		.4byte	0x196e
 3900 0e26 360E0000 		.4byte	0xe36
 3901 0e2a 14       		.uleb128 0x14
 3902 0e2b 01       		.uleb128 0x1
 3903 0e2c 51       		.byte	0x51
 3904 0e2d 02       		.uleb128 0x2
 3905 0e2e 75       		.byte	0x75
 3906 0e2f 00       		.sleb128 0
 3907 0e30 14       		.uleb128 0x14
 3908 0e31 01       		.uleb128 0x1
 3909 0e32 52       		.byte	0x52
 3910 0e33 01       		.uleb128 0x1
 3911 0e34 3B       		.byte	0x3b
 3912 0e35 00       		.byte	0
 3913 0e36 13       		.uleb128 0x13
 3914 0e37 4A070000 		.4byte	.LVL162
 3915 0e3b A1190000 		.4byte	0x19a1
 3916 0e3f 580E0000 		.4byte	0xe58
 3917 0e43 14       		.uleb128 0x14
 3918 0e44 01       		.uleb128 0x1
 3919 0e45 50       		.byte	0x50
 3920 0e46 02       		.uleb128 0x2
 3921 0e47 74       		.byte	0x74
 3922 0e48 00       		.sleb128 0
 3923 0e49 14       		.uleb128 0x14
 3924 0e4a 01       		.uleb128 0x1
 3925 0e4b 51       		.byte	0x51
 3926 0e4c 05       		.uleb128 0x5
 3927 0e4d 03       		.byte	0x3
 3928 0e4e 88040000 		.4byte	.LC107
 3929 0e52 14       		.uleb128 0x14
 3930 0e53 01       		.uleb128 0x1
 3931 0e54 52       		.byte	0x52
 3932 0e55 01       		.uleb128 0x1
 3933 0e56 34       		.byte	0x34
 3934 0e57 00       		.byte	0
 3935 0e58 15       		.uleb128 0x15
 3936 0e59 4E070000 		.4byte	.LVL163
 3937 0e5d 37190000 		.4byte	0x1937
 3938 0e61 16       		.uleb128 0x16
 3939 0e62 54070000 		.4byte	.LVL164
 3940 0e66 4D190000 		.4byte	0x194d
 3941 0e6a 14       		.uleb128 0x14
 3942 0e6b 01       		.uleb128 0x1
 3943 0e6c 50       		.byte	0x50
 3944 0e6d 02       		.uleb128 0x2
 3945 0e6e 74       		.byte	0x74
 3946 0e6f 00       		.sleb128 0
 3947 0e70 00       		.byte	0
 3948 0e71 00       		.byte	0
 3949 0e72 11       		.uleb128 0x11
 3950 0e73 54070000 		.4byte	.LBB9
 3951 0e77 C8020000 		.4byte	.LBE9-.LBB9
 3952 0e7b 5D120000 		.4byte	0x125d
 3953 0e7f 17       		.uleb128 0x17
 3954 0e80 91040000 		.4byte	.LASF76
ARM GAS  C:\Users\ccheney\AppData\Local\Temp\ccOO3kAb.s 			page 89


 3955 0e84 01       		.byte	0x1
 3956 0e85 A201     		.2byte	0x1a2
 3957 0e87 4F030000 		.4byte	0x34f
 3958 0e8b 03       		.uleb128 0x3
 3959 0e8c 91       		.byte	0x91
 3960 0e8d F87E     		.sleb128 -136
 3961 0e8f 17       		.uleb128 0x17
 3962 0e90 2A050000 		.4byte	.LASF71
 3963 0e94 01       		.byte	0x1
 3964 0e95 A601     		.2byte	0x1a6
 3965 0e97 A3180000 		.4byte	0x18a3
 3966 0e9b 04       		.uleb128 0x4
 3967 0e9c 91       		.byte	0x91
 3968 0e9d 8C7F     		.sleb128 -116
 3969 0e9f 9F       		.byte	0x9f
 3970 0ea0 17       		.uleb128 0x17
 3971 0ea1 42000000 		.4byte	.LASF67
 3972 0ea5 01       		.byte	0x1
 3973 0ea6 A801     		.2byte	0x1a8
 3974 0ea8 83180000 		.4byte	0x1883
 3975 0eac 03       		.uleb128 0x3
 3976 0ead 91       		.byte	0x91
 3977 0eae F47C     		.sleb128 -396
 3978 0eb0 17       		.uleb128 0x17
 3979 0eb1 18030000 		.4byte	.LASF41
 3980 0eb5 01       		.byte	0x1
 3981 0eb6 AB01     		.2byte	0x1ab
 3982 0eb8 83180000 		.4byte	0x1883
 3983 0ebc 03       		.uleb128 0x3
 3984 0ebd 91       		.byte	0x91
 3985 0ebe 847D     		.sleb128 -380
 3986 0ec0 17       		.uleb128 0x17
 3987 0ec1 E6060000 		.4byte	.LASF77
 3988 0ec5 01       		.byte	0x1
 3989 0ec6 AC01     		.2byte	0x1ac
 3990 0ec8 13020000 		.4byte	0x213
 3991 0ecc 03       		.uleb128 0x3
 3992 0ecd 91       		.byte	0x91
 3993 0ece 947E     		.sleb128 -236
 3994 0ed0 17       		.uleb128 0x17
 3995 0ed1 F9020000 		.4byte	.LASF72
 3996 0ed5 01       		.byte	0x1
 3997 0ed6 B801     		.2byte	0x1b8
 3998 0ed8 83180000 		.4byte	0x1883
 3999 0edc 03       		.uleb128 0x3
 4000 0edd 91       		.byte	0x91
 4001 0ede 947D     		.sleb128 -364
 4002 0ee0 17       		.uleb128 0x17
 4003 0ee1 36080000 		.4byte	.LASF78
 4004 0ee5 01       		.byte	0x1
 4005 0ee6 B901     		.2byte	0x1b9
 4006 0ee8 83180000 		.4byte	0x1883
 4007 0eec 03       		.uleb128 0x3
 4008 0eed 91       		.byte	0x91
 4009 0eee A47D     		.sleb128 -348
 4010 0ef0 17       		.uleb128 0x17
 4011 0ef1 B4040000 		.4byte	.LASF79
ARM GAS  C:\Users\ccheney\AppData\Local\Temp\ccOO3kAb.s 			page 90


 4012 0ef5 01       		.byte	0x1
 4013 0ef6 BD01     		.2byte	0x1bd
 4014 0ef8 13020000 		.4byte	0x213
 4015 0efc 03       		.uleb128 0x3
 4016 0efd 91       		.byte	0x91
 4017 0efe A87E     		.sleb128 -216
 4018 0f00 17       		.uleb128 0x17
 4019 0f01 82010000 		.4byte	.LASF80
 4020 0f05 01       		.byte	0x1
 4021 0f06 C801     		.2byte	0x1c8
 4022 0f08 83180000 		.4byte	0x1883
 4023 0f0c 03       		.uleb128 0x3
 4024 0f0d 91       		.byte	0x91
 4025 0f0e B47D     		.sleb128 -332
 4026 0f10 17       		.uleb128 0x17
 4027 0f11 77010000 		.4byte	.LASF81
 4028 0f15 01       		.byte	0x1
 4029 0f16 C901     		.2byte	0x1c9
 4030 0f18 83180000 		.4byte	0x1883
 4031 0f1c 03       		.uleb128 0x3
 4032 0f1d 91       		.byte	0x91
 4033 0f1e C47D     		.sleb128 -316
 4034 0f20 17       		.uleb128 0x17
 4035 0f21 CF030000 		.4byte	.LASF82
 4036 0f25 01       		.byte	0x1
 4037 0f26 CC01     		.2byte	0x1cc
 4038 0f28 13020000 		.4byte	0x213
 4039 0f2c 03       		.uleb128 0x3
 4040 0f2d 91       		.byte	0x91
 4041 0f2e BC7E     		.sleb128 -196
 4042 0f30 17       		.uleb128 0x17
 4043 0f31 EF010000 		.4byte	.LASF83
 4044 0f35 01       		.byte	0x1
 4045 0f36 D701     		.2byte	0x1d7
 4046 0f38 83180000 		.4byte	0x1883
 4047 0f3c 03       		.uleb128 0x3
 4048 0f3d 91       		.byte	0x91
 4049 0f3e D47D     		.sleb128 -300
 4050 0f40 17       		.uleb128 0x17
 4051 0f41 3F080000 		.4byte	.LASF84
 4052 0f45 01       		.byte	0x1
 4053 0f46 D801     		.2byte	0x1d8
 4054 0f48 83180000 		.4byte	0x1883
 4055 0f4c 03       		.uleb128 0x3
 4056 0f4d 91       		.byte	0x91
 4057 0f4e E47D     		.sleb128 -284
 4058 0f50 17       		.uleb128 0x17
 4059 0f51 D5070000 		.4byte	.LASF85
 4060 0f55 01       		.byte	0x1
 4061 0f56 DC01     		.2byte	0x1dc
 4062 0f58 13020000 		.4byte	0x213
 4063 0f5c 03       		.uleb128 0x3
 4064 0f5d 91       		.byte	0x91
 4065 0f5e D07E     		.sleb128 -176
 4066 0f60 17       		.uleb128 0x17
 4067 0f61 20000000 		.4byte	.LASF86
 4068 0f65 01       		.byte	0x1
ARM GAS  C:\Users\ccheney\AppData\Local\Temp\ccOO3kAb.s 			page 91


 4069 0f66 E701     		.2byte	0x1e7
 4070 0f68 83180000 		.4byte	0x1883
 4071 0f6c 03       		.uleb128 0x3
 4072 0f6d 91       		.byte	0x91
 4073 0f6e F47D     		.sleb128 -268
 4074 0f70 17       		.uleb128 0x17
 4075 0f71 89080000 		.4byte	.LASF87
 4076 0f75 01       		.byte	0x1
 4077 0f76 E801     		.2byte	0x1e8
 4078 0f78 83180000 		.4byte	0x1883
 4079 0f7c 03       		.uleb128 0x3
 4080 0f7d 91       		.byte	0x91
 4081 0f7e 847E     		.sleb128 -252
 4082 0f80 17       		.uleb128 0x17
 4083 0f81 68080000 		.4byte	.LASF88
 4084 0f85 01       		.byte	0x1
 4085 0f86 EB01     		.2byte	0x1eb
 4086 0f88 13020000 		.4byte	0x213
 4087 0f8c 03       		.uleb128 0x3
 4088 0f8d 91       		.byte	0x91
 4089 0f8e E47E     		.sleb128 -156
 4090 0f90 13       		.uleb128 0x13
 4091 0f91 5A070000 		.4byte	.LVL165
 4092 0f95 21190000 		.4byte	0x1921
 4093 0f99 A70F0000 		.4byte	0xfa7
 4094 0f9d 14       		.uleb128 0x14
 4095 0f9e 01       		.uleb128 0x1
 4096 0f9f 50       		.byte	0x50
 4097 0fa0 05       		.uleb128 0x5
 4098 0fa1 03       		.byte	0x3
 4099 0fa2 9C040000 		.4byte	.LC109
 4100 0fa6 00       		.byte	0
 4101 0fa7 13       		.uleb128 0x13
 4102 0fa8 60070000 		.4byte	.LVL166
 4103 0fac 16190000 		.4byte	0x1916
 4104 0fb0 BB0F0000 		.4byte	0xfbb
 4105 0fb4 14       		.uleb128 0x14
 4106 0fb5 01       		.uleb128 0x1
 4107 0fb6 50       		.byte	0x50
 4108 0fb7 02       		.uleb128 0x2
 4109 0fb8 74       		.byte	0x74
 4110 0fb9 00       		.sleb128 0
 4111 0fba 00       		.byte	0
 4112 0fbb 13       		.uleb128 0x13
 4113 0fbc 68070000 		.4byte	.LVL167
 4114 0fc0 42190000 		.4byte	0x1942
 4115 0fc4 D50F0000 		.4byte	0xfd5
 4116 0fc8 14       		.uleb128 0x14
 4117 0fc9 01       		.uleb128 0x1
 4118 0fca 50       		.byte	0x50
 4119 0fcb 02       		.uleb128 0x2
 4120 0fcc 74       		.byte	0x74
 4121 0fcd 00       		.sleb128 0
 4122 0fce 14       		.uleb128 0x14
 4123 0fcf 01       		.uleb128 0x1
 4124 0fd0 51       		.byte	0x51
 4125 0fd1 02       		.uleb128 0x2
ARM GAS  C:\Users\ccheney\AppData\Local\Temp\ccOO3kAb.s 			page 92


 4126 0fd2 08       		.byte	0x8
 4127 0fd3 89       		.byte	0x89
 4128 0fd4 00       		.byte	0
 4129 0fd5 13       		.uleb128 0x13
 4130 0fd6 72070000 		.4byte	.LVL168
 4131 0fda 82190000 		.4byte	0x1982
 4132 0fde F40F0000 		.4byte	0xff4
 4133 0fe2 14       		.uleb128 0x14
 4134 0fe3 01       		.uleb128 0x1
 4135 0fe4 50       		.byte	0x50
 4136 0fe5 03       		.uleb128 0x3
 4137 0fe6 91       		.byte	0x91
 4138 0fe7 F47C     		.sleb128 -396
 4139 0fe9 14       		.uleb128 0x14
 4140 0fea 01       		.uleb128 0x1
 4141 0feb 51       		.byte	0x51
 4142 0fec 01       		.uleb128 0x1
 4143 0fed 30       		.byte	0x30
 4144 0fee 14       		.uleb128 0x14
 4145 0fef 01       		.uleb128 0x1
 4146 0ff0 52       		.byte	0x52
 4147 0ff1 01       		.uleb128 0x1
 4148 0ff2 3F       		.byte	0x3f
 4149 0ff3 00       		.byte	0
 4150 0ff4 13       		.uleb128 0x13
 4151 0ff5 96070000 		.4byte	.LVL169
 4152 0ff9 6E190000 		.4byte	0x196e
 4153 0ffd 0E100000 		.4byte	0x100e
 4154 1001 14       		.uleb128 0x14
 4155 1002 01       		.uleb128 0x1
 4156 1003 51       		.byte	0x51
 4157 1004 03       		.uleb128 0x3
 4158 1005 91       		.byte	0x91
 4159 1006 F47C     		.sleb128 -396
 4160 1008 14       		.uleb128 0x14
 4161 1009 01       		.uleb128 0x1
 4162 100a 52       		.byte	0x52
 4163 100b 01       		.uleb128 0x1
 4164 100c 39       		.byte	0x39
 4165 100d 00       		.byte	0
 4166 100e 13       		.uleb128 0x13
 4167 100f BC070000 		.4byte	.LVL170
 4168 1013 AC190000 		.4byte	0x19ac
 4169 1017 31100000 		.4byte	0x1031
 4170 101b 14       		.uleb128 0x14
 4171 101c 01       		.uleb128 0x1
 4172 101d 50       		.byte	0x50
 4173 101e 02       		.uleb128 0x2
 4174 101f 74       		.byte	0x74
 4175 1020 00       		.sleb128 0
 4176 1021 14       		.uleb128 0x14
 4177 1022 01       		.uleb128 0x1
 4178 1023 51       		.byte	0x51
 4179 1024 05       		.uleb128 0x5
 4180 1025 03       		.byte	0x3
 4181 1026 C8040000 		.4byte	.LC111
 4182 102a 14       		.uleb128 0x14
ARM GAS  C:\Users\ccheney\AppData\Local\Temp\ccOO3kAb.s 			page 93


 4183 102b 01       		.uleb128 0x1
 4184 102c 52       		.byte	0x52
 4185 102d 02       		.uleb128 0x2
 4186 102e 76       		.byte	0x76
 4187 102f 00       		.sleb128 0
 4188 1030 00       		.byte	0
 4189 1031 15       		.uleb128 0x15
 4190 1032 C0070000 		.4byte	.LVL171
 4191 1036 37190000 		.4byte	0x1937
 4192 103a 13       		.uleb128 0x13
 4193 103b CC070000 		.4byte	.LVL172
 4194 103f 82190000 		.4byte	0x1982
 4195 1043 59100000 		.4byte	0x1059
 4196 1047 14       		.uleb128 0x14
 4197 1048 01       		.uleb128 0x1
 4198 1049 50       		.byte	0x50
 4199 104a 02       		.uleb128 0x2
 4200 104b 76       		.byte	0x76
 4201 104c 00       		.sleb128 0
 4202 104d 14       		.uleb128 0x14
 4203 104e 01       		.uleb128 0x1
 4204 104f 51       		.byte	0x51
 4205 1050 02       		.uleb128 0x2
 4206 1051 79       		.byte	0x79
 4207 1052 00       		.sleb128 0
 4208 1053 14       		.uleb128 0x14
 4209 1054 01       		.uleb128 0x1
 4210 1055 52       		.byte	0x52
 4211 1056 01       		.uleb128 0x1
 4212 1057 3F       		.byte	0x3f
 4213 1058 00       		.byte	0
 4214 1059 13       		.uleb128 0x13
 4215 105a F6070000 		.4byte	.LVL173
 4216 105e 82190000 		.4byte	0x1982
 4217 1062 78100000 		.4byte	0x1078
 4218 1066 14       		.uleb128 0x14
 4219 1067 01       		.uleb128 0x1
 4220 1068 50       		.byte	0x50
 4221 1069 02       		.uleb128 0x2
 4222 106a 76       		.byte	0x76
 4223 106b 00       		.sleb128 0
 4224 106c 14       		.uleb128 0x14
 4225 106d 01       		.uleb128 0x1
 4226 106e 51       		.byte	0x51
 4227 106f 02       		.uleb128 0x2
 4228 1070 79       		.byte	0x79
 4229 1071 00       		.sleb128 0
 4230 1072 14       		.uleb128 0x14
 4231 1073 01       		.uleb128 0x1
 4232 1074 52       		.byte	0x52
 4233 1075 01       		.uleb128 0x1
 4234 1076 3F       		.byte	0x3f
 4235 1077 00       		.byte	0
 4236 1078 13       		.uleb128 0x13
 4237 1079 0A080000 		.4byte	.LVL174
 4238 107d 6E190000 		.4byte	0x196e
 4239 1081 92100000 		.4byte	0x1092
ARM GAS  C:\Users\ccheney\AppData\Local\Temp\ccOO3kAb.s 			page 94


 4240 1085 14       		.uleb128 0x14
 4241 1086 01       		.uleb128 0x1
 4242 1087 51       		.byte	0x51
 4243 1088 03       		.uleb128 0x3
 4244 1089 91       		.byte	0x91
 4245 108a 947D     		.sleb128 -364
 4246 108c 14       		.uleb128 0x14
 4247 108d 01       		.uleb128 0x1
 4248 108e 52       		.byte	0x52
 4249 108f 01       		.uleb128 0x1
 4250 1090 3B       		.byte	0x3b
 4251 1091 00       		.byte	0
 4252 1092 13       		.uleb128 0x13
 4253 1093 30080000 		.4byte	.LVL175
 4254 1097 AC190000 		.4byte	0x19ac
 4255 109b B6100000 		.4byte	0x10b6
 4256 109f 14       		.uleb128 0x14
 4257 10a0 01       		.uleb128 0x1
 4258 10a1 50       		.byte	0x50
 4259 10a2 02       		.uleb128 0x2
 4260 10a3 74       		.byte	0x74
 4261 10a4 00       		.sleb128 0
 4262 10a5 14       		.uleb128 0x14
 4263 10a6 01       		.uleb128 0x1
 4264 10a7 51       		.byte	0x51
 4265 10a8 05       		.uleb128 0x5
 4266 10a9 03       		.byte	0x3
 4267 10aa D4040000 		.4byte	.LC113
 4268 10ae 14       		.uleb128 0x14
 4269 10af 01       		.uleb128 0x1
 4270 10b0 52       		.byte	0x52
 4271 10b1 03       		.uleb128 0x3
 4272 10b2 91       		.byte	0x91
 4273 10b3 A87E     		.sleb128 -216
 4274 10b5 00       		.byte	0
 4275 10b6 15       		.uleb128 0x15
 4276 10b7 34080000 		.4byte	.LVL176
 4277 10bb 37190000 		.4byte	0x1937
 4278 10bf 13       		.uleb128 0x13
 4279 10c0 40080000 		.4byte	.LVL177
 4280 10c4 82190000 		.4byte	0x1982
 4281 10c8 DE100000 		.4byte	0x10de
 4282 10cc 14       		.uleb128 0x14
 4283 10cd 01       		.uleb128 0x1
 4284 10ce 50       		.byte	0x50
 4285 10cf 02       		.uleb128 0x2
 4286 10d0 76       		.byte	0x76
 4287 10d1 00       		.sleb128 0
 4288 10d2 14       		.uleb128 0x14
 4289 10d3 01       		.uleb128 0x1
 4290 10d4 51       		.byte	0x51
 4291 10d5 02       		.uleb128 0x2
 4292 10d6 79       		.byte	0x79
 4293 10d7 00       		.sleb128 0
 4294 10d8 14       		.uleb128 0x14
 4295 10d9 01       		.uleb128 0x1
 4296 10da 52       		.byte	0x52
ARM GAS  C:\Users\ccheney\AppData\Local\Temp\ccOO3kAb.s 			page 95


 4297 10db 01       		.uleb128 0x1
 4298 10dc 3F       		.byte	0x3f
 4299 10dd 00       		.byte	0
 4300 10de 13       		.uleb128 0x13
 4301 10df 6A080000 		.4byte	.LVL178
 4302 10e3 82190000 		.4byte	0x1982
 4303 10e7 FD100000 		.4byte	0x10fd
 4304 10eb 14       		.uleb128 0x14
 4305 10ec 01       		.uleb128 0x1
 4306 10ed 50       		.byte	0x50
 4307 10ee 02       		.uleb128 0x2
 4308 10ef 76       		.byte	0x76
 4309 10f0 00       		.sleb128 0
 4310 10f1 14       		.uleb128 0x14
 4311 10f2 01       		.uleb128 0x1
 4312 10f3 51       		.byte	0x51
 4313 10f4 02       		.uleb128 0x2
 4314 10f5 79       		.byte	0x79
 4315 10f6 00       		.sleb128 0
 4316 10f7 14       		.uleb128 0x14
 4317 10f8 01       		.uleb128 0x1
 4318 10f9 52       		.byte	0x52
 4319 10fa 01       		.uleb128 0x1
 4320 10fb 3F       		.byte	0x3f
 4321 10fc 00       		.byte	0
 4322 10fd 13       		.uleb128 0x13
 4323 10fe 7E080000 		.4byte	.LVL179
 4324 1102 6E190000 		.4byte	0x196e
 4325 1106 17110000 		.4byte	0x1117
 4326 110a 14       		.uleb128 0x14
 4327 110b 01       		.uleb128 0x1
 4328 110c 51       		.byte	0x51
 4329 110d 03       		.uleb128 0x3
 4330 110e 91       		.byte	0x91
 4331 110f B47D     		.sleb128 -332
 4332 1111 14       		.uleb128 0x14
 4333 1112 01       		.uleb128 0x1
 4334 1113 52       		.byte	0x52
 4335 1114 01       		.uleb128 0x1
 4336 1115 3B       		.byte	0x3b
 4337 1116 00       		.byte	0
 4338 1117 13       		.uleb128 0x13
 4339 1118 1E090000 		.4byte	.LVL180
 4340 111c AC190000 		.4byte	0x19ac
 4341 1120 3B110000 		.4byte	0x113b
 4342 1124 14       		.uleb128 0x14
 4343 1125 01       		.uleb128 0x1
 4344 1126 50       		.byte	0x50
 4345 1127 02       		.uleb128 0x2
 4346 1128 74       		.byte	0x74
 4347 1129 00       		.sleb128 0
 4348 112a 14       		.uleb128 0x14
 4349 112b 01       		.uleb128 0x1
 4350 112c 51       		.byte	0x51
 4351 112d 05       		.uleb128 0x5
 4352 112e 03       		.byte	0x3
 4353 112f E4040000 		.4byte	.LC115
ARM GAS  C:\Users\ccheney\AppData\Local\Temp\ccOO3kAb.s 			page 96


 4354 1133 14       		.uleb128 0x14
 4355 1134 01       		.uleb128 0x1
 4356 1135 52       		.byte	0x52
 4357 1136 03       		.uleb128 0x3
 4358 1137 91       		.byte	0x91
 4359 1138 BC7E     		.sleb128 -196
 4360 113a 00       		.byte	0
 4361 113b 15       		.uleb128 0x15
 4362 113c 22090000 		.4byte	.LVL181
 4363 1140 37190000 		.4byte	0x1937
 4364 1144 13       		.uleb128 0x13
 4365 1145 2E090000 		.4byte	.LVL182
 4366 1149 82190000 		.4byte	0x1982
 4367 114d 63110000 		.4byte	0x1163
 4368 1151 14       		.uleb128 0x14
 4369 1152 01       		.uleb128 0x1
 4370 1153 50       		.byte	0x50
 4371 1154 02       		.uleb128 0x2
 4372 1155 76       		.byte	0x76
 4373 1156 00       		.sleb128 0
 4374 1157 14       		.uleb128 0x14
 4375 1158 01       		.uleb128 0x1
 4376 1159 51       		.byte	0x51
 4377 115a 02       		.uleb128 0x2
 4378 115b 79       		.byte	0x79
 4379 115c 00       		.sleb128 0
 4380 115d 14       		.uleb128 0x14
 4381 115e 01       		.uleb128 0x1
 4382 115f 52       		.byte	0x52
 4383 1160 01       		.uleb128 0x1
 4384 1161 3F       		.byte	0x3f
 4385 1162 00       		.byte	0
 4386 1163 13       		.uleb128 0x13
 4387 1164 58090000 		.4byte	.LVL183
 4388 1168 82190000 		.4byte	0x1982
 4389 116c 82110000 		.4byte	0x1182
 4390 1170 14       		.uleb128 0x14
 4391 1171 01       		.uleb128 0x1
 4392 1172 50       		.byte	0x50
 4393 1173 02       		.uleb128 0x2
 4394 1174 76       		.byte	0x76
 4395 1175 00       		.sleb128 0
 4396 1176 14       		.uleb128 0x14
 4397 1177 01       		.uleb128 0x1
 4398 1178 51       		.byte	0x51
 4399 1179 02       		.uleb128 0x2
 4400 117a 79       		.byte	0x79
 4401 117b 00       		.sleb128 0
 4402 117c 14       		.uleb128 0x14
 4403 117d 01       		.uleb128 0x1
 4404 117e 52       		.byte	0x52
 4405 117f 01       		.uleb128 0x1
 4406 1180 3F       		.byte	0x3f
 4407 1181 00       		.byte	0
 4408 1182 13       		.uleb128 0x13
 4409 1183 6C090000 		.4byte	.LVL184
 4410 1187 6E190000 		.4byte	0x196e
ARM GAS  C:\Users\ccheney\AppData\Local\Temp\ccOO3kAb.s 			page 97


 4411 118b 9C110000 		.4byte	0x119c
 4412 118f 14       		.uleb128 0x14
 4413 1190 01       		.uleb128 0x1
 4414 1191 51       		.byte	0x51
 4415 1192 03       		.uleb128 0x3
 4416 1193 91       		.byte	0x91
 4417 1194 D47D     		.sleb128 -300
 4418 1196 14       		.uleb128 0x14
 4419 1197 01       		.uleb128 0x1
 4420 1198 52       		.byte	0x52
 4421 1199 01       		.uleb128 0x1
 4422 119a 3B       		.byte	0x3b
 4423 119b 00       		.byte	0
 4424 119c 13       		.uleb128 0x13
 4425 119d 90090000 		.4byte	.LVL185
 4426 11a1 AC190000 		.4byte	0x19ac
 4427 11a5 BF110000 		.4byte	0x11bf
 4428 11a9 14       		.uleb128 0x14
 4429 11aa 01       		.uleb128 0x1
 4430 11ab 50       		.byte	0x50
 4431 11ac 02       		.uleb128 0x2
 4432 11ad 74       		.byte	0x74
 4433 11ae 00       		.sleb128 0
 4434 11af 14       		.uleb128 0x14
 4435 11b0 01       		.uleb128 0x1
 4436 11b1 51       		.byte	0x51
 4437 11b2 05       		.uleb128 0x5
 4438 11b3 03       		.byte	0x3
 4439 11b4 F8040000 		.4byte	.LC117
 4440 11b8 14       		.uleb128 0x14
 4441 11b9 01       		.uleb128 0x1
 4442 11ba 52       		.byte	0x52
 4443 11bb 02       		.uleb128 0x2
 4444 11bc 77       		.byte	0x77
 4445 11bd 00       		.sleb128 0
 4446 11be 00       		.byte	0
 4447 11bf 15       		.uleb128 0x15
 4448 11c0 94090000 		.4byte	.LVL186
 4449 11c4 37190000 		.4byte	0x1937
 4450 11c8 13       		.uleb128 0x13
 4451 11c9 A0090000 		.4byte	.LVL187
 4452 11cd 82190000 		.4byte	0x1982
 4453 11d1 E7110000 		.4byte	0x11e7
 4454 11d5 14       		.uleb128 0x14
 4455 11d6 01       		.uleb128 0x1
 4456 11d7 50       		.byte	0x50
 4457 11d8 02       		.uleb128 0x2
 4458 11d9 76       		.byte	0x76
 4459 11da 00       		.sleb128 0
 4460 11db 14       		.uleb128 0x14
 4461 11dc 01       		.uleb128 0x1
 4462 11dd 51       		.byte	0x51
 4463 11de 02       		.uleb128 0x2
 4464 11df 79       		.byte	0x79
 4465 11e0 00       		.sleb128 0
 4466 11e1 14       		.uleb128 0x14
 4467 11e2 01       		.uleb128 0x1
ARM GAS  C:\Users\ccheney\AppData\Local\Temp\ccOO3kAb.s 			page 98


 4468 11e3 52       		.byte	0x52
 4469 11e4 01       		.uleb128 0x1
 4470 11e5 3F       		.byte	0x3f
 4471 11e6 00       		.byte	0
 4472 11e7 13       		.uleb128 0x13
 4473 11e8 CA090000 		.4byte	.LVL188
 4474 11ec 82190000 		.4byte	0x1982
 4475 11f0 07120000 		.4byte	0x1207
 4476 11f4 14       		.uleb128 0x14
 4477 11f5 01       		.uleb128 0x1
 4478 11f6 50       		.byte	0x50
 4479 11f7 03       		.uleb128 0x3
 4480 11f8 91       		.byte	0x91
 4481 11f9 847E     		.sleb128 -252
 4482 11fb 14       		.uleb128 0x14
 4483 11fc 01       		.uleb128 0x1
 4484 11fd 51       		.byte	0x51
 4485 11fe 02       		.uleb128 0x2
 4486 11ff 79       		.byte	0x79
 4487 1200 00       		.sleb128 0
 4488 1201 14       		.uleb128 0x14
 4489 1202 01       		.uleb128 0x1
 4490 1203 52       		.byte	0x52
 4491 1204 01       		.uleb128 0x1
 4492 1205 3F       		.byte	0x3f
 4493 1206 00       		.byte	0
 4494 1207 13       		.uleb128 0x13
 4495 1208 EC090000 		.4byte	.LVL189
 4496 120c 6E190000 		.4byte	0x196e
 4497 1210 20120000 		.4byte	0x1220
 4498 1214 14       		.uleb128 0x14
 4499 1215 01       		.uleb128 0x1
 4500 1216 51       		.byte	0x51
 4501 1217 02       		.uleb128 0x2
 4502 1218 76       		.byte	0x76
 4503 1219 00       		.sleb128 0
 4504 121a 14       		.uleb128 0x14
 4505 121b 01       		.uleb128 0x1
 4506 121c 52       		.byte	0x52
 4507 121d 01       		.uleb128 0x1
 4508 121e 3B       		.byte	0x3b
 4509 121f 00       		.byte	0
 4510 1220 13       		.uleb128 0x13
 4511 1221 120A0000 		.4byte	.LVL190
 4512 1225 AC190000 		.4byte	0x19ac
 4513 1229 43120000 		.4byte	0x1243
 4514 122d 14       		.uleb128 0x14
 4515 122e 01       		.uleb128 0x1
 4516 122f 50       		.byte	0x50
 4517 1230 02       		.uleb128 0x2
 4518 1231 74       		.byte	0x74
 4519 1232 00       		.sleb128 0
 4520 1233 14       		.uleb128 0x14
 4521 1234 01       		.uleb128 0x1
 4522 1235 51       		.byte	0x51
 4523 1236 05       		.uleb128 0x5
 4524 1237 03       		.byte	0x3
ARM GAS  C:\Users\ccheney\AppData\Local\Temp\ccOO3kAb.s 			page 99


 4525 1238 08050000 		.4byte	.LC119
 4526 123c 14       		.uleb128 0x14
 4527 123d 01       		.uleb128 0x1
 4528 123e 52       		.byte	0x52
 4529 123f 02       		.uleb128 0x2
 4530 1240 75       		.byte	0x75
 4531 1241 00       		.sleb128 0
 4532 1242 00       		.byte	0
 4533 1243 15       		.uleb128 0x15
 4534 1244 160A0000 		.4byte	.LVL191
 4535 1248 37190000 		.4byte	0x1937
 4536 124c 16       		.uleb128 0x16
 4537 124d 1C0A0000 		.4byte	.LVL192
 4538 1251 4D190000 		.4byte	0x194d
 4539 1255 14       		.uleb128 0x14
 4540 1256 01       		.uleb128 0x1
 4541 1257 50       		.byte	0x50
 4542 1258 02       		.uleb128 0x2
 4543 1259 74       		.byte	0x74
 4544 125a 00       		.sleb128 0
 4545 125b 00       		.byte	0
 4546 125c 00       		.byte	0
 4547 125d 11       		.uleb128 0x11
 4548 125e 1C0A0000 		.4byte	.LBB10
 4549 1262 4C000000 		.4byte	.LBE10-.LBB10
 4550 1266 23130000 		.4byte	0x1323
 4551 126a 17       		.uleb128 0x17
 4552 126b 91040000 		.4byte	.LASF76
 4553 126f 01       		.byte	0x1
 4554 1270 FE01     		.2byte	0x1fe
 4555 1272 4F030000 		.4byte	0x34f
 4556 1276 03       		.uleb128 0x3
 4557 1277 91       		.byte	0x91
 4558 1278 F87E     		.sleb128 -136
 4559 127a 17       		.uleb128 0x17
 4560 127b 18030000 		.4byte	.LASF41
 4561 127f 01       		.byte	0x1
 4562 1280 0202     		.2byte	0x202
 4563 1282 83180000 		.4byte	0x1883
 4564 1286 03       		.uleb128 0x3
 4565 1287 91       		.byte	0x91
 4566 1288 D07E     		.sleb128 -176
 4567 128a 17       		.uleb128 0x17
 4568 128b C3000000 		.4byte	.LASF89
 4569 128f 01       		.byte	0x1
 4570 1290 0302     		.2byte	0x203
 4571 1292 13020000 		.4byte	0x213
 4572 1296 03       		.uleb128 0x3
 4573 1297 91       		.byte	0x91
 4574 1298 E47E     		.sleb128 -156
 4575 129a 13       		.uleb128 0x13
 4576 129b 220A0000 		.4byte	.LVL193
 4577 129f 21190000 		.4byte	0x1921
 4578 12a3 B1120000 		.4byte	0x12b1
 4579 12a7 14       		.uleb128 0x14
 4580 12a8 01       		.uleb128 0x1
 4581 12a9 50       		.byte	0x50
ARM GAS  C:\Users\ccheney\AppData\Local\Temp\ccOO3kAb.s 			page 100


 4582 12aa 05       		.uleb128 0x5
 4583 12ab 03       		.byte	0x3
 4584 12ac 18050000 		.4byte	.LC121
 4585 12b0 00       		.byte	0
 4586 12b1 13       		.uleb128 0x13
 4587 12b2 280A0000 		.4byte	.LVL194
 4588 12b6 16190000 		.4byte	0x1916
 4589 12ba C5120000 		.4byte	0x12c5
 4590 12be 14       		.uleb128 0x14
 4591 12bf 01       		.uleb128 0x1
 4592 12c0 50       		.byte	0x50
 4593 12c1 02       		.uleb128 0x2
 4594 12c2 74       		.byte	0x74
 4595 12c3 00       		.sleb128 0
 4596 12c4 00       		.byte	0
 4597 12c5 13       		.uleb128 0x13
 4598 12c6 300A0000 		.4byte	.LVL195
 4599 12ca 42190000 		.4byte	0x1942
 4600 12ce DF120000 		.4byte	0x12df
 4601 12d2 14       		.uleb128 0x14
 4602 12d3 01       		.uleb128 0x1
 4603 12d4 50       		.byte	0x50
 4604 12d5 02       		.uleb128 0x2
 4605 12d6 74       		.byte	0x74
 4606 12d7 00       		.sleb128 0
 4607 12d8 14       		.uleb128 0x14
 4608 12d9 01       		.uleb128 0x1
 4609 12da 51       		.byte	0x51
 4610 12db 02       		.uleb128 0x2
 4611 12dc 08       		.byte	0x8
 4612 12dd 89       		.byte	0x89
 4613 12de 00       		.byte	0
 4614 12df 13       		.uleb128 0x13
 4615 12e0 3A0A0000 		.4byte	.LVL196
 4616 12e4 82190000 		.4byte	0x1982
 4617 12e8 FE120000 		.4byte	0x12fe
 4618 12ec 14       		.uleb128 0x14
 4619 12ed 01       		.uleb128 0x1
 4620 12ee 50       		.byte	0x50
 4621 12ef 02       		.uleb128 0x2
 4622 12f0 77       		.byte	0x77
 4623 12f1 00       		.sleb128 0
 4624 12f2 14       		.uleb128 0x14
 4625 12f3 01       		.uleb128 0x1
 4626 12f4 51       		.byte	0x51
 4627 12f5 02       		.uleb128 0x2
 4628 12f6 79       		.byte	0x79
 4629 12f7 00       		.sleb128 0
 4630 12f8 14       		.uleb128 0x14
 4631 12f9 01       		.uleb128 0x1
 4632 12fa 52       		.byte	0x52
 4633 12fb 01       		.uleb128 0x1
 4634 12fc 3F       		.byte	0x3f
 4635 12fd 00       		.byte	0
 4636 12fe 13       		.uleb128 0x13
 4637 12ff 620A0000 		.4byte	.LVL197
 4638 1303 B7190000 		.4byte	0x19b7
ARM GAS  C:\Users\ccheney\AppData\Local\Temp\ccOO3kAb.s 			page 101


 4639 1307 12130000 		.4byte	0x1312
 4640 130b 14       		.uleb128 0x14
 4641 130c 01       		.uleb128 0x1
 4642 130d 50       		.byte	0x50
 4643 130e 02       		.uleb128 0x2
 4644 130f 75       		.byte	0x75
 4645 1310 00       		.sleb128 0
 4646 1311 00       		.byte	0
 4647 1312 16       		.uleb128 0x16
 4648 1313 680A0000 		.4byte	.LVL198
 4649 1317 4D190000 		.4byte	0x194d
 4650 131b 14       		.uleb128 0x14
 4651 131c 01       		.uleb128 0x1
 4652 131d 50       		.byte	0x50
 4653 131e 02       		.uleb128 0x2
 4654 131f 74       		.byte	0x74
 4655 1320 00       		.sleb128 0
 4656 1321 00       		.byte	0
 4657 1322 00       		.byte	0
 4658 1323 15       		.uleb128 0x15
 4659 1324 16000000 		.4byte	.LVL0
 4660 1328 C2190000 		.4byte	0x19c2
 4661 132c 13       		.uleb128 0x13
 4662 132d 1C000000 		.4byte	.LVL1
 4663 1331 CD190000 		.4byte	0x19cd
 4664 1335 3F130000 		.4byte	0x133f
 4665 1339 14       		.uleb128 0x14
 4666 133a 01       		.uleb128 0x1
 4667 133b 50       		.byte	0x50
 4668 133c 01       		.uleb128 0x1
 4669 133d 32       		.byte	0x32
 4670 133e 00       		.byte	0
 4671 133f 15       		.uleb128 0x15
 4672 1340 20000000 		.4byte	.LVL2
 4673 1344 D8190000 		.4byte	0x19d8
 4674 1348 15       		.uleb128 0x15
 4675 1349 24000000 		.4byte	.LVL3
 4676 134d E3190000 		.4byte	0x19e3
 4677 1351 13       		.uleb128 0x13
 4678 1352 2A000000 		.4byte	.LVL4
 4679 1356 21190000 		.4byte	0x1921
 4680 135a 68130000 		.4byte	0x1368
 4681 135e 14       		.uleb128 0x14
 4682 135f 01       		.uleb128 0x1
 4683 1360 50       		.byte	0x50
 4684 1361 05       		.uleb128 0x5
 4685 1362 03       		.byte	0x3
 4686 1363 00000000 		.4byte	.LC2
 4687 1367 00       		.byte	0
 4688 1368 13       		.uleb128 0x13
 4689 1369 34000000 		.4byte	.LVL5
 4690 136d EE190000 		.4byte	0x19ee
 4691 1371 91130000 		.4byte	0x1391
 4692 1375 14       		.uleb128 0x14
 4693 1376 01       		.uleb128 0x1
 4694 1377 50       		.byte	0x50
 4695 1378 05       		.uleb128 0x5
ARM GAS  C:\Users\ccheney\AppData\Local\Temp\ccOO3kAb.s 			page 102


 4696 1379 03       		.byte	0x3
 4697 137a 3C000000 		.4byte	.LC8
 4698 137e 14       		.uleb128 0x14
 4699 137f 01       		.uleb128 0x1
 4700 1380 51       		.byte	0x51
 4701 1381 05       		.uleb128 0x5
 4702 1382 03       		.byte	0x3
 4703 1383 30000000 		.4byte	.LC6
 4704 1387 14       		.uleb128 0x14
 4705 1388 01       		.uleb128 0x1
 4706 1389 52       		.byte	0x52
 4707 138a 05       		.uleb128 0x5
 4708 138b 03       		.byte	0x3
 4709 138c 0C000000 		.4byte	.LC4
 4710 1390 00       		.byte	0
 4711 1391 13       		.uleb128 0x13
 4712 1392 3A000000 		.4byte	.LVL6
 4713 1396 21190000 		.4byte	0x1921
 4714 139a A8130000 		.4byte	0x13a8
 4715 139e 14       		.uleb128 0x14
 4716 139f 01       		.uleb128 0x1
 4717 13a0 50       		.byte	0x50
 4718 13a1 05       		.uleb128 0x5
 4719 13a2 03       		.byte	0x3
 4720 13a3 48000000 		.4byte	.LC10
 4721 13a7 00       		.byte	0
 4722 13a8 13       		.uleb128 0x13
 4723 13a9 48000000 		.4byte	.LVL7
 4724 13ad F9190000 		.4byte	0x19f9
 4725 13b1 D6130000 		.4byte	0x13d6
 4726 13b5 14       		.uleb128 0x14
 4727 13b6 01       		.uleb128 0x1
 4728 13b7 50       		.byte	0x50
 4729 13b8 05       		.uleb128 0x5
 4730 13b9 03       		.byte	0x3
 4731 13ba 68000000 		.4byte	.LC14
 4732 13be 14       		.uleb128 0x14
 4733 13bf 01       		.uleb128 0x1
 4734 13c0 51       		.byte	0x51
 4735 13c1 03       		.uleb128 0x3
 4736 13c2 0A       		.byte	0xa
 4737 13c3 0401     		.2byte	0x104
 4738 13c5 14       		.uleb128 0x14
 4739 13c6 01       		.uleb128 0x1
 4740 13c7 52       		.byte	0x52
 4741 13c8 03       		.uleb128 0x3
 4742 13c9 0A       		.byte	0xa
 4743 13ca 0401     		.2byte	0x104
 4744 13cc 14       		.uleb128 0x14
 4745 13cd 01       		.uleb128 0x1
 4746 13ce 53       		.byte	0x53
 4747 13cf 05       		.uleb128 0x5
 4748 13d0 03       		.byte	0x3
 4749 13d1 64000000 		.4byte	.LC12
 4750 13d5 00       		.byte	0
 4751 13d6 15       		.uleb128 0x15
 4752 13d7 4C000000 		.4byte	.LVL8
ARM GAS  C:\Users\ccheney\AppData\Local\Temp\ccOO3kAb.s 			page 103


 4753 13db 37190000 		.4byte	0x1937
 4754 13df 13       		.uleb128 0x13
 4755 13e0 52000000 		.4byte	.LVL9
 4756 13e4 21190000 		.4byte	0x1921
 4757 13e8 F6130000 		.4byte	0x13f6
 4758 13ec 14       		.uleb128 0x14
 4759 13ed 01       		.uleb128 0x1
 4760 13ee 50       		.byte	0x50
 4761 13ef 05       		.uleb128 0x5
 4762 13f0 03       		.byte	0x3
 4763 13f1 7C000000 		.4byte	.LC16
 4764 13f5 00       		.byte	0
 4765 13f6 13       		.uleb128 0x13
 4766 13f7 5E000000 		.4byte	.LVL10
 4767 13fb 041A0000 		.4byte	0x1a04
 4768 13ff 14140000 		.4byte	0x1414
 4769 1403 14       		.uleb128 0x14
 4770 1404 01       		.uleb128 0x1
 4771 1405 50       		.byte	0x50
 4772 1406 02       		.uleb128 0x2
 4773 1407 74       		.byte	0x74
 4774 1408 00       		.sleb128 0
 4775 1409 14       		.uleb128 0x14
 4776 140a 01       		.uleb128 0x1
 4777 140b 51       		.byte	0x51
 4778 140c 01       		.uleb128 0x1
 4779 140d 30       		.byte	0x30
 4780 140e 14       		.uleb128 0x14
 4781 140f 01       		.uleb128 0x1
 4782 1410 52       		.byte	0x52
 4783 1411 01       		.uleb128 0x1
 4784 1412 30       		.byte	0x30
 4785 1413 00       		.byte	0
 4786 1414 15       		.uleb128 0x15
 4787 1415 62000000 		.4byte	.LVL11
 4788 1419 37190000 		.4byte	0x1937
 4789 141d 13       		.uleb128 0x13
 4790 141e 6C000000 		.4byte	.LVL12
 4791 1422 041A0000 		.4byte	0x1a04
 4792 1426 3B140000 		.4byte	0x143b
 4793 142a 14       		.uleb128 0x14
 4794 142b 01       		.uleb128 0x1
 4795 142c 50       		.byte	0x50
 4796 142d 02       		.uleb128 0x2
 4797 142e 74       		.byte	0x74
 4798 142f 00       		.sleb128 0
 4799 1430 14       		.uleb128 0x14
 4800 1431 01       		.uleb128 0x1
 4801 1432 51       		.byte	0x51
 4802 1433 01       		.uleb128 0x1
 4803 1434 31       		.byte	0x31
 4804 1435 14       		.uleb128 0x14
 4805 1436 01       		.uleb128 0x1
 4806 1437 52       		.byte	0x52
 4807 1438 01       		.uleb128 0x1
 4808 1439 30       		.byte	0x30
 4809 143a 00       		.byte	0
ARM GAS  C:\Users\ccheney\AppData\Local\Temp\ccOO3kAb.s 			page 104


 4810 143b 15       		.uleb128 0x15
 4811 143c 70000000 		.4byte	.LVL13
 4812 1440 37190000 		.4byte	0x1937
 4813 1444 13       		.uleb128 0x13
 4814 1445 7A000000 		.4byte	.LVL14
 4815 1449 041A0000 		.4byte	0x1a04
 4816 144d 62140000 		.4byte	0x1462
 4817 1451 14       		.uleb128 0x14
 4818 1452 01       		.uleb128 0x1
 4819 1453 50       		.byte	0x50
 4820 1454 02       		.uleb128 0x2
 4821 1455 74       		.byte	0x74
 4822 1456 00       		.sleb128 0
 4823 1457 14       		.uleb128 0x14
 4824 1458 01       		.uleb128 0x1
 4825 1459 51       		.byte	0x51
 4826 145a 01       		.uleb128 0x1
 4827 145b 4F       		.byte	0x4f
 4828 145c 14       		.uleb128 0x14
 4829 145d 01       		.uleb128 0x1
 4830 145e 52       		.byte	0x52
 4831 145f 01       		.uleb128 0x1
 4832 1460 30       		.byte	0x30
 4833 1461 00       		.byte	0
 4834 1462 15       		.uleb128 0x15
 4835 1463 7E000000 		.4byte	.LVL15
 4836 1467 37190000 		.4byte	0x1937
 4837 146b 13       		.uleb128 0x13
 4838 146c 8A000000 		.4byte	.LVL16
 4839 1470 041A0000 		.4byte	0x1a04
 4840 1474 8A140000 		.4byte	0x148a
 4841 1478 14       		.uleb128 0x14
 4842 1479 01       		.uleb128 0x1
 4843 147a 50       		.byte	0x50
 4844 147b 02       		.uleb128 0x2
 4845 147c 74       		.byte	0x74
 4846 147d 00       		.sleb128 0
 4847 147e 14       		.uleb128 0x14
 4848 147f 01       		.uleb128 0x1
 4849 1480 51       		.byte	0x51
 4850 1481 02       		.uleb128 0x2
 4851 1482 09       		.byte	0x9
 4852 1483 80       		.byte	0x80
 4853 1484 14       		.uleb128 0x14
 4854 1485 01       		.uleb128 0x1
 4855 1486 52       		.byte	0x52
 4856 1487 01       		.uleb128 0x1
 4857 1488 30       		.byte	0x30
 4858 1489 00       		.byte	0
 4859 148a 15       		.uleb128 0x15
 4860 148b 8E000000 		.4byte	.LVL17
 4861 148f 37190000 		.4byte	0x1937
 4862 1493 13       		.uleb128 0x13
 4863 1494 98000000 		.4byte	.LVL18
 4864 1498 041A0000 		.4byte	0x1a04
 4865 149c B2140000 		.4byte	0x14b2
 4866 14a0 14       		.uleb128 0x14
ARM GAS  C:\Users\ccheney\AppData\Local\Temp\ccOO3kAb.s 			page 105


 4867 14a1 01       		.uleb128 0x1
 4868 14a2 50       		.byte	0x50
 4869 14a3 02       		.uleb128 0x2
 4870 14a4 74       		.byte	0x74
 4871 14a5 00       		.sleb128 0
 4872 14a6 14       		.uleb128 0x14
 4873 14a7 01       		.uleb128 0x1
 4874 14a8 51       		.byte	0x51
 4875 14a9 02       		.uleb128 0x2
 4876 14aa 09       		.byte	0x9
 4877 14ab 81       		.byte	0x81
 4878 14ac 14       		.uleb128 0x14
 4879 14ad 01       		.uleb128 0x1
 4880 14ae 52       		.byte	0x52
 4881 14af 01       		.uleb128 0x1
 4882 14b0 30       		.byte	0x30
 4883 14b1 00       		.byte	0
 4884 14b2 15       		.uleb128 0x15
 4885 14b3 9C000000 		.4byte	.LVL19
 4886 14b7 37190000 		.4byte	0x1937
 4887 14bb 13       		.uleb128 0x13
 4888 14bc A6000000 		.4byte	.LVL20
 4889 14c0 041A0000 		.4byte	0x1a04
 4890 14c4 DA140000 		.4byte	0x14da
 4891 14c8 14       		.uleb128 0x14
 4892 14c9 01       		.uleb128 0x1
 4893 14ca 50       		.byte	0x50
 4894 14cb 02       		.uleb128 0x2
 4895 14cc 74       		.byte	0x74
 4896 14cd 00       		.sleb128 0
 4897 14ce 14       		.uleb128 0x14
 4898 14cf 01       		.uleb128 0x1
 4899 14d0 51       		.byte	0x51
 4900 14d1 02       		.uleb128 0x2
 4901 14d2 09       		.byte	0x9
 4902 14d3 9F       		.byte	0x9f
 4903 14d4 14       		.uleb128 0x14
 4904 14d5 01       		.uleb128 0x1
 4905 14d6 52       		.byte	0x52
 4906 14d7 01       		.uleb128 0x1
 4907 14d8 30       		.byte	0x30
 4908 14d9 00       		.byte	0
 4909 14da 15       		.uleb128 0x15
 4910 14db AA000000 		.4byte	.LVL21
 4911 14df 37190000 		.4byte	0x1937
 4912 14e3 13       		.uleb128 0x13
 4913 14e4 B6000000 		.4byte	.LVL22
 4914 14e8 041A0000 		.4byte	0x1a04
 4915 14ec 02150000 		.4byte	0x1502
 4916 14f0 14       		.uleb128 0x14
 4917 14f1 01       		.uleb128 0x1
 4918 14f2 50       		.byte	0x50
 4919 14f3 02       		.uleb128 0x2
 4920 14f4 74       		.byte	0x74
 4921 14f5 00       		.sleb128 0
 4922 14f6 14       		.uleb128 0x14
 4923 14f7 01       		.uleb128 0x1
ARM GAS  C:\Users\ccheney\AppData\Local\Temp\ccOO3kAb.s 			page 106


 4924 14f8 51       		.byte	0x51
 4925 14f9 02       		.uleb128 0x2
 4926 14fa 08       		.byte	0x8
 4927 14fb 20       		.byte	0x20
 4928 14fc 14       		.uleb128 0x14
 4929 14fd 01       		.uleb128 0x1
 4930 14fe 52       		.byte	0x52
 4931 14ff 01       		.uleb128 0x1
 4932 1500 31       		.byte	0x31
 4933 1501 00       		.byte	0
 4934 1502 15       		.uleb128 0x15
 4935 1503 BA000000 		.4byte	.LVL23
 4936 1507 37190000 		.4byte	0x1937
 4937 150b 13       		.uleb128 0x13
 4938 150c C4000000 		.4byte	.LVL24
 4939 1510 041A0000 		.4byte	0x1a04
 4940 1514 2A150000 		.4byte	0x152a
 4941 1518 14       		.uleb128 0x14
 4942 1519 01       		.uleb128 0x1
 4943 151a 50       		.byte	0x50
 4944 151b 02       		.uleb128 0x2
 4945 151c 74       		.byte	0x74
 4946 151d 00       		.sleb128 0
 4947 151e 14       		.uleb128 0x14
 4948 151f 01       		.uleb128 0x1
 4949 1520 51       		.byte	0x51
 4950 1521 02       		.uleb128 0x2
 4951 1522 08       		.byte	0x8
 4952 1523 25       		.byte	0x25
 4953 1524 14       		.uleb128 0x14
 4954 1525 01       		.uleb128 0x1
 4955 1526 52       		.byte	0x52
 4956 1527 01       		.uleb128 0x1
 4957 1528 31       		.byte	0x31
 4958 1529 00       		.byte	0
 4959 152a 15       		.uleb128 0x15
 4960 152b C8000000 		.4byte	.LVL25
 4961 152f 37190000 		.4byte	0x1937
 4962 1533 13       		.uleb128 0x13
 4963 1534 D2000000 		.4byte	.LVL26
 4964 1538 041A0000 		.4byte	0x1a04
 4965 153c 52150000 		.4byte	0x1552
 4966 1540 14       		.uleb128 0x14
 4967 1541 01       		.uleb128 0x1
 4968 1542 50       		.byte	0x50
 4969 1543 02       		.uleb128 0x2
 4970 1544 74       		.byte	0x74
 4971 1545 00       		.sleb128 0
 4972 1546 14       		.uleb128 0x14
 4973 1547 01       		.uleb128 0x1
 4974 1548 51       		.byte	0x51
 4975 1549 02       		.uleb128 0x2
 4976 154a 08       		.byte	0x8
 4977 154b 3F       		.byte	0x3f
 4978 154c 14       		.uleb128 0x14
 4979 154d 01       		.uleb128 0x1
 4980 154e 52       		.byte	0x52
ARM GAS  C:\Users\ccheney\AppData\Local\Temp\ccOO3kAb.s 			page 107


 4981 154f 01       		.uleb128 0x1
 4982 1550 31       		.byte	0x31
 4983 1551 00       		.byte	0
 4984 1552 15       		.uleb128 0x15
 4985 1553 D6000000 		.4byte	.LVL27
 4986 1557 37190000 		.4byte	0x1937
 4987 155b 13       		.uleb128 0x13
 4988 155c E2000000 		.4byte	.LVL28
 4989 1560 041A0000 		.4byte	0x1a04
 4990 1564 7A150000 		.4byte	0x157a
 4991 1568 14       		.uleb128 0x14
 4992 1569 01       		.uleb128 0x1
 4993 156a 50       		.byte	0x50
 4994 156b 02       		.uleb128 0x2
 4995 156c 74       		.byte	0x74
 4996 156d 00       		.sleb128 0
 4997 156e 14       		.uleb128 0x14
 4998 156f 01       		.uleb128 0x1
 4999 1570 51       		.byte	0x51
 5000 1571 02       		.uleb128 0x2
 5001 1572 09       		.byte	0x9
 5002 1573 A0       		.byte	0xa0
 5003 1574 14       		.uleb128 0x14
 5004 1575 01       		.uleb128 0x1
 5005 1576 52       		.byte	0x52
 5006 1577 01       		.uleb128 0x1
 5007 1578 31       		.byte	0x31
 5008 1579 00       		.byte	0
 5009 157a 15       		.uleb128 0x15
 5010 157b E6000000 		.4byte	.LVL29
 5011 157f 37190000 		.4byte	0x1937
 5012 1583 13       		.uleb128 0x13
 5013 1584 F0000000 		.4byte	.LVL30
 5014 1588 041A0000 		.4byte	0x1a04
 5015 158c A2150000 		.4byte	0x15a2
 5016 1590 14       		.uleb128 0x14
 5017 1591 01       		.uleb128 0x1
 5018 1592 50       		.byte	0x50
 5019 1593 02       		.uleb128 0x2
 5020 1594 74       		.byte	0x74
 5021 1595 00       		.sleb128 0
 5022 1596 14       		.uleb128 0x14
 5023 1597 01       		.uleb128 0x1
 5024 1598 51       		.byte	0x51
 5025 1599 02       		.uleb128 0x2
 5026 159a 09       		.byte	0x9
 5027 159b B3       		.byte	0xb3
 5028 159c 14       		.uleb128 0x14
 5029 159d 01       		.uleb128 0x1
 5030 159e 52       		.byte	0x52
 5031 159f 01       		.uleb128 0x1
 5032 15a0 31       		.byte	0x31
 5033 15a1 00       		.byte	0
 5034 15a2 15       		.uleb128 0x15
 5035 15a3 F4000000 		.4byte	.LVL31
 5036 15a7 37190000 		.4byte	0x1937
 5037 15ab 13       		.uleb128 0x13
ARM GAS  C:\Users\ccheney\AppData\Local\Temp\ccOO3kAb.s 			page 108


 5038 15ac FE000000 		.4byte	.LVL32
 5039 15b0 041A0000 		.4byte	0x1a04
 5040 15b4 CA150000 		.4byte	0x15ca
 5041 15b8 14       		.uleb128 0x14
 5042 15b9 01       		.uleb128 0x1
 5043 15ba 50       		.byte	0x50
 5044 15bb 02       		.uleb128 0x2
 5045 15bc 74       		.byte	0x74
 5046 15bd 00       		.sleb128 0
 5047 15be 14       		.uleb128 0x14
 5048 15bf 01       		.uleb128 0x1
 5049 15c0 51       		.byte	0x51
 5050 15c1 02       		.uleb128 0x2
 5051 15c2 09       		.byte	0x9
 5052 15c3 BF       		.byte	0xbf
 5053 15c4 14       		.uleb128 0x14
 5054 15c5 01       		.uleb128 0x1
 5055 15c6 52       		.byte	0x52
 5056 15c7 01       		.uleb128 0x1
 5057 15c8 31       		.byte	0x31
 5058 15c9 00       		.byte	0
 5059 15ca 15       		.uleb128 0x15
 5060 15cb 02010000 		.4byte	.LVL33
 5061 15cf 37190000 		.4byte	0x1937
 5062 15d3 13       		.uleb128 0x13
 5063 15d4 0E010000 		.4byte	.LVL34
 5064 15d8 041A0000 		.4byte	0x1a04
 5065 15dc F2150000 		.4byte	0x15f2
 5066 15e0 14       		.uleb128 0x14
 5067 15e1 01       		.uleb128 0x1
 5068 15e2 50       		.byte	0x50
 5069 15e3 02       		.uleb128 0x2
 5070 15e4 74       		.byte	0x74
 5071 15e5 00       		.sleb128 0
 5072 15e6 14       		.uleb128 0x14
 5073 15e7 01       		.uleb128 0x1
 5074 15e8 51       		.byte	0x51
 5075 15e9 02       		.uleb128 0x2
 5076 15ea 08       		.byte	0x8
 5077 15eb 40       		.byte	0x40
 5078 15ec 14       		.uleb128 0x14
 5079 15ed 01       		.uleb128 0x1
 5080 15ee 52       		.byte	0x52
 5081 15ef 01       		.uleb128 0x1
 5082 15f0 32       		.byte	0x32
 5083 15f1 00       		.byte	0
 5084 15f2 15       		.uleb128 0x15
 5085 15f3 12010000 		.4byte	.LVL35
 5086 15f7 37190000 		.4byte	0x1937
 5087 15fb 13       		.uleb128 0x13
 5088 15fc 1C010000 		.4byte	.LVL36
 5089 1600 041A0000 		.4byte	0x1a04
 5090 1604 1A160000 		.4byte	0x161a
 5091 1608 14       		.uleb128 0x14
 5092 1609 01       		.uleb128 0x1
 5093 160a 50       		.byte	0x50
 5094 160b 02       		.uleb128 0x2
ARM GAS  C:\Users\ccheney\AppData\Local\Temp\ccOO3kAb.s 			page 109


 5095 160c 74       		.byte	0x74
 5096 160d 00       		.sleb128 0
 5097 160e 14       		.uleb128 0x14
 5098 160f 01       		.uleb128 0x1
 5099 1610 51       		.byte	0x51
 5100 1611 02       		.uleb128 0x2
 5101 1612 08       		.byte	0x8
 5102 1613 44       		.byte	0x44
 5103 1614 14       		.uleb128 0x14
 5104 1615 01       		.uleb128 0x1
 5105 1616 52       		.byte	0x52
 5106 1617 01       		.uleb128 0x1
 5107 1618 32       		.byte	0x32
 5108 1619 00       		.byte	0
 5109 161a 15       		.uleb128 0x15
 5110 161b 20010000 		.4byte	.LVL37
 5111 161f 37190000 		.4byte	0x1937
 5112 1623 13       		.uleb128 0x13
 5113 1624 2A010000 		.4byte	.LVL38
 5114 1628 041A0000 		.4byte	0x1a04
 5115 162c 42160000 		.4byte	0x1642
 5116 1630 14       		.uleb128 0x14
 5117 1631 01       		.uleb128 0x1
 5118 1632 50       		.byte	0x50
 5119 1633 02       		.uleb128 0x2
 5120 1634 74       		.byte	0x74
 5121 1635 00       		.sleb128 0
 5122 1636 14       		.uleb128 0x14
 5123 1637 01       		.uleb128 0x1
 5124 1638 51       		.byte	0x51
 5125 1639 02       		.uleb128 0x2
 5126 163a 08       		.byte	0x8
 5127 163b 5F       		.byte	0x5f
 5128 163c 14       		.uleb128 0x14
 5129 163d 01       		.uleb128 0x1
 5130 163e 52       		.byte	0x52
 5131 163f 01       		.uleb128 0x1
 5132 1640 32       		.byte	0x32
 5133 1641 00       		.byte	0
 5134 1642 15       		.uleb128 0x15
 5135 1643 2E010000 		.4byte	.LVL39
 5136 1647 37190000 		.4byte	0x1937
 5137 164b 13       		.uleb128 0x13
 5138 164c 3A010000 		.4byte	.LVL40
 5139 1650 041A0000 		.4byte	0x1a04
 5140 1654 6A160000 		.4byte	0x166a
 5141 1658 14       		.uleb128 0x14
 5142 1659 01       		.uleb128 0x1
 5143 165a 50       		.byte	0x50
 5144 165b 02       		.uleb128 0x2
 5145 165c 74       		.byte	0x74
 5146 165d 00       		.sleb128 0
 5147 165e 14       		.uleb128 0x14
 5148 165f 01       		.uleb128 0x1
 5149 1660 51       		.byte	0x51
 5150 1661 02       		.uleb128 0x2
 5151 1662 09       		.byte	0x9
ARM GAS  C:\Users\ccheney\AppData\Local\Temp\ccOO3kAb.s 			page 110


 5152 1663 C0       		.byte	0xc0
 5153 1664 14       		.uleb128 0x14
 5154 1665 01       		.uleb128 0x1
 5155 1666 52       		.byte	0x52
 5156 1667 01       		.uleb128 0x1
 5157 1668 32       		.byte	0x32
 5158 1669 00       		.byte	0
 5159 166a 15       		.uleb128 0x15
 5160 166b 3E010000 		.4byte	.LVL41
 5161 166f 37190000 		.4byte	0x1937
 5162 1673 13       		.uleb128 0x13
 5163 1674 48010000 		.4byte	.LVL42
 5164 1678 041A0000 		.4byte	0x1a04
 5165 167c 92160000 		.4byte	0x1692
 5166 1680 14       		.uleb128 0x14
 5167 1681 01       		.uleb128 0x1
 5168 1682 50       		.byte	0x50
 5169 1683 02       		.uleb128 0x2
 5170 1684 74       		.byte	0x74
 5171 1685 00       		.sleb128 0
 5172 1686 14       		.uleb128 0x14
 5173 1687 01       		.uleb128 0x1
 5174 1688 51       		.byte	0x51
 5175 1689 02       		.uleb128 0x2
 5176 168a 09       		.byte	0x9
 5177 168b CA       		.byte	0xca
 5178 168c 14       		.uleb128 0x14
 5179 168d 01       		.uleb128 0x1
 5180 168e 52       		.byte	0x52
 5181 168f 01       		.uleb128 0x1
 5182 1690 32       		.byte	0x32
 5183 1691 00       		.byte	0
 5184 1692 15       		.uleb128 0x15
 5185 1693 4C010000 		.4byte	.LVL43
 5186 1697 37190000 		.4byte	0x1937
 5187 169b 13       		.uleb128 0x13
 5188 169c 56010000 		.4byte	.LVL44
 5189 16a0 041A0000 		.4byte	0x1a04
 5190 16a4 BA160000 		.4byte	0x16ba
 5191 16a8 14       		.uleb128 0x14
 5192 16a9 01       		.uleb128 0x1
 5193 16aa 50       		.byte	0x50
 5194 16ab 02       		.uleb128 0x2
 5195 16ac 74       		.byte	0x74
 5196 16ad 00       		.sleb128 0
 5197 16ae 14       		.uleb128 0x14
 5198 16af 01       		.uleb128 0x1
 5199 16b0 51       		.byte	0x51
 5200 16b1 02       		.uleb128 0x2
 5201 16b2 09       		.byte	0x9
 5202 16b3 DF       		.byte	0xdf
 5203 16b4 14       		.uleb128 0x14
 5204 16b5 01       		.uleb128 0x1
 5205 16b6 52       		.byte	0x52
 5206 16b7 01       		.uleb128 0x1
 5207 16b8 32       		.byte	0x32
 5208 16b9 00       		.byte	0
ARM GAS  C:\Users\ccheney\AppData\Local\Temp\ccOO3kAb.s 			page 111


 5209 16ba 15       		.uleb128 0x15
 5210 16bb 5A010000 		.4byte	.LVL45
 5211 16bf 37190000 		.4byte	0x1937
 5212 16c3 13       		.uleb128 0x13
 5213 16c4 66010000 		.4byte	.LVL46
 5214 16c8 041A0000 		.4byte	0x1a04
 5215 16cc E2160000 		.4byte	0x16e2
 5216 16d0 14       		.uleb128 0x14
 5217 16d1 01       		.uleb128 0x1
 5218 16d2 50       		.byte	0x50
 5219 16d3 02       		.uleb128 0x2
 5220 16d4 74       		.byte	0x74
 5221 16d5 00       		.sleb128 0
 5222 16d6 14       		.uleb128 0x14
 5223 16d7 01       		.uleb128 0x1
 5224 16d8 51       		.byte	0x51
 5225 16d9 02       		.uleb128 0x2
 5226 16da 08       		.byte	0x8
 5227 16db 60       		.byte	0x60
 5228 16dc 14       		.uleb128 0x14
 5229 16dd 01       		.uleb128 0x1
 5230 16de 52       		.byte	0x52
 5231 16df 01       		.uleb128 0x1
 5232 16e0 33       		.byte	0x33
 5233 16e1 00       		.byte	0
 5234 16e2 15       		.uleb128 0x15
 5235 16e3 6A010000 		.4byte	.LVL47
 5236 16e7 37190000 		.4byte	0x1937
 5237 16eb 13       		.uleb128 0x13
 5238 16ec 74010000 		.4byte	.LVL48
 5239 16f0 041A0000 		.4byte	0x1a04
 5240 16f4 0A170000 		.4byte	0x170a
 5241 16f8 14       		.uleb128 0x14
 5242 16f9 01       		.uleb128 0x1
 5243 16fa 50       		.byte	0x50
 5244 16fb 02       		.uleb128 0x2
 5245 16fc 74       		.byte	0x74
 5246 16fd 00       		.sleb128 0
 5247 16fe 14       		.uleb128 0x14
 5248 16ff 01       		.uleb128 0x1
 5249 1700 51       		.byte	0x51
 5250 1701 02       		.uleb128 0x2
 5251 1702 08       		.byte	0x8
 5252 1703 7A       		.byte	0x7a
 5253 1704 14       		.uleb128 0x14
 5254 1705 01       		.uleb128 0x1
 5255 1706 52       		.byte	0x52
 5256 1707 01       		.uleb128 0x1
 5257 1708 33       		.byte	0x33
 5258 1709 00       		.byte	0
 5259 170a 15       		.uleb128 0x15
 5260 170b 78010000 		.4byte	.LVL49
 5261 170f 37190000 		.4byte	0x1937
 5262 1713 13       		.uleb128 0x13
 5263 1714 82010000 		.4byte	.LVL50
 5264 1718 041A0000 		.4byte	0x1a04
 5265 171c 32170000 		.4byte	0x1732
ARM GAS  C:\Users\ccheney\AppData\Local\Temp\ccOO3kAb.s 			page 112


 5266 1720 14       		.uleb128 0x14
 5267 1721 01       		.uleb128 0x1
 5268 1722 50       		.byte	0x50
 5269 1723 02       		.uleb128 0x2
 5270 1724 74       		.byte	0x74
 5271 1725 00       		.sleb128 0
 5272 1726 14       		.uleb128 0x14
 5273 1727 01       		.uleb128 0x1
 5274 1728 51       		.byte	0x51
 5275 1729 02       		.uleb128 0x2
 5276 172a 08       		.byte	0x8
 5277 172b 7F       		.byte	0x7f
 5278 172c 14       		.uleb128 0x14
 5279 172d 01       		.uleb128 0x1
 5280 172e 52       		.byte	0x52
 5281 172f 01       		.uleb128 0x1
 5282 1730 33       		.byte	0x33
 5283 1731 00       		.byte	0
 5284 1732 15       		.uleb128 0x15
 5285 1733 86010000 		.4byte	.LVL51
 5286 1737 37190000 		.4byte	0x1937
 5287 173b 13       		.uleb128 0x13
 5288 173c 92010000 		.4byte	.LVL52
 5289 1740 041A0000 		.4byte	0x1a04
 5290 1744 5A170000 		.4byte	0x175a
 5291 1748 14       		.uleb128 0x14
 5292 1749 01       		.uleb128 0x1
 5293 174a 50       		.byte	0x50
 5294 174b 02       		.uleb128 0x2
 5295 174c 74       		.byte	0x74
 5296 174d 00       		.sleb128 0
 5297 174e 14       		.uleb128 0x14
 5298 174f 01       		.uleb128 0x1
 5299 1750 51       		.byte	0x51
 5300 1751 02       		.uleb128 0x2
 5301 1752 09       		.byte	0x9
 5302 1753 E0       		.byte	0xe0
 5303 1754 14       		.uleb128 0x14
 5304 1755 01       		.uleb128 0x1
 5305 1756 52       		.byte	0x52
 5306 1757 01       		.uleb128 0x1
 5307 1758 33       		.byte	0x33
 5308 1759 00       		.byte	0
 5309 175a 15       		.uleb128 0x15
 5310 175b 96010000 		.4byte	.LVL53
 5311 175f 37190000 		.4byte	0x1937
 5312 1763 13       		.uleb128 0x13
 5313 1764 A0010000 		.4byte	.LVL54
 5314 1768 041A0000 		.4byte	0x1a04
 5315 176c 82170000 		.4byte	0x1782
 5316 1770 14       		.uleb128 0x14
 5317 1771 01       		.uleb128 0x1
 5318 1772 50       		.byte	0x50
 5319 1773 02       		.uleb128 0x2
 5320 1774 74       		.byte	0x74
 5321 1775 00       		.sleb128 0
 5322 1776 14       		.uleb128 0x14
ARM GAS  C:\Users\ccheney\AppData\Local\Temp\ccOO3kAb.s 			page 113


 5323 1777 01       		.uleb128 0x1
 5324 1778 51       		.byte	0x51
 5325 1779 02       		.uleb128 0x2
 5326 177a 09       		.byte	0x9
 5327 177b EB       		.byte	0xeb
 5328 177c 14       		.uleb128 0x14
 5329 177d 01       		.uleb128 0x1
 5330 177e 52       		.byte	0x52
 5331 177f 01       		.uleb128 0x1
 5332 1780 33       		.byte	0x33
 5333 1781 00       		.byte	0
 5334 1782 15       		.uleb128 0x15
 5335 1783 A4010000 		.4byte	.LVL55
 5336 1787 37190000 		.4byte	0x1937
 5337 178b 13       		.uleb128 0x13
 5338 178c AE010000 		.4byte	.LVL56
 5339 1790 041A0000 		.4byte	0x1a04
 5340 1794 AA170000 		.4byte	0x17aa
 5341 1798 14       		.uleb128 0x14
 5342 1799 01       		.uleb128 0x1
 5343 179a 50       		.byte	0x50
 5344 179b 02       		.uleb128 0x2
 5345 179c 74       		.byte	0x74
 5346 179d 00       		.sleb128 0
 5347 179e 14       		.uleb128 0x14
 5348 179f 01       		.uleb128 0x1
 5349 17a0 51       		.byte	0x51
 5350 17a1 02       		.uleb128 0x2
 5351 17a2 09       		.byte	0x9
 5352 17a3 FF       		.byte	0xff
 5353 17a4 14       		.uleb128 0x14
 5354 17a5 01       		.uleb128 0x1
 5355 17a6 52       		.byte	0x52
 5356 17a7 01       		.uleb128 0x1
 5357 17a8 33       		.byte	0x33
 5358 17a9 00       		.byte	0
 5359 17aa 15       		.uleb128 0x15
 5360 17ab B2010000 		.4byte	.LVL57
 5361 17af 37190000 		.4byte	0x1937
 5362 17b3 13       		.uleb128 0x13
 5363 17b4 C8040000 		.4byte	.LVL119
 5364 17b8 21190000 		.4byte	0x1921
 5365 17bc CA170000 		.4byte	0x17ca
 5366 17c0 14       		.uleb128 0x14
 5367 17c1 01       		.uleb128 0x1
 5368 17c2 50       		.byte	0x50
 5369 17c3 05       		.uleb128 0x5
 5370 17c4 03       		.byte	0x3
 5371 17c5 5C030000 		.4byte	.LC75
 5372 17c9 00       		.byte	0
 5373 17ca 13       		.uleb128 0x13
 5374 17cb D4040000 		.4byte	.LVL120
 5375 17cf 0F1A0000 		.4byte	0x1a0f
 5376 17d3 ED170000 		.4byte	0x17ed
 5377 17d7 14       		.uleb128 0x14
 5378 17d8 01       		.uleb128 0x1
 5379 17d9 50       		.byte	0x50
ARM GAS  C:\Users\ccheney\AppData\Local\Temp\ccOO3kAb.s 			page 114


 5380 17da 01       		.uleb128 0x1
 5381 17db 30       		.byte	0x30
 5382 17dc 14       		.uleb128 0x14
 5383 17dd 01       		.uleb128 0x1
 5384 17de 51       		.byte	0x51
 5385 17df 05       		.uleb128 0x5
 5386 17e0 03       		.byte	0x3
 5387 17e1 74030000 		.4byte	.LC77
 5388 17e5 14       		.uleb128 0x14
 5389 17e6 01       		.uleb128 0x1
 5390 17e7 52       		.byte	0x52
 5391 17e8 03       		.uleb128 0x3
 5392 17e9 0A       		.byte	0xa
 5393 17ea 0010     		.2byte	0x1000
 5394 17ec 00       		.byte	0
 5395 17ed 15       		.uleb128 0x15
 5396 17ee D8040000 		.4byte	.LVL121
 5397 17f2 37190000 		.4byte	0x1937
 5398 17f6 13       		.uleb128 0x13
 5399 17f7 E2040000 		.4byte	.LVL122
 5400 17fb 0F1A0000 		.4byte	0x1a0f
 5401 17ff 12180000 		.4byte	0x1812
 5402 1803 14       		.uleb128 0x14
 5403 1804 01       		.uleb128 0x1
 5404 1805 51       		.byte	0x51
 5405 1806 05       		.uleb128 0x5
 5406 1807 03       		.byte	0x3
 5407 1808 84030000 		.4byte	.LC79
 5408 180c 14       		.uleb128 0x14
 5409 180d 01       		.uleb128 0x1
 5410 180e 52       		.byte	0x52
 5411 180f 01       		.uleb128 0x1
 5412 1810 30       		.byte	0x30
 5413 1811 00       		.byte	0
 5414 1812 15       		.uleb128 0x15
 5415 1813 E6040000 		.4byte	.LVL123
 5416 1817 37190000 		.4byte	0x1937
 5417 181b 13       		.uleb128 0x13
 5418 181c F0040000 		.4byte	.LVL124
 5419 1820 0F1A0000 		.4byte	0x1a0f
 5420 1824 37180000 		.4byte	0x1837
 5421 1828 14       		.uleb128 0x14
 5422 1829 01       		.uleb128 0x1
 5423 182a 51       		.byte	0x51
 5424 182b 05       		.uleb128 0x5
 5425 182c 03       		.byte	0x3
 5426 182d 90030000 		.4byte	.LC82
 5427 1831 14       		.uleb128 0x14
 5428 1832 01       		.uleb128 0x1
 5429 1833 52       		.byte	0x52
 5430 1834 01       		.uleb128 0x1
 5431 1835 30       		.byte	0x30
 5432 1836 00       		.byte	0
 5433 1837 15       		.uleb128 0x15
 5434 1838 F4040000 		.4byte	.LVL125
 5435 183c 37190000 		.4byte	0x1937
 5436 1840 15       		.uleb128 0x15
ARM GAS  C:\Users\ccheney\AppData\Local\Temp\ccOO3kAb.s 			page 115


 5437 1841 6C0A0000 		.4byte	.LVL199
 5438 1845 1A1A0000 		.4byte	0x1a1a
 5439 1849 13       		.uleb128 0x13
 5440 184a 720A0000 		.4byte	.LVL200
 5441 184e 21190000 		.4byte	0x1921
 5442 1852 60180000 		.4byte	0x1860
 5443 1856 14       		.uleb128 0x14
 5444 1857 01       		.uleb128 0x1
 5445 1858 50       		.byte	0x50
 5446 1859 05       		.uleb128 0x5
 5447 185a 03       		.byte	0x3
 5448 185b 38050000 		.4byte	.LC123
 5449 185f 00       		.byte	0
 5450 1860 15       		.uleb128 0x15
 5451 1861 760A0000 		.4byte	.LVL201
 5452 1865 251A0000 		.4byte	0x1a25
 5453 1869 15       		.uleb128 0x15
 5454 186a 7E0A0000 		.4byte	.LVL202
 5455 186e 311A0000 		.4byte	0x1a31
 5456 1872 00       		.byte	0
 5457 1873 18       		.uleb128 0x18
 5458 1874 AD000000 		.4byte	0xad
 5459 1878 83180000 		.4byte	0x1883
 5460 187c 19       		.uleb128 0x19
 5461 187d F2000000 		.4byte	0xf2
 5462 1881 02       		.byte	0x2
 5463 1882 00       		.byte	0
 5464 1883 18       		.uleb128 0x18
 5465 1884 AD000000 		.4byte	0xad
 5466 1888 93180000 		.4byte	0x1893
 5467 188c 19       		.uleb128 0x19
 5468 188d F2000000 		.4byte	0xf2
 5469 1891 0E       		.byte	0xe
 5470 1892 00       		.byte	0
 5471 1893 18       		.uleb128 0x18
 5472 1894 AD000000 		.4byte	0xad
 5473 1898 A3180000 		.4byte	0x18a3
 5474 189c 19       		.uleb128 0x19
 5475 189d F2000000 		.4byte	0xf2
 5476 18a1 00       		.byte	0
 5477 18a2 00       		.byte	0
 5478 18a3 07       		.uleb128 0x7
 5479 18a4 04       		.byte	0x4
 5480 18a5 AB010000 		.4byte	0x1ab
 5481 18a9 1A       		.uleb128 0x1a
 5482 18aa 4D060000 		.4byte	.LASF90
 5483 18ae 01       		.byte	0x1
 5484 18af 4A03     		.2byte	0x34a
 5485 18b1 00000000 		.4byte	.LFB37
 5486 18b5 18000000 		.4byte	.LFE37-.LFB37
 5487 18b9 01       		.uleb128 0x1
 5488 18ba 9C       		.byte	0x9c
 5489 18bb 1A       		.uleb128 0x1a
 5490 18bc 59060000 		.4byte	.LASF91
 5491 18c0 01       		.byte	0x1
 5492 18c1 5B03     		.2byte	0x35b
 5493 18c3 00000000 		.4byte	.LFB38
ARM GAS  C:\Users\ccheney\AppData\Local\Temp\ccOO3kAb.s 			page 116


 5494 18c7 18000000 		.4byte	.LFE38-.LFB38
 5495 18cb 01       		.uleb128 0x1
 5496 18cc 9C       		.byte	0x9c
 5497 18cd 1B       		.uleb128 0x1b
 5498 18ce 04070000 		.4byte	.LASF92
 5499 18d2 01       		.byte	0x1
 5500 18d3 4E       		.byte	0x4e
 5501 18d4 DE180000 		.4byte	0x18de
 5502 18d8 05       		.uleb128 0x5
 5503 18d9 03       		.byte	0x3
 5504 18da 00000000 		.4byte	flag_pendingRxByte
 5505 18de 06       		.uleb128 0x6
 5506 18df FF000000 		.4byte	0xff
 5507 18e3 1B       		.uleb128 0x1b
 5508 18e4 17010000 		.4byte	.LASF93
 5509 18e8 01       		.byte	0x1
 5510 18e9 4F       		.byte	0x4f
 5511 18ea DE180000 		.4byte	0x18de
 5512 18ee 05       		.uleb128 0x5
 5513 18ef 03       		.byte	0x3
 5514 18f0 00000000 		.4byte	flag_pendingUsbByte
 5515 18f4 1B       		.uleb128 0x1b
 5516 18f5 24040000 		.4byte	.LASF94
 5517 18f9 01       		.byte	0x1
 5518 18fa 50       		.byte	0x50
 5519 18fb DE180000 		.4byte	0x18de
 5520 18ff 05       		.uleb128 0x5
 5521 1900 03       		.byte	0x3
 5522 1901 00000000 		.4byte	timerExpired
 5523 1905 1B       		.uleb128 0x1b
 5524 1906 DD050000 		.4byte	.LASF95
 5525 190a 01       		.byte	0x1
 5526 190b 51       		.byte	0x51
 5527 190c 5A030000 		.4byte	0x35a
 5528 1910 05       		.uleb128 0x5
 5529 1911 03       		.byte	0x3
 5530 1912 00000000 		.4byte	isrErr
 5531 1916 1C       		.uleb128 0x1c
 5532 1917 55080000 		.4byte	.LASF96
 5533 191b 55080000 		.4byte	.LASF96
 5534 191f 05       		.byte	0x5
 5535 1920 DD       		.byte	0xdd
 5536 1921 1C       		.uleb128 0x1c
 5537 1922 1E070000 		.4byte	.LASF97
 5538 1926 1E070000 		.4byte	.LASF97
 5539 192a 06       		.byte	0x6
 5540 192b 19       		.byte	0x19
 5541 192c 1C       		.uleb128 0x1c
 5542 192d EF030000 		.4byte	.LASF98
 5543 1931 EF030000 		.4byte	.LASF98
 5544 1935 07       		.byte	0x7
 5545 1936 1C       		.byte	0x1c
 5546 1937 1C       		.uleb128 0x1c
 5547 1938 6A000000 		.4byte	.LASF99
 5548 193c 6A000000 		.4byte	.LASF99
 5549 1940 08       		.byte	0x8
 5550 1941 21       		.byte	0x21
ARM GAS  C:\Users\ccheney\AppData\Local\Temp\ccOO3kAb.s 			page 117


 5551 1942 1C       		.uleb128 0x1c
 5552 1943 52000000 		.4byte	.LASF100
 5553 1947 52000000 		.4byte	.LASF100
 5554 194b 05       		.byte	0x5
 5555 194c DE       		.byte	0xde
 5556 194d 1C       		.uleb128 0x1c
 5557 194e 1A080000 		.4byte	.LASF101
 5558 1952 1A080000 		.4byte	.LASF101
 5559 1956 05       		.byte	0x5
 5560 1957 DF       		.byte	0xdf
 5561 1958 1C       		.uleb128 0x1c
 5562 1959 04030000 		.4byte	.LASF102
 5563 195d 04030000 		.4byte	.LASF102
 5564 1961 07       		.byte	0x7
 5565 1962 1E       		.byte	0x1e
 5566 1963 1C       		.uleb128 0x1c
 5567 1964 2B010000 		.4byte	.LASF103
 5568 1968 2B010000 		.4byte	.LASF103
 5569 196c 07       		.byte	0x7
 5570 196d 1D       		.byte	0x1d
 5571 196e 1D       		.uleb128 0x1d
 5572 196f 50040000 		.4byte	.LASF105
 5573 1973 50040000 		.4byte	.LASF105
 5574 1977 1C       		.uleb128 0x1c
 5575 1978 00000000 		.4byte	.LASF104
 5576 197c 00000000 		.4byte	.LASF104
 5577 1980 07       		.byte	0x7
 5578 1981 1F       		.byte	0x1f
 5579 1982 1D       		.uleb128 0x1d
 5580 1983 31040000 		.4byte	.LASF106
 5581 1987 31040000 		.4byte	.LASF106
 5582 198b 1C       		.uleb128 0x1c
 5583 198c 58010000 		.4byte	.LASF107
 5584 1990 58010000 		.4byte	.LASF107
 5585 1994 07       		.byte	0x7
 5586 1995 20       		.byte	0x20
 5587 1996 1C       		.uleb128 0x1c
 5588 1997 1E020000 		.4byte	.LASF108
 5589 199b 1E020000 		.4byte	.LASF108
 5590 199f 07       		.byte	0x7
 5591 19a0 22       		.byte	0x22
 5592 19a1 1C       		.uleb128 0x1c
 5593 19a2 4C020000 		.4byte	.LASF109
 5594 19a6 4C020000 		.4byte	.LASF109
 5595 19aa 07       		.byte	0x7
 5596 19ab 23       		.byte	0x23
 5597 19ac 1C       		.uleb128 0x1c
 5598 19ad 99070000 		.4byte	.LASF110
 5599 19b1 99070000 		.4byte	.LASF110
 5600 19b5 07       		.byte	0x7
 5601 19b6 24       		.byte	0x24
 5602 19b7 1C       		.uleb128 0x1c
 5603 19b8 C9050000 		.4byte	.LASF111
 5604 19bc C9050000 		.4byte	.LASF111
 5605 19c0 05       		.byte	0x5
 5606 19c1 ED       		.byte	0xed
 5607 19c2 1C       		.uleb128 0x1c
ARM GAS  C:\Users\ccheney\AppData\Local\Temp\ccOO3kAb.s 			page 118


 5608 19c3 FB000000 		.4byte	.LASF112
 5609 19c7 FB000000 		.4byte	.LASF112
 5610 19cb 08       		.byte	0x8
 5611 19cc 25       		.byte	0x25
 5612 19cd 1C       		.uleb128 0x1c
 5613 19ce 4B030000 		.4byte	.LASF113
 5614 19d2 4B030000 		.4byte	.LASF113
 5615 19d6 09       		.byte	0x9
 5616 19d7 1D       		.byte	0x1d
 5617 19d8 1C       		.uleb128 0x1c
 5618 19d9 51050000 		.4byte	.LASF114
 5619 19dd 51050000 		.4byte	.LASF114
 5620 19e1 0A       		.byte	0xa
 5621 19e2 72       		.byte	0x72
 5622 19e3 1C       		.uleb128 0x1c
 5623 19e4 A5050000 		.4byte	.LASF115
 5624 19e8 A5050000 		.4byte	.LASF115
 5625 19ec 0B       		.byte	0xb
 5626 19ed 72       		.byte	0x72
 5627 19ee 1C       		.uleb128 0x1c
 5628 19ef B3030000 		.4byte	.LASF116
 5629 19f3 B3030000 		.4byte	.LASF116
 5630 19f7 06       		.byte	0x6
 5631 19f8 1D       		.byte	0x1d
 5632 19f9 1C       		.uleb128 0x1c
 5633 19fa A4010000 		.4byte	.LASF117
 5634 19fe A4010000 		.4byte	.LASF117
 5635 1a02 08       		.byte	0x8
 5636 1a03 24       		.byte	0x24
 5637 1a04 1C       		.uleb128 0x1c
 5638 1a05 9F040000 		.4byte	.LASF118
 5639 1a09 9F040000 		.4byte	.LASF118
 5640 1a0d 07       		.byte	0x7
 5641 1a0e 25       		.byte	0x25
 5642 1a0f 1C       		.uleb128 0x1c
 5643 1a10 3C020000 		.4byte	.LASF119
 5644 1a14 3C020000 		.4byte	.LASF119
 5645 1a18 07       		.byte	0x7
 5646 1a19 21       		.byte	0x21
 5647 1a1a 1C       		.uleb128 0x1c
 5648 1a1b 88030000 		.4byte	.LASF120
 5649 1a1f 88030000 		.4byte	.LASF120
 5650 1a23 08       		.byte	0x8
 5651 1a24 23       		.byte	0x23
 5652 1a25 1E       		.uleb128 0x1e
 5653 1a26 60050000 		.4byte	.LASF121
 5654 1a2a 60050000 		.4byte	.LASF121
 5655 1a2e 0C       		.byte	0xc
 5656 1a2f 0F03     		.2byte	0x30f
 5657 1a31 1C       		.uleb128 0x1c
 5658 1a32 2C070000 		.4byte	.LASF122
 5659 1a36 2C070000 		.4byte	.LASF122
 5660 1a3a 0D       		.byte	0xd
 5661 1a3b E4       		.byte	0xe4
 5662 1a3c 00       		.byte	0
 5663              		.section	.debug_abbrev,"",%progbits
 5664              	.Ldebug_abbrev0:
ARM GAS  C:\Users\ccheney\AppData\Local\Temp\ccOO3kAb.s 			page 119


 5665 0000 01       		.uleb128 0x1
 5666 0001 11       		.uleb128 0x11
 5667 0002 01       		.byte	0x1
 5668 0003 25       		.uleb128 0x25
 5669 0004 0E       		.uleb128 0xe
 5670 0005 13       		.uleb128 0x13
 5671 0006 0B       		.uleb128 0xb
 5672 0007 03       		.uleb128 0x3
 5673 0008 0E       		.uleb128 0xe
 5674 0009 1B       		.uleb128 0x1b
 5675 000a 0E       		.uleb128 0xe
 5676 000b 55       		.uleb128 0x55
 5677 000c 17       		.uleb128 0x17
 5678 000d 11       		.uleb128 0x11
 5679 000e 01       		.uleb128 0x1
 5680 000f 10       		.uleb128 0x10
 5681 0010 17       		.uleb128 0x17
 5682 0011 00       		.byte	0
 5683 0012 00       		.byte	0
 5684 0013 02       		.uleb128 0x2
 5685 0014 24       		.uleb128 0x24
 5686 0015 00       		.byte	0
 5687 0016 0B       		.uleb128 0xb
 5688 0017 0B       		.uleb128 0xb
 5689 0018 3E       		.uleb128 0x3e
 5690 0019 0B       		.uleb128 0xb
 5691 001a 03       		.uleb128 0x3
 5692 001b 0E       		.uleb128 0xe
 5693 001c 00       		.byte	0
 5694 001d 00       		.byte	0
 5695 001e 03       		.uleb128 0x3
 5696 001f 16       		.uleb128 0x16
 5697 0020 00       		.byte	0
 5698 0021 03       		.uleb128 0x3
 5699 0022 0E       		.uleb128 0xe
 5700 0023 3A       		.uleb128 0x3a
 5701 0024 0B       		.uleb128 0xb
 5702 0025 3B       		.uleb128 0x3b
 5703 0026 0B       		.uleb128 0xb
 5704 0027 49       		.uleb128 0x49
 5705 0028 13       		.uleb128 0x13
 5706 0029 00       		.byte	0
 5707 002a 00       		.byte	0
 5708 002b 04       		.uleb128 0x4
 5709 002c 24       		.uleb128 0x24
 5710 002d 00       		.byte	0
 5711 002e 0B       		.uleb128 0xb
 5712 002f 0B       		.uleb128 0xb
 5713 0030 3E       		.uleb128 0x3e
 5714 0031 0B       		.uleb128 0xb
 5715 0032 03       		.uleb128 0x3
 5716 0033 08       		.uleb128 0x8
 5717 0034 00       		.byte	0
 5718 0035 00       		.byte	0
 5719 0036 05       		.uleb128 0x5
 5720 0037 16       		.uleb128 0x16
 5721 0038 00       		.byte	0
ARM GAS  C:\Users\ccheney\AppData\Local\Temp\ccOO3kAb.s 			page 120


 5722 0039 03       		.uleb128 0x3
 5723 003a 0E       		.uleb128 0xe
 5724 003b 3A       		.uleb128 0x3a
 5725 003c 0B       		.uleb128 0xb
 5726 003d 3B       		.uleb128 0x3b
 5727 003e 05       		.uleb128 0x5
 5728 003f 49       		.uleb128 0x49
 5729 0040 13       		.uleb128 0x13
 5730 0041 00       		.byte	0
 5731 0042 00       		.byte	0
 5732 0043 06       		.uleb128 0x6
 5733 0044 35       		.uleb128 0x35
 5734 0045 00       		.byte	0
 5735 0046 49       		.uleb128 0x49
 5736 0047 13       		.uleb128 0x13
 5737 0048 00       		.byte	0
 5738 0049 00       		.byte	0
 5739 004a 07       		.uleb128 0x7
 5740 004b 0F       		.uleb128 0xf
 5741 004c 00       		.byte	0
 5742 004d 0B       		.uleb128 0xb
 5743 004e 0B       		.uleb128 0xb
 5744 004f 49       		.uleb128 0x49
 5745 0050 13       		.uleb128 0x13
 5746 0051 00       		.byte	0
 5747 0052 00       		.byte	0
 5748 0053 08       		.uleb128 0x8
 5749 0054 04       		.uleb128 0x4
 5750 0055 01       		.byte	0x1
 5751 0056 0B       		.uleb128 0xb
 5752 0057 0B       		.uleb128 0xb
 5753 0058 49       		.uleb128 0x49
 5754 0059 13       		.uleb128 0x13
 5755 005a 3A       		.uleb128 0x3a
 5756 005b 0B       		.uleb128 0xb
 5757 005c 3B       		.uleb128 0x3b
 5758 005d 0B       		.uleb128 0xb
 5759 005e 01       		.uleb128 0x1
 5760 005f 13       		.uleb128 0x13
 5761 0060 00       		.byte	0
 5762 0061 00       		.byte	0
 5763 0062 09       		.uleb128 0x9
 5764 0063 28       		.uleb128 0x28
 5765 0064 00       		.byte	0
 5766 0065 03       		.uleb128 0x3
 5767 0066 0E       		.uleb128 0xe
 5768 0067 1C       		.uleb128 0x1c
 5769 0068 0B       		.uleb128 0xb
 5770 0069 00       		.byte	0
 5771 006a 00       		.byte	0
 5772 006b 0A       		.uleb128 0xa
 5773 006c 13       		.uleb128 0x13
 5774 006d 01       		.byte	0x1
 5775 006e 0B       		.uleb128 0xb
 5776 006f 0B       		.uleb128 0xb
 5777 0070 3A       		.uleb128 0x3a
 5778 0071 0B       		.uleb128 0xb
ARM GAS  C:\Users\ccheney\AppData\Local\Temp\ccOO3kAb.s 			page 121


 5779 0072 3B       		.uleb128 0x3b
 5780 0073 0B       		.uleb128 0xb
 5781 0074 01       		.uleb128 0x1
 5782 0075 13       		.uleb128 0x13
 5783 0076 00       		.byte	0
 5784 0077 00       		.byte	0
 5785 0078 0B       		.uleb128 0xb
 5786 0079 0D       		.uleb128 0xd
 5787 007a 00       		.byte	0
 5788 007b 03       		.uleb128 0x3
 5789 007c 0E       		.uleb128 0xe
 5790 007d 3A       		.uleb128 0x3a
 5791 007e 0B       		.uleb128 0xb
 5792 007f 3B       		.uleb128 0x3b
 5793 0080 0B       		.uleb128 0xb
 5794 0081 49       		.uleb128 0x49
 5795 0082 13       		.uleb128 0x13
 5796 0083 38       		.uleb128 0x38
 5797 0084 0B       		.uleb128 0xb
 5798 0085 00       		.byte	0
 5799 0086 00       		.byte	0
 5800 0087 0C       		.uleb128 0xc
 5801 0088 0D       		.uleb128 0xd
 5802 0089 00       		.byte	0
 5803 008a 03       		.uleb128 0x3
 5804 008b 08       		.uleb128 0x8
 5805 008c 3A       		.uleb128 0x3a
 5806 008d 0B       		.uleb128 0xb
 5807 008e 3B       		.uleb128 0x3b
 5808 008f 0B       		.uleb128 0xb
 5809 0090 49       		.uleb128 0x49
 5810 0091 13       		.uleb128 0x13
 5811 0092 38       		.uleb128 0x38
 5812 0093 0B       		.uleb128 0xb
 5813 0094 00       		.byte	0
 5814 0095 00       		.byte	0
 5815 0096 0D       		.uleb128 0xd
 5816 0097 15       		.uleb128 0x15
 5817 0098 01       		.byte	0x1
 5818 0099 27       		.uleb128 0x27
 5819 009a 19       		.uleb128 0x19
 5820 009b 01       		.uleb128 0x1
 5821 009c 13       		.uleb128 0x13
 5822 009d 00       		.byte	0
 5823 009e 00       		.byte	0
 5824 009f 0E       		.uleb128 0xe
 5825 00a0 05       		.uleb128 0x5
 5826 00a1 00       		.byte	0
 5827 00a2 49       		.uleb128 0x49
 5828 00a3 13       		.uleb128 0x13
 5829 00a4 00       		.byte	0
 5830 00a5 00       		.byte	0
 5831 00a6 0F       		.uleb128 0xf
 5832 00a7 15       		.uleb128 0x15
 5833 00a8 00       		.byte	0
 5834 00a9 27       		.uleb128 0x27
 5835 00aa 19       		.uleb128 0x19
ARM GAS  C:\Users\ccheney\AppData\Local\Temp\ccOO3kAb.s 			page 122


 5836 00ab 49       		.uleb128 0x49
 5837 00ac 13       		.uleb128 0x13
 5838 00ad 00       		.byte	0
 5839 00ae 00       		.byte	0
 5840 00af 10       		.uleb128 0x10
 5841 00b0 2E       		.uleb128 0x2e
 5842 00b1 01       		.byte	0x1
 5843 00b2 3F       		.uleb128 0x3f
 5844 00b3 19       		.uleb128 0x19
 5845 00b4 03       		.uleb128 0x3
 5846 00b5 0E       		.uleb128 0xe
 5847 00b6 3A       		.uleb128 0x3a
 5848 00b7 0B       		.uleb128 0xb
 5849 00b8 3B       		.uleb128 0x3b
 5850 00b9 0B       		.uleb128 0xb
 5851 00ba 27       		.uleb128 0x27
 5852 00bb 19       		.uleb128 0x19
 5853 00bc 49       		.uleb128 0x49
 5854 00bd 13       		.uleb128 0x13
 5855 00be 8701     		.uleb128 0x87
 5856 00c0 19       		.uleb128 0x19
 5857 00c1 11       		.uleb128 0x11
 5858 00c2 01       		.uleb128 0x1
 5859 00c3 12       		.uleb128 0x12
 5860 00c4 06       		.uleb128 0x6
 5861 00c5 40       		.uleb128 0x40
 5862 00c6 18       		.uleb128 0x18
 5863 00c7 9742     		.uleb128 0x2117
 5864 00c9 19       		.uleb128 0x19
 5865 00ca 01       		.uleb128 0x1
 5866 00cb 13       		.uleb128 0x13
 5867 00cc 00       		.byte	0
 5868 00cd 00       		.byte	0
 5869 00ce 11       		.uleb128 0x11
 5870 00cf 0B       		.uleb128 0xb
 5871 00d0 01       		.byte	0x1
 5872 00d1 11       		.uleb128 0x11
 5873 00d2 01       		.uleb128 0x1
 5874 00d3 12       		.uleb128 0x12
 5875 00d4 06       		.uleb128 0x6
 5876 00d5 01       		.uleb128 0x1
 5877 00d6 13       		.uleb128 0x13
 5878 00d7 00       		.byte	0
 5879 00d8 00       		.byte	0
 5880 00d9 12       		.uleb128 0x12
 5881 00da 34       		.uleb128 0x34
 5882 00db 00       		.byte	0
 5883 00dc 03       		.uleb128 0x3
 5884 00dd 0E       		.uleb128 0xe
 5885 00de 3A       		.uleb128 0x3a
 5886 00df 0B       		.uleb128 0xb
 5887 00e0 3B       		.uleb128 0x3b
 5888 00e1 0B       		.uleb128 0xb
 5889 00e2 49       		.uleb128 0x49
 5890 00e3 13       		.uleb128 0x13
 5891 00e4 02       		.uleb128 0x2
 5892 00e5 18       		.uleb128 0x18
ARM GAS  C:\Users\ccheney\AppData\Local\Temp\ccOO3kAb.s 			page 123


 5893 00e6 00       		.byte	0
 5894 00e7 00       		.byte	0
 5895 00e8 13       		.uleb128 0x13
 5896 00e9 898201   		.uleb128 0x4109
 5897 00ec 01       		.byte	0x1
 5898 00ed 11       		.uleb128 0x11
 5899 00ee 01       		.uleb128 0x1
 5900 00ef 31       		.uleb128 0x31
 5901 00f0 13       		.uleb128 0x13
 5902 00f1 01       		.uleb128 0x1
 5903 00f2 13       		.uleb128 0x13
 5904 00f3 00       		.byte	0
 5905 00f4 00       		.byte	0
 5906 00f5 14       		.uleb128 0x14
 5907 00f6 8A8201   		.uleb128 0x410a
 5908 00f9 00       		.byte	0
 5909 00fa 02       		.uleb128 0x2
 5910 00fb 18       		.uleb128 0x18
 5911 00fc 9142     		.uleb128 0x2111
 5912 00fe 18       		.uleb128 0x18
 5913 00ff 00       		.byte	0
 5914 0100 00       		.byte	0
 5915 0101 15       		.uleb128 0x15
 5916 0102 898201   		.uleb128 0x4109
 5917 0105 00       		.byte	0
 5918 0106 11       		.uleb128 0x11
 5919 0107 01       		.uleb128 0x1
 5920 0108 31       		.uleb128 0x31
 5921 0109 13       		.uleb128 0x13
 5922 010a 00       		.byte	0
 5923 010b 00       		.byte	0
 5924 010c 16       		.uleb128 0x16
 5925 010d 898201   		.uleb128 0x4109
 5926 0110 01       		.byte	0x1
 5927 0111 11       		.uleb128 0x11
 5928 0112 01       		.uleb128 0x1
 5929 0113 31       		.uleb128 0x31
 5930 0114 13       		.uleb128 0x13
 5931 0115 00       		.byte	0
 5932 0116 00       		.byte	0
 5933 0117 17       		.uleb128 0x17
 5934 0118 34       		.uleb128 0x34
 5935 0119 00       		.byte	0
 5936 011a 03       		.uleb128 0x3
 5937 011b 0E       		.uleb128 0xe
 5938 011c 3A       		.uleb128 0x3a
 5939 011d 0B       		.uleb128 0xb
 5940 011e 3B       		.uleb128 0x3b
 5941 011f 05       		.uleb128 0x5
 5942 0120 49       		.uleb128 0x49
 5943 0121 13       		.uleb128 0x13
 5944 0122 02       		.uleb128 0x2
 5945 0123 18       		.uleb128 0x18
 5946 0124 00       		.byte	0
 5947 0125 00       		.byte	0
 5948 0126 18       		.uleb128 0x18
 5949 0127 01       		.uleb128 0x1
ARM GAS  C:\Users\ccheney\AppData\Local\Temp\ccOO3kAb.s 			page 124


 5950 0128 01       		.byte	0x1
 5951 0129 49       		.uleb128 0x49
 5952 012a 13       		.uleb128 0x13
 5953 012b 01       		.uleb128 0x1
 5954 012c 13       		.uleb128 0x13
 5955 012d 00       		.byte	0
 5956 012e 00       		.byte	0
 5957 012f 19       		.uleb128 0x19
 5958 0130 21       		.uleb128 0x21
 5959 0131 00       		.byte	0
 5960 0132 49       		.uleb128 0x49
 5961 0133 13       		.uleb128 0x13
 5962 0134 2F       		.uleb128 0x2f
 5963 0135 0B       		.uleb128 0xb
 5964 0136 00       		.byte	0
 5965 0137 00       		.byte	0
 5966 0138 1A       		.uleb128 0x1a
 5967 0139 2E       		.uleb128 0x2e
 5968 013a 00       		.byte	0
 5969 013b 3F       		.uleb128 0x3f
 5970 013c 19       		.uleb128 0x19
 5971 013d 03       		.uleb128 0x3
 5972 013e 0E       		.uleb128 0xe
 5973 013f 3A       		.uleb128 0x3a
 5974 0140 0B       		.uleb128 0xb
 5975 0141 3B       		.uleb128 0x3b
 5976 0142 05       		.uleb128 0x5
 5977 0143 27       		.uleb128 0x27
 5978 0144 19       		.uleb128 0x19
 5979 0145 11       		.uleb128 0x11
 5980 0146 01       		.uleb128 0x1
 5981 0147 12       		.uleb128 0x12
 5982 0148 06       		.uleb128 0x6
 5983 0149 40       		.uleb128 0x40
 5984 014a 18       		.uleb128 0x18
 5985 014b 9742     		.uleb128 0x2117
 5986 014d 19       		.uleb128 0x19
 5987 014e 00       		.byte	0
 5988 014f 00       		.byte	0
 5989 0150 1B       		.uleb128 0x1b
 5990 0151 34       		.uleb128 0x34
 5991 0152 00       		.byte	0
 5992 0153 03       		.uleb128 0x3
 5993 0154 0E       		.uleb128 0xe
 5994 0155 3A       		.uleb128 0x3a
 5995 0156 0B       		.uleb128 0xb
 5996 0157 3B       		.uleb128 0x3b
 5997 0158 0B       		.uleb128 0xb
 5998 0159 49       		.uleb128 0x49
 5999 015a 13       		.uleb128 0x13
 6000 015b 3F       		.uleb128 0x3f
 6001 015c 19       		.uleb128 0x19
 6002 015d 02       		.uleb128 0x2
 6003 015e 18       		.uleb128 0x18
 6004 015f 00       		.byte	0
 6005 0160 00       		.byte	0
 6006 0161 1C       		.uleb128 0x1c
ARM GAS  C:\Users\ccheney\AppData\Local\Temp\ccOO3kAb.s 			page 125


 6007 0162 2E       		.uleb128 0x2e
 6008 0163 00       		.byte	0
 6009 0164 3F       		.uleb128 0x3f
 6010 0165 19       		.uleb128 0x19
 6011 0166 3C       		.uleb128 0x3c
 6012 0167 19       		.uleb128 0x19
 6013 0168 6E       		.uleb128 0x6e
 6014 0169 0E       		.uleb128 0xe
 6015 016a 03       		.uleb128 0x3
 6016 016b 0E       		.uleb128 0xe
 6017 016c 3A       		.uleb128 0x3a
 6018 016d 0B       		.uleb128 0xb
 6019 016e 3B       		.uleb128 0x3b
 6020 016f 0B       		.uleb128 0xb
 6021 0170 00       		.byte	0
 6022 0171 00       		.byte	0
 6023 0172 1D       		.uleb128 0x1d
 6024 0173 2E       		.uleb128 0x2e
 6025 0174 00       		.byte	0
 6026 0175 3F       		.uleb128 0x3f
 6027 0176 19       		.uleb128 0x19
 6028 0177 3C       		.uleb128 0x3c
 6029 0178 19       		.uleb128 0x19
 6030 0179 6E       		.uleb128 0x6e
 6031 017a 0E       		.uleb128 0xe
 6032 017b 03       		.uleb128 0x3
 6033 017c 0E       		.uleb128 0xe
 6034 017d 00       		.byte	0
 6035 017e 00       		.byte	0
 6036 017f 1E       		.uleb128 0x1e
 6037 0180 2E       		.uleb128 0x2e
 6038 0181 00       		.byte	0
 6039 0182 3F       		.uleb128 0x3f
 6040 0183 19       		.uleb128 0x19
 6041 0184 3C       		.uleb128 0x3c
 6042 0185 19       		.uleb128 0x19
 6043 0186 6E       		.uleb128 0x6e
 6044 0187 0E       		.uleb128 0xe
 6045 0188 03       		.uleb128 0x3
 6046 0189 0E       		.uleb128 0xe
 6047 018a 3A       		.uleb128 0x3a
 6048 018b 0B       		.uleb128 0xb
 6049 018c 3B       		.uleb128 0x3b
 6050 018d 05       		.uleb128 0x5
 6051 018e 00       		.byte	0
 6052 018f 00       		.byte	0
 6053 0190 00       		.byte	0
 6054              		.section	.debug_aranges,"",%progbits
 6055 0000 2C000000 		.4byte	0x2c
 6056 0004 0200     		.2byte	0x2
 6057 0006 00000000 		.4byte	.Ldebug_info0
 6058 000a 04       		.byte	0x4
 6059 000b 00       		.byte	0
 6060 000c 0000     		.2byte	0
 6061 000e 0000     		.2byte	0
 6062 0010 00000000 		.4byte	.LFB36
 6063 0014 980A0000 		.4byte	.LFE36-.LFB36
ARM GAS  C:\Users\ccheney\AppData\Local\Temp\ccOO3kAb.s 			page 126


 6064 0018 00000000 		.4byte	.LFB37
 6065 001c 18000000 		.4byte	.LFE37-.LFB37
 6066 0020 00000000 		.4byte	.LFB38
 6067 0024 18000000 		.4byte	.LFE38-.LFB38
 6068 0028 00000000 		.4byte	0
 6069 002c 00000000 		.4byte	0
 6070              		.section	.debug_ranges,"",%progbits
 6071              	.Ldebug_ranges0:
 6072 0000 00000000 		.4byte	.LFB36
 6073 0004 980A0000 		.4byte	.LFE36
 6074 0008 00000000 		.4byte	.LFB37
 6075 000c 18000000 		.4byte	.LFE37
 6076 0010 00000000 		.4byte	.LFB38
 6077 0014 18000000 		.4byte	.LFE38
 6078 0018 00000000 		.4byte	0
 6079 001c 00000000 		.4byte	0
 6080              		.section	.debug_line,"",%progbits
 6081              	.Ldebug_line0:
 6082 0000 D4020000 		.section	.debug_str,"MS",%progbits,1
 6082      0200C401 
 6082      00000201 
 6082      FB0E0D00 
 6082      01010101 
 6083              	.LASF104:
 6084 0000 74657374 		.ascii	"test_packetCreation_stateErrors\000"
 6084      5F706163 
 6084      6B657443 
 6084      72656174 
 6084      696F6E5F 
 6085              	.LASF86:
 6086 0020 656E6572 		.ascii	"energyPacket\000"
 6086      67795061 
 6086      636B6574 
 6086      00
 6087              	.LASF48:
 6088 002d 70726F63 		.ascii	"processBuffer\000"
 6088      65737342 
 6088      75666665 
 6088      7200
 6089              	.LASF124:
 6090 003b 6D61696E 		.ascii	"main.c\000"
 6090      2E6300
 6091              	.LASF67:
 6092 0042 6E6F5061 		.ascii	"noPayloadPacket\000"
 6092      796C6F61 
 6092      64506163 
 6092      6B657400 
 6093              	.LASF100:
 6094 0052 7061636B 		.ascii	"packets_generateBuffers\000"
 6094      6574735F 
 6094      67656E65 
 6094      72617465 
 6094      42756666 
 6095              	.LASF99:
 6096 006a 74657374 		.ascii	"testRunner_run\000"
 6096      52756E6E 
 6096      65725F72 
ARM GAS  C:\Users\ccheney\AppData\Local\Temp\ccOO3kAb.s 			page 127


 6096      756E00
 6097              	.LASF57:
 6098 0079 636D6443 		.ascii	"cmdCallback\000"
 6098      616C6C62 
 6098      61636B00 
 6099              	.LASF44:
 6100 0085 666C6167 		.ascii	"flags\000"
 6100      7300
 6101              	.LASF51:
 6102 008b 7061636B 		.ascii	"packets_BUFFER_RECEIVE_S\000"
 6102      6574735F 
 6102      42554646 
 6102      45525F52 
 6102      45434549 
 6103              	.LASF35:
 6104 00a4 62756666 		.ascii	"buffer\000"
 6104      657200
 6105              	.LASF11:
 6106 00ab 756E7369 		.ascii	"unsigned int\000"
 6106      676E6564 
 6106      20696E74 
 6106      00
 6107              	.LASF64:
 6108 00b8 73656E64 		.ascii	"sendPacket\000"
 6108      5061636B 
 6108      657400
 6109              	.LASF89:
 6110 00c3 74657374 		.ascii	"testPacket\000"
 6110      5061636B 
 6110      657400
 6111              	.LASF52:
 6112 00ce 72785265 		.ascii	"rxReadArray\000"
 6112      61644172 
 6112      72617900 
 6113              	.LASF45:
 6114 00da 6572726F 		.ascii	"error\000"
 6114      7200
 6115              	.LASF46:
 6116 00e0 7061636B 		.ascii	"packets_PACKET_S\000"
 6116      6574735F 
 6116      5041434B 
 6116      45545F53 
 6116      00
 6117              	.LASF65:
 6118 00f1 64756D6D 		.ascii	"dummyData\000"
 6118      79446174 
 6118      6100
 6119              	.LASF112:
 6120 00fb 74657374 		.ascii	"testRunner_setPrintFunction\000"
 6120      52756E6E 
 6120      65725F73 
 6120      65745072 
 6120      696E7446 
 6121              	.LASF93:
 6122 0117 666C6167 		.ascii	"flag_pendingUsbByte\000"
 6122      5F70656E 
 6122      64696E67 
ARM GAS  C:\Users\ccheney\AppData\Local\Temp\ccOO3kAb.s 			page 128


 6122      55736242 
 6122      79746500 
 6123              	.LASF103:
 6124 012b 74657374 		.ascii	"test_generateBuffers_iteration\000"
 6124      5F67656E 
 6124      65726174 
 6124      65427566 
 6124      66657273 
 6125              	.LASF59:
 6126 014a 73656E64 		.ascii	"send\000"
 6126      00
 6127              	.LASF14:
 6128 014f 75696E74 		.ascii	"uint32_t\000"
 6128      33325F74 
 6128      00
 6129              	.LASF107:
 6130 0158 74657374 		.ascii	"test_packetCreation_packetVals\000"
 6130      5F706163 
 6130      6B657443 
 6130      72656174 
 6130      696F6E5F 
 6131              	.LASF81:
 6132 0177 7061796C 		.ascii	"payloadAct\000"
 6132      6F616441 
 6132      637400
 6133              	.LASF80:
 6134 0182 61637475 		.ascii	"actuationPacket\000"
 6134      6174696F 
 6134      6E506163 
 6134      6B657400 
 6135              	.LASF66:
 6136 0192 76616C69 		.ascii	"validPacket\000"
 6136      64506163 
 6136      6B657400 
 6137              	.LASF17:
 6138 019e 666C6F61 		.ascii	"float\000"
 6138      7400
 6139              	.LASF117:
 6140 01a4 74657374 		.ascii	"testRunner_printResults\000"
 6140      52756E6E 
 6140      65725F70 
 6140      72696E74 
 6140      52657375 
 6141              	.LASF34:
 6142 01bc 7061636B 		.ascii	"packets_BUFFER_STATE_SEND_T\000"
 6142      6574735F 
 6142      42554646 
 6142      45525F53 
 6142      54415445 
 6143              	.LASF10:
 6144 01d8 6C6F6E67 		.ascii	"long long unsigned int\000"
 6144      206C6F6E 
 6144      6720756E 
 6144      7369676E 
 6144      65642069 
 6145              	.LASF83:
 6146 01ef 73656E73 		.ascii	"sensingPacket\000"
ARM GAS  C:\Users\ccheney\AppData\Local\Temp\ccOO3kAb.s 			page 129


 6146      696E6750 
 6146      61636B65 
 6146      7400
 6147              	.LASF50:
 6148 01fd 7061636B 		.ascii	"packets_BUFFER_SEND_S\000"
 6148      6574735F 
 6148      42554646 
 6148      45525F53 
 6148      454E445F 
 6149              	.LASF4:
 6150 0213 5F5F7569 		.ascii	"__uint16_t\000"
 6150      6E743136 
 6150      5F7400
 6151              	.LASF108:
 6152 021e 74657374 		.ascii	"test_processRxByte_stateError\000"
 6152      5F70726F 
 6152      63657373 
 6152      52784279 
 6152      74655F73 
 6153              	.LASF119:
 6154 023c 74657374 		.ascii	"test_sendPacket\000"
 6154      5F73656E 
 6154      64506163 
 6154      6B657400 
 6155              	.LASF109:
 6156 024c 74657374 		.ascii	"test_packetParsing_stateErrors\000"
 6156      5F706163 
 6156      6B657450 
 6156      61727369 
 6156      6E675F73 
 6157              	.LASF123:
 6158 026b 474E5520 		.ascii	"GNU C11 5.4.1 20160609 (release) [ARM/embedded-5-br"
 6158      43313120 
 6158      352E342E 
 6158      31203230 
 6158      31363036 
 6159 029e 616E6368 		.ascii	"anch revision 237715] -mcpu=cortex-m0 -mthumb -g -O"
 6159      20726576 
 6159      6973696F 
 6159      6E203233 
 6159      37373135 
 6160 02d1 67202D66 		.ascii	"g -ffunction-sections -ffat-lto-objects\000"
 6160      66756E63 
 6160      74696F6E 
 6160      2D736563 
 6160      74696F6E 
 6161              	.LASF72:
 6162 02f9 62617365 		.ascii	"basePacket\000"
 6162      5061636B 
 6162      657400
 6163              	.LASF102:
 6164 0304 74657374 		.ascii	"test_destroyBuffers\000"
 6164      5F646573 
 6164      74726F79 
 6164      42756666 
 6164      65727300 
 6165              	.LASF41:
ARM GAS  C:\Users\ccheney\AppData\Local\Temp\ccOO3kAb.s 			page 130


 6166 0318 7061796C 		.ascii	"payload\000"
 6166      6F616400 
 6167              	.LASF23:
 6168 0320 5F426F6F 		.ascii	"_Bool\000"
 6168      6C00
 6169              	.LASF70:
 6170 0326 62797465 		.ascii	"bytes\000"
 6170      7300
 6171              	.LASF29:
 6172 032c 7061636B 		.ascii	"packets_BUFFER_STATE_RECEIVE_T\000"
 6172      6574735F 
 6172      42554646 
 6172      45525F53 
 6172      54415445 
 6173              	.LASF113:
 6174 034b 4C454453 		.ascii	"LEDS_Write\000"
 6174      5F577269 
 6174      746500
 6175              	.LASF49:
 6176 0356 62756666 		.ascii	"bufferState\000"
 6176      65725374 
 6176      61746500 
 6177              	.LASF68:
 6178 0362 72657370 		.ascii	"respFlagPacket\000"
 6178      466C6167 
 6178      5061636B 
 6178      657400
 6179              	.LASF19:
 6180 0371 63686172 		.ascii	"char\000"
 6180      00
 6181              	.LASF74:
 6182 0376 62616443 		.ascii	"badChecksumPacket\000"
 6182      6865636B 
 6182      73756D50 
 6182      61636B65 
 6182      7400
 6183              	.LASF120:
 6184 0388 74657374 		.ascii	"testRunner_printCount\000"
 6184      52756E6E 
 6184      65725F70 
 6184      72696E74 
 6184      436F756E 
 6185              	.LASF60:
 6186 039e 72656365 		.ascii	"receive\000"
 6186      69766500 
 6187              	.LASF63:
 6188 03a6 7061636B 		.ascii	"packetBuffer\000"
 6188      65744275 
 6188      66666572 
 6188      00
 6189              	.LASF116:
 6190 03b3 75736255 		.ascii	"usbUart_printHeader\000"
 6190      6172745F 
 6190      7072696E 
 6190      74486561 
 6190      64657200 
 6191              	.LASF12:
ARM GAS  C:\Users\ccheney\AppData\Local\Temp\ccOO3kAb.s 			page 131


 6192 03c7 75696E74 		.ascii	"uint8_t\000"
 6192      385F7400 
 6193              	.LASF82:
 6194 03cf 65787065 		.ascii	"expectedPacketAct\000"
 6194      63746564 
 6194      5061636B 
 6194      65744163 
 6194      7400
 6195              	.LASF9:
 6196 03e1 6C6F6E67 		.ascii	"long long int\000"
 6196      206C6F6E 
 6196      6720696E 
 6196      7400
 6197              	.LASF98:
 6198 03ef 74657374 		.ascii	"test_generateBuffers\000"
 6198      5F67656E 
 6198      65726174 
 6198      65427566 
 6198      66657273 
 6199              	.LASF28:
 6200 0404 7061636B 		.ascii	"packets_BUFFER_RECEIVE_COMPLETE\000"
 6200      6574735F 
 6200      42554646 
 6200      45525F52 
 6200      45434549 
 6201              	.LASF94:
 6202 0424 74696D65 		.ascii	"timerExpired\000"
 6202      72457870 
 6202      69726564 
 6202      00
 6203              	.LASF106:
 6204 0431 6D656D73 		.ascii	"memset\000"
 6204      657400
 6205              	.LASF58:
 6206 0438 7061636B 		.ascii	"packets_COMMUNICATION_S\000"
 6206      6574735F 
 6206      434F4D4D 
 6206      554E4943 
 6206      4154494F 
 6207              	.LASF105:
 6208 0450 6D656D63 		.ascii	"memcpy\000"
 6208      707900
 6209              	.LASF16:
 6210 0457 75696E74 		.ascii	"uint32\000"
 6210      333200
 6211              	.LASF30:
 6212 045e 7061636B 		.ascii	"packets_BUFFER_SEND_WAIT\000"
 6212      6574735F 
 6212      42554646 
 6212      45525F53 
 6212      454E445F 
 6213              	.LASF73:
 6214 0477 62616453 		.ascii	"badStartPacket\000"
 6214      74617274 
 6214      5061636B 
 6214      657400
 6215              	.LASF53:
ARM GAS  C:\Users\ccheney\AppData\Local\Temp\ccOO3kAb.s 			page 132


 6216 0486 74785075 		.ascii	"txPutArray\000"
 6216      74417272 
 6216      617900
 6217              	.LASF76:
 6218 0491 7061636B 		.ascii	"packetBuffer1\000"
 6218      65744275 
 6218      66666572 
 6218      3100
 6219              	.LASF118:
 6220 049f 74657374 		.ascii	"test_commandToModule\000"
 6220      5F636F6D 
 6220      6D616E64 
 6220      546F4D6F 
 6220      64756C65 
 6221              	.LASF79:
 6222 04b4 65787065 		.ascii	"expectedPacket2\000"
 6222      63746564 
 6222      5061636B 
 6222      65743200 
 6223              	.LASF69:
 6224 04c4 72657370 		.ascii	"respFlagPacket2\000"
 6224      466C6167 
 6224      5061636B 
 6224      65743200 
 6225              	.LASF21:
 6226 04d4 6C6F6E67 		.ascii	"long double\000"
 6226      20646F75 
 6226      626C6500 
 6227              	.LASF54:
 6228 04e0 72784765 		.ascii	"rxGetBytesPending\000"
 6228      74427974 
 6228      65735065 
 6228      6E64696E 
 6228      6700
 6229              	.LASF13:
 6230 04f2 75696E74 		.ascii	"uint16_t\000"
 6230      31365F74 
 6230      00
 6231              	.LASF37:
 6232 04fb 62756666 		.ascii	"bufferIndex\000"
 6232      6572496E 
 6232      64657800 
 6233              	.LASF20:
 6234 0507 72656733 		.ascii	"reg32\000"
 6234      3200
 6235              	.LASF33:
 6236 050d 7061636B 		.ascii	"packets_BUFFER_SEND_COMPLETE\000"
 6236      6574735F 
 6236      42554646 
 6236      45525F53 
 6236      454E445F 
 6237              	.LASF71:
 6238 052a 74784275 		.ascii	"txBuffer\000"
 6238      66666572 
 6238      00
 6239              	.LASF27:
 6240 0533 7061636B 		.ascii	"packets_BUFFER_RECEIVE_FOOTER\000"
ARM GAS  C:\Users\ccheney\AppData\Local\Temp\ccOO3kAb.s 			page 133


 6240      6574735F 
 6240      42554646 
 6240      45525F52 
 6240      45434549 
 6241              	.LASF114:
 6242 0551 55415254 		.ascii	"UART_USB_Start\000"
 6242      5F555342 
 6242      5F537461 
 6242      727400
 6243              	.LASF121:
 6244 0560 55415254 		.ascii	"UART_USB_UartGetChar\000"
 6244      5F555342 
 6244      5F556172 
 6244      74476574 
 6244      43686172 
 6245              	.LASF2:
 6246 0575 73686F72 		.ascii	"short int\000"
 6246      7420696E 
 6246      7400
 6247              	.LASF32:
 6248 057f 7061636B 		.ascii	"packets_BUFFER_SEND_QUEUEING\000"
 6248      6574735F 
 6248      42554646 
 6248      45525F53 
 6248      454E445F 
 6249              	.LASF6:
 6250 059c 6C6F6E67 		.ascii	"long int\000"
 6250      20696E74 
 6250      00
 6251              	.LASF115:
 6252 05a5 55415254 		.ascii	"UART_IMU_Start\000"
 6252      5F494D55 
 6252      5F537461 
 6252      727400
 6253              	.LASF36:
 6254 05b4 62756666 		.ascii	"bufferLen\000"
 6254      65724C65 
 6254      6E00
 6255              	.LASF43:
 6256 05be 7061796C 		.ascii	"payloadLen\000"
 6256      6F61644C 
 6256      656E00
 6257              	.LASF111:
 6258 05c9 7061636B 		.ascii	"packets_printPacket\000"
 6258      6574735F 
 6258      7072696E 
 6258      74506163 
 6258      6B657400 
 6259              	.LASF95:
 6260 05dd 69737245 		.ascii	"isrErr\000"
 6260      727200
 6261              	.LASF26:
 6262 05e4 7061636B 		.ascii	"packets_BUFFER_RECEIVE_PAYLOAD\000"
 6262      6574735F 
 6262      42554646 
 6262      45525F52 
 6262      45434549 
ARM GAS  C:\Users\ccheney\AppData\Local\Temp\ccOO3kAb.s 			page 134


 6263              	.LASF3:
 6264 0603 5F5F7569 		.ascii	"__uint8_t\000"
 6264      6E74385F 
 6264      7400
 6265              	.LASF24:
 6266 060d 7061636B 		.ascii	"packets_BUFFER_RECEIVE_WAIT_FOR_START\000"
 6266      6574735F 
 6266      42554646 
 6266      45525F52 
 6266      45434549 
 6267              	.LASF31:
 6268 0633 7061636B 		.ascii	"packets_BUFFER_SEND_READY\000"
 6268      6574735F 
 6268      42554646 
 6268      45525F53 
 6268      454E445F 
 6269              	.LASF90:
 6270 064d 4953525F 		.ascii	"ISR_imuUart\000"
 6270      696D7555 
 6270      61727400 
 6271              	.LASF91:
 6272 0659 4953525F 		.ascii	"ISR_usbUart\000"
 6272      75736255 
 6272      61727400 
 6273              	.LASF22:
 6274 0665 73697A65 		.ascii	"sizetype\000"
 6274      74797065 
 6274      00
 6275              	.LASF125:
 6276 066e 433A5C55 		.ascii	"C:\\Users\\ccheney\\Dropbox (MIT)\\MICA\\Creator\\l"
 6276      73657273 
 6276      5C636368 
 6276      656E6579 
 6276      5C44726F 
 6277 069b 69627261 		.ascii	"ibraries\\micaComponents_testing\\packetTesting_v1_"
 6277      72696573 
 6277      5C6D6963 
 6277      61436F6D 
 6277      706F6E65 
 6278 06cc 342E6379 		.ascii	"4.cydsn\000"
 6278      64736E00 
 6279              	.LASF8:
 6280 06d4 6C6F6E67 		.ascii	"long unsigned int\000"
 6280      20756E73 
 6280      69676E65 
 6280      6420696E 
 6280      7400
 6281              	.LASF77:
 6282 06e6 65787065 		.ascii	"expectedPacket\000"
 6282      63746564 
 6282      5061636B 
 6282      657400
 6283              	.LASF55:
 6284 06f5 74784765 		.ascii	"txGetQueueSize\000"
 6284      74517565 
 6284      75655369 
 6284      7A6500
ARM GAS  C:\Users\ccheney\AppData\Local\Temp\ccOO3kAb.s 			page 135


 6285              	.LASF92:
 6286 0704 666C6167 		.ascii	"flag_pendingRxByte\000"
 6286      5F70656E 
 6286      64696E67 
 6286      52784279 
 6286      746500
 6287              	.LASF47:
 6288 0717 7061636B 		.ascii	"packet\000"
 6288      657400
 6289              	.LASF97:
 6290 071e 75736255 		.ascii	"usbUart_print\000"
 6290      6172745F 
 6290      7072696E 
 6290      7400
 6291              	.LASF122:
 6292 072c 4379536F 		.ascii	"CySoftwareReset\000"
 6292      66747761 
 6292      72655265 
 6292      73657400 
 6293              	.LASF62:
 6294 073c 7061636B 		.ascii	"packets_BUFFER_FULL_S\000"
 6294      6574735F 
 6294      42554646 
 6294      45525F46 
 6294      554C4C5F 
 6295              	.LASF1:
 6296 0752 756E7369 		.ascii	"unsigned char\000"
 6296      676E6564 
 6296      20636861 
 6296      7200
 6297              	.LASF7:
 6298 0760 5F5F7569 		.ascii	"__uint32_t\000"
 6298      6E743332 
 6298      5F7400
 6299              	.LASF42:
 6300 076b 7061796C 		.ascii	"payloadMax\000"
 6300      6F61644D 
 6300      617800
 6301              	.LASF38:
 6302 0776 74696D65 		.ascii	"timeCount\000"
 6302      436F756E 
 6302      7400
 6303              	.LASF39:
 6304 0780 7061636B 		.ascii	"packets_BUFFER_PROCESS_S\000"
 6304      6574735F 
 6304      42554646 
 6304      45525F50 
 6304      524F4345 
 6305              	.LASF110:
 6306 0799 74657374 		.ascii	"test_packetParsing_packetVals\000"
 6306      5F706163 
 6306      6B657450 
 6306      61727369 
 6306      6E675F70 
 6307              	.LASF25:
 6308 07b7 7061636B 		.ascii	"packets_BUFFER_RECEIVE_HEADER\000"
 6308      6574735F 
ARM GAS  C:\Users\ccheney\AppData\Local\Temp\ccOO3kAb.s 			page 136


 6308      42554646 
 6308      45525F52 
 6308      45434549 
 6309              	.LASF85:
 6310 07d5 65787065 		.ascii	"expectedPacket3\000"
 6310      63746564 
 6310      5061636B 
 6310      65743300 
 6311              	.LASF0:
 6312 07e5 7369676E 		.ascii	"signed char\000"
 6312      65642063 
 6312      68617200 
 6313              	.LASF5:
 6314 07f1 73686F72 		.ascii	"short unsigned int\000"
 6314      7420756E 
 6314      7369676E 
 6314      65642069 
 6314      6E7400
 6315              	.LASF75:
 6316 0804 62616445 		.ascii	"badEndPacket\000"
 6316      6E645061 
 6316      636B6574 
 6316      00
 6317              	.LASF40:
 6318 0811 6D6F6475 		.ascii	"moduleId\000"
 6318      6C654964 
 6318      00
 6319              	.LASF101:
 6320 081a 7061636B 		.ascii	"packets_destoryBuffers\000"
 6320      6574735F 
 6320      64657374 
 6320      6F727942 
 6320      75666665 
 6321              	.LASF126:
 6322 0831 6D61696E 		.ascii	"main\000"
 6322      00
 6323              	.LASF78:
 6324 0836 7061796C 		.ascii	"payload2\000"
 6324      6F616432 
 6324      00
 6325              	.LASF84:
 6326 083f 7061796C 		.ascii	"payload3\000"
 6326      6F616433 
 6326      00
 6327              	.LASF15:
 6328 0848 75696E74 		.ascii	"uint8\000"
 6328      3800
 6329              	.LASF18:
 6330 084e 646F7562 		.ascii	"double\000"
 6330      6C6500
 6331              	.LASF96:
 6332 0855 7061636B 		.ascii	"packets_initialize\000"
 6332      6574735F 
 6332      696E6974 
 6332      69616C69 
 6332      7A6500
 6333              	.LASF88:
ARM GAS  C:\Users\ccheney\AppData\Local\Temp\ccOO3kAb.s 			page 137


 6334 0868 65787065 		.ascii	"expectedPacketEnergy\000"
 6334      63746564 
 6334      5061636B 
 6334      6574456E 
 6334      65726779 
 6335              	.LASF56:
 6336 087d 61636B43 		.ascii	"ackCallback\000"
 6336      616C6C62 
 6336      61636B00 
 6337              	.LASF87:
 6338 0889 7061796C 		.ascii	"payloadEnergy\000"
 6338      6F616445 
 6338      6E657267 
 6338      7900
 6339              	.LASF61:
 6340 0897 636F6D6D 		.ascii	"comms\000"
 6340      7300
 6341              		.ident	"GCC: (GNU Tools for ARM Embedded Processors) 5.4.1 20160609 (release) [ARM/embedded-5-bran
