ARM GAS  C:\Users\ccheney\AppData\Local\Temp\cc56QWse.s 			page 1


   1              		.syntax unified
   2              		.cpu cortex-m0
   3              		.fpu softvfp
   4              		.eabi_attribute 20, 1
   5              		.eabi_attribute 21, 1
   6              		.eabi_attribute 23, 3
   7              		.eabi_attribute 24, 1
   8              		.eabi_attribute 25, 1
   9              		.eabi_attribute 26, 1
  10              		.eabi_attribute 30, 1
  11              		.eabi_attribute 34, 0
  12              		.eabi_attribute 18, 4
  13              		.thumb
  14              		.syntax unified
  15              		.file	"micaCommon.c"
  16              		.text
  17              	.Ltext0:
  18              		.cfi_sections	.debug_frame
  19              		.global	__aeabi_fmul
  20              		.global	__aeabi_fdiv
  21              		.section	.text.to_degrees,"ax",%progbits
  22              		.align	2
  23              		.global	to_degrees
  24              		.code	16
  25              		.thumb_func
  26              		.type	to_degrees, %function
  27              	to_degrees:
  28              	.LFB2:
  29              		.file 1 "Generated_Source\\PSoC4\\micaCommon.c"
   1:Generated_Source\PSoC4/micaCommon.c **** /***************************************************************************
   2:Generated_Source\PSoC4/micaCommon.c **** *                                       MICA
   3:Generated_Source\PSoC4/micaCommon.c **** * File: micaCommon.c
   4:Generated_Source\PSoC4/micaCommon.c **** * Workspace: micaCompnents
   5:Generated_Source\PSoC4/micaCommon.c **** * Project Name: libMica
   6:Generated_Source\PSoC4/micaCommon.c **** * Version: v1.0
   7:Generated_Source\PSoC4/micaCommon.c **** * Author: Craig Cheney
   8:Generated_Source\PSoC4/micaCommon.c **** *
   9:Generated_Source\PSoC4/micaCommon.c **** * Brief:
  10:Generated_Source\PSoC4/micaCommon.c **** *   Generic Functions used in MICA
  11:Generated_Source\PSoC4/micaCommon.c **** * 
  12:Generated_Source\PSoC4/micaCommon.c **** * Authors:
  13:Generated_Source\PSoC4/micaCommon.c **** *   Craig Cheney
  14:Generated_Source\PSoC4/micaCommon.c **** *
  15:Generated_Source\PSoC4/micaCommon.c **** * Change Log:
  16:Generated_Source\PSoC4/micaCommon.c **** *   2018.03.03 CC - Document created
  17:Generated_Source\PSoC4/micaCommon.c **** ********************************************************************************/
  18:Generated_Source\PSoC4/micaCommon.c **** #include "micaCommon.h"
  19:Generated_Source\PSoC4/micaCommon.c **** 
  20:Generated_Source\PSoC4/micaCommon.c **** /*******************************************************************************
  21:Generated_Source\PSoC4/micaCommon.c **** * Function Name: to_degrees()
  22:Generated_Source\PSoC4/micaCommon.c **** ****************************************************************************//**
  23:Generated_Source\PSoC4/micaCommon.c **** *
  24:Generated_Source\PSoC4/micaCommon.c **** * \brief Converts a radian argument to degrees
  25:Generated_Source\PSoC4/micaCommon.c **** *
  26:Generated_Source\PSoC4/micaCommon.c **** * \param radian - value to convert
  27:Generated_Source\PSoC4/micaCommon.c **** *
  28:Generated_Source\PSoC4/micaCommon.c **** * \return the angle in degrees
ARM GAS  C:\Users\ccheney\AppData\Local\Temp\cc56QWse.s 			page 2


  29:Generated_Source\PSoC4/micaCommon.c **** *
  30:Generated_Source\PSoC4/micaCommon.c **** *
  31:Generated_Source\PSoC4/micaCommon.c **** *******************************************************************************/
  32:Generated_Source\PSoC4/micaCommon.c **** inline float to_degrees(float radians){
  30              		.loc 1 32 0
  31              		.cfi_startproc
  32              		@ args = 0, pretend = 0, frame = 0
  33              		@ frame_needed = 0, uses_anonymous_args = 0
  34              	.LVL0:
  35 0000 10B5     		push	{r4, lr}
  36              		.cfi_def_cfa_offset 8
  37              		.cfi_offset 4, -8
  38              		.cfi_offset 14, -4
  33:Generated_Source\PSoC4/micaCommon.c ****     return radians * (180.0f) / PI;
  39              		.loc 1 33 0
  40 0002 0349     		ldr	r1, .L2
  41 0004 FFF7FEFF 		bl	__aeabi_fmul
  42              	.LVL1:
  43 0008 0249     		ldr	r1, .L2+4
  44 000a FFF7FEFF 		bl	__aeabi_fdiv
  45              	.LVL2:
  34:Generated_Source\PSoC4/micaCommon.c **** }
  46              		.loc 1 34 0
  47              		@ sp needed
  48 000e 10BD     		pop	{r4, pc}
  49              	.L3:
  50              		.align	2
  51              	.L2:
  52 0010 00003443 		.word	1127481344
  53 0014 DB0F4940 		.word	1078530011
  54              		.cfi_endproc
  55              	.LFE2:
  56              		.size	to_degrees, .-to_degrees
  57              		.section	.text.to_radians,"ax",%progbits
  58              		.align	2
  59              		.global	to_radians
  60              		.code	16
  61              		.thumb_func
  62              		.type	to_radians, %function
  63              	to_radians:
  64              	.LFB3:
  35:Generated_Source\PSoC4/micaCommon.c **** /*******************************************************************************
  36:Generated_Source\PSoC4/micaCommon.c **** * Function Name: to_radians()
  37:Generated_Source\PSoC4/micaCommon.c **** ****************************************************************************//**
  38:Generated_Source\PSoC4/micaCommon.c **** *
  39:Generated_Source\PSoC4/micaCommon.c **** * \brief Converts a degree argument to radians
  40:Generated_Source\PSoC4/micaCommon.c **** *
  41:Generated_Source\PSoC4/micaCommon.c **** * \param degrees - value to convert, in degrees
  42:Generated_Source\PSoC4/micaCommon.c **** *
  43:Generated_Source\PSoC4/micaCommon.c **** * \return the angle in radians
  44:Generated_Source\PSoC4/micaCommon.c **** *
  45:Generated_Source\PSoC4/micaCommon.c **** *
  46:Generated_Source\PSoC4/micaCommon.c **** *******************************************************************************/
  47:Generated_Source\PSoC4/micaCommon.c **** inline float to_radians(float degrees){
  65              		.loc 1 47 0
  66              		.cfi_startproc
  67              		@ args = 0, pretend = 0, frame = 0
ARM GAS  C:\Users\ccheney\AppData\Local\Temp\cc56QWse.s 			page 3


  68              		@ frame_needed = 0, uses_anonymous_args = 0
  69              	.LVL3:
  70 0000 10B5     		push	{r4, lr}
  71              		.cfi_def_cfa_offset 8
  72              		.cfi_offset 4, -8
  73              		.cfi_offset 14, -4
  48:Generated_Source\PSoC4/micaCommon.c ****     return degrees *  PI / (180.0f);
  74              		.loc 1 48 0
  75 0002 0349     		ldr	r1, .L5
  76 0004 FFF7FEFF 		bl	__aeabi_fmul
  77              	.LVL4:
  78 0008 0249     		ldr	r1, .L5+4
  79 000a FFF7FEFF 		bl	__aeabi_fdiv
  80              	.LVL5:
  49:Generated_Source\PSoC4/micaCommon.c **** }
  81              		.loc 1 49 0
  82              		@ sp needed
  83 000e 10BD     		pop	{r4, pc}
  84              	.L6:
  85              		.align	2
  86              	.L5:
  87 0010 DB0F4940 		.word	1078530011
  88 0014 00003443 		.word	1127481344
  89              		.cfi_endproc
  90              	.LFE3:
  91              		.size	to_radians, .-to_radians
  92              		.text
  93              	.Letext0: