ARM GAS  C:\Users\ccheney\AppData\Local\Temp\ccXSPb4q.s 			page 1


   1              		.syntax unified
   2              		.cpu cortex-m0
   3              		.fpu softvfp
   4              		.eabi_attribute 20, 1
   5              		.eabi_attribute 21, 1
   6              		.eabi_attribute 23, 3
   7              		.eabi_attribute 24, 1
   8              		.eabi_attribute 25, 1
   9              		.eabi_attribute 26, 1
  10              		.eabi_attribute 30, 1
  11              		.eabi_attribute 34, 0
  12              		.eabi_attribute 18, 4
  13              		.thumb
  14              		.syntax unified
  15              		.file	"packets.c"
  16              		.text
  17              	.Ltext0:
  18              		.cfi_sections	.debug_frame
  19              		.section	.text.packets_initialize,"ax",%progbits
  20              		.align	2
  21              		.global	packets_initialize
  22              		.code	16
  23              		.thumb_func
  24              		.type	packets_initialize, %function
  25              	packets_initialize:
  26              	.LFB2:
  27              		.file 1 "Generated_Source\\PSoC4\\packets.c"
   1:Generated_Source\PSoC4/packets.c **** /***************************************************************************
   2:Generated_Source\PSoC4/packets.c **** *                                       MICA
   3:Generated_Source\PSoC4/packets.c **** * File: packets.c
   4:Generated_Source\PSoC4/packets.c **** * Workspace: micaComponents
   5:Generated_Source\PSoC4/packets.c **** * Project Name: libMica
   6:Generated_Source\PSoC4/packets.c **** * Version: v1.4
   7:Generated_Source\PSoC4/packets.c **** * Author: Craig Cheney
   8:Generated_Source\PSoC4/packets.c **** *
   9:Generated_Source\PSoC4/packets.c **** * Brief:
  10:Generated_Source\PSoC4/packets.c **** *   Binary packet specification for MICA
  11:Generated_Source\PSoC4/packets.c **** * 
  12:Generated_Source\PSoC4/packets.c **** * Authors:
  13:Generated_Source\PSoC4/packets.c **** *   Craig Cheney
  14:Generated_Source\PSoC4/packets.c **** *
  15:Generated_Source\PSoC4/packets.c **** * Change Log:
  16:Generated_Source\PSoC4/packets.c **** *   2018.09.17 CC - Document created
  17:Generated_Source\PSoC4/packets.c **** ********************************************************************************/
  18:Generated_Source\PSoC4/packets.c **** #include "packets.h"
  19:Generated_Source\PSoC4/packets.c **** #include "micaCommon.h"
  20:Generated_Source\PSoC4/packets.c **** #include <stdlib.h>
  21:Generated_Source\PSoC4/packets.c **** 
  22:Generated_Source\PSoC4/packets.c **** 
  23:Generated_Source\PSoC4/packets.c **** /*******************************************************************************
  24:Generated_Source\PSoC4/packets.c **** * Function Name: packets_initialize()
  25:Generated_Source\PSoC4/packets.c **** ****************************************************************************//**
  26:Generated_Source\PSoC4/packets.c **** * \brief
  27:Generated_Source\PSoC4/packets.c **** *  Initializes the packet structure to default values
  28:Generated_Source\PSoC4/packets.c **** *
  29:Generated_Source\PSoC4/packets.c **** * \param buffer
  30:Generated_Source\PSoC4/packets.c **** *   Pointer to the packet to be initialized. 
ARM GAS  C:\Users\ccheney\AppData\Local\Temp\ccXSPb4q.s 			page 2


  31:Generated_Source\PSoC4/packets.c **** *
  32:Generated_Source\PSoC4/packets.c **** * \return
  33:Generated_Source\PSoC4/packets.c **** *  A number indicating the error code
  34:Generated_Source\PSoC4/packets.c **** *  Errors codes                             | Description
  35:Generated_Source\PSoC4/packets.c **** *   ------------                            | -----------
  36:Generated_Source\PSoC4/packets.c **** *   packets_ERR_SUCCESS            | On Successful init
  37:Generated_Source\PSoC4/packets.c **** *******************************************************************************/
  38:Generated_Source\PSoC4/packets.c **** uint32_t packets_initialize(packets_BUFFER_FULL_S *packetBuffer) {
  28              		.loc 1 38 0
  29              		.cfi_startproc
  30              		@ args = 0, pretend = 0, frame = 0
  31              		@ frame_needed = 0, uses_anonymous_args = 0
  32              	.LVL0:
  33 0000 10B5     		push	{r4, lr}
  34              		.cfi_def_cfa_offset 8
  35              		.cfi_offset 4, -8
  36              		.cfi_offset 14, -4
  37 0002 0400     		movs	r4, r0
  39:Generated_Source\PSoC4/packets.c ****     /* Set everything to zero */
  40:Generated_Source\PSoC4/packets.c ****     memset(packetBuffer, ZERO, sizeof(packets_BUFFER_FULL_S ));
  38              		.loc 1 40 0
  39 0004 6022     		movs	r2, #96
  40 0006 0021     		movs	r1, #0
  41 0008 FFF7FEFF 		bl	memset
  42              	.LVL1:
  41:Generated_Source\PSoC4/packets.c ****     /* Reset the state */ 
  42:Generated_Source\PSoC4/packets.c ****     packetBuffer->receive.bufferState = packets_BUFFER_RECEIVE_WAIT_FOR_START;
  43              		.loc 1 42 0
  44 000c 0023     		movs	r3, #0
  45 000e 4422     		movs	r2, #68
  46 0010 A354     		strb	r3, [r4, r2]
  43:Generated_Source\PSoC4/packets.c ****     /* Reset the tx state */
  44:Generated_Source\PSoC4/packets.c ****     packetBuffer->send.bufferState = packets_BUFFER_SEND_WAIT;
  47              		.loc 1 44 0
  48 0012 243A     		subs	r2, r2, #36
  49 0014 A354     		strb	r3, [r4, r2]
  45:Generated_Source\PSoC4/packets.c ****     return packets_ERR_SUCCESS;
  46:Generated_Source\PSoC4/packets.c **** }
  50              		.loc 1 46 0
  51 0016 0020     		movs	r0, #0
  52              		@ sp needed
  53              	.LVL2:
  54 0018 10BD     		pop	{r4, pc}
  55              		.cfi_endproc
  56              	.LFE2:
  57              		.size	packets_initialize, .-packets_initialize
  58 001a C046     		.section	.text.packets_generateBuffers,"ax",%progbits
  59              		.align	2
  60              		.global	packets_generateBuffers
  61              		.code	16
  62              		.thumb_func
  63              		.type	packets_generateBuffers, %function
  64              	packets_generateBuffers:
  65              	.LFB3:
  47:Generated_Source\PSoC4/packets.c **** 
  48:Generated_Source\PSoC4/packets.c **** /*******************************************************************************
  49:Generated_Source\PSoC4/packets.c **** * Function Name: packets_generateBuffers()
ARM GAS  C:\Users\ccheney\AppData\Local\Temp\ccXSPb4q.s 			page 3


  50:Generated_Source\PSoC4/packets.c **** ****************************************************************************//**
  51:Generated_Source\PSoC4/packets.c **** * \brief
  52:Generated_Source\PSoC4/packets.c **** *  Allocates memory for a new packet buffer
  53:Generated_Source\PSoC4/packets.c **** *
  54:Generated_Source\PSoC4/packets.c **** * \param buffer
  55:Generated_Source\PSoC4/packets.c **** *   Pointer to the packet to be initialized. 
  56:Generated_Source\PSoC4/packets.c **** *
  57:Generated_Source\PSoC4/packets.c **** * \return
  58:Generated_Source\PSoC4/packets.c **** *  A number indicating the error code
  59:Generated_Source\PSoC4/packets.c **** *  Errors codes                             | Description
  60:Generated_Source\PSoC4/packets.c **** *   ------------                            | -----------
  61:Generated_Source\PSoC4/packets.c **** *   packets_ERR_SUCCESS            | On Successful init
  62:Generated_Source\PSoC4/packets.c **** *******************************************************************************/
  63:Generated_Source\PSoC4/packets.c **** uint32_t packets_generateBuffers(packets_BUFFER_FULL_S *packetBuffer, uint16_t bufferSize) {
  66              		.loc 1 63 0
  67              		.cfi_startproc
  68              		@ args = 0, pretend = 0, frame = 0
  69              		@ frame_needed = 0, uses_anonymous_args = 0
  70              	.LVL3:
  71 0000 F8B5     		push	{r3, r4, r5, r6, r7, lr}
  72              		.cfi_def_cfa_offset 24
  73              		.cfi_offset 3, -24
  74              		.cfi_offset 4, -20
  75              		.cfi_offset 5, -16
  76              		.cfi_offset 6, -12
  77              		.cfi_offset 7, -8
  78              		.cfi_offset 14, -4
  79 0002 4F46     		mov	r7, r9
  80 0004 4646     		mov	r6, r8
  81 0006 C0B4     		push	{r6, r7}
  82              		.cfi_def_cfa_offset 32
  83              		.cfi_offset 8, -32
  84              		.cfi_offset 9, -28
  85 0008 0400     		movs	r4, r0
  86 000a 0E00     		movs	r6, r1
  87              	.LVL4:
  64:Generated_Source\PSoC4/packets.c ****     uint32_t error = packets_ERR_SUCCESS;
  65:Generated_Source\PSoC4/packets.c ****     /* Local References */
  66:Generated_Source\PSoC4/packets.c ****     packets_BUFFER_PROCESS_S* rxBuffer = &(packetBuffer->receive.processBuffer);
  67:Generated_Source\PSoC4/packets.c ****     packets_BUFFER_PROCESS_S* txBuffer = &(packetBuffer->send.processBuffer);
  68:Generated_Source\PSoC4/packets.c ****     uint8_t* rxPayload = packetBuffer->receive.packet.payload;
  88              		.loc 1 68 0
  89 000c 836A     		ldr	r3, [r0, #40]
  90              	.LVL5:
  69:Generated_Source\PSoC4/packets.c ****     uint8_t* txPayload = packetBuffer->send.packet.payload;
  91              		.loc 1 69 0
  92 000e 4268     		ldr	r2, [r0, #4]
  93              	.LVL6:
  70:Generated_Source\PSoC4/packets.c ****     
  71:Generated_Source\PSoC4/packets.c ****     /* Make sure that buffers have not already been allocated */
  72:Generated_Source\PSoC4/packets.c ****     if(rxBuffer->buffer != NULL || txBuffer->buffer != NULL || rxPayload != NULL || txPayload != NU
  94              		.loc 1 72 0
  95 0010 816B     		ldr	r1, [r0, #56]
  96              	.LVL7:
  97 0012 0029     		cmp	r1, #0
  98 0014 08D1     		bne	.L13
  99              		.loc 1 72 0 is_stmt 0 discriminator 1
ARM GAS  C:\Users\ccheney\AppData\Local\Temp\ccXSPb4q.s 			page 4


 100 0016 4169     		ldr	r1, [r0, #20]
 101 0018 0029     		cmp	r1, #0
 102 001a 08D1     		bne	.L14
 103              		.loc 1 72 0 discriminator 2
 104 001c 002B     		cmp	r3, #0
 105 001e 09D1     		bne	.L15
 106              		.loc 1 72 0 discriminator 3
 107 0020 002A     		cmp	r2, #0
 108 0022 0AD1     		bne	.L16
  64:Generated_Source\PSoC4/packets.c ****     /* Local References */
 109              		.loc 1 64 0 is_stmt 1
 110 0024 0025     		movs	r5, #0
 111 0026 0AE0     		b	.L3
 112              	.L13:
  73:Generated_Source\PSoC4/packets.c ****         error |= packets_ERR_STATE;
 113              		.loc 1 73 0
 114 0028 8025     		movs	r5, #128
 115 002a ED00     		lsls	r5, r5, #3
 116 002c 07E0     		b	.L3
 117              	.L14:
 118 002e 8025     		movs	r5, #128
 119 0030 ED00     		lsls	r5, r5, #3
 120 0032 04E0     		b	.L3
 121              	.L15:
 122 0034 8025     		movs	r5, #128
 123 0036 ED00     		lsls	r5, r5, #3
 124 0038 01E0     		b	.L3
 125              	.L16:
 126 003a 8025     		movs	r5, #128
 127 003c ED00     		lsls	r5, r5, #3
 128              	.L3:
 129              	.LVL8:
  74:Generated_Source\PSoC4/packets.c ****     }
  75:Generated_Source\PSoC4/packets.c **** 
  76:Generated_Source\PSoC4/packets.c ****     if(!error) {
 130              		.loc 1 76 0
 131 003e 002D     		cmp	r5, #0
 132 0040 40D1     		bne	.L4
 133              	.LBB2:
  77:Generated_Source\PSoC4/packets.c ****         /* Create receive process buffer */
  78:Generated_Source\PSoC4/packets.c ****         uint8* processRxBufferAdr = (uint8 *) calloc(ONE, bufferSize);
 134              		.loc 1 78 0
 135 0042 3100     		movs	r1, r6
 136 0044 0120     		movs	r0, #1
 137              	.LVL9:
 138 0046 FFF7FEFF 		bl	calloc
 139              	.LVL10:
 140 004a 071E     		subs	r7, r0, #0
 141              	.LVL11:
  79:Generated_Source\PSoC4/packets.c ****         if(processRxBufferAdr == NULL){
 142              		.loc 1 79 0
 143 004c 02D1     		bne	.L5
  80:Generated_Source\PSoC4/packets.c ****             error |= packets_ERR_MEMORY; 
 144              		.loc 1 80 0
 145 004e 0123     		movs	r3, #1
 146 0050 1D43     		orrs	r5, r3
 147              	.LVL12:
ARM GAS  C:\Users\ccheney\AppData\Local\Temp\ccXSPb4q.s 			page 5


  81:Generated_Source\PSoC4/packets.c ****             /* Do not try to allocate again */
  82:Generated_Source\PSoC4/packets.c ****             goto packets_clean1;
 148              		.loc 1 82 0
 149 0052 34E0     		b	.L6
 150              	.L5:
  83:Generated_Source\PSoC4/packets.c ****         }
  84:Generated_Source\PSoC4/packets.c ****         packetBuffer->receive.processBuffer.buffer = processRxBufferAdr;
 151              		.loc 1 84 0
 152 0054 A063     		str	r0, [r4, #56]
  85:Generated_Source\PSoC4/packets.c ****         packetBuffer->receive.processBuffer.bufferLen = bufferSize;
 153              		.loc 1 85 0
 154 0056 A687     		strh	r6, [r4, #60]
  86:Generated_Source\PSoC4/packets.c **** 
  87:Generated_Source\PSoC4/packets.c ****         /* Create Send process buffer */
  88:Generated_Source\PSoC4/packets.c ****         uint8* processTxBufferAdr = (uint8 *) calloc(ONE, bufferSize);
 155              		.loc 1 88 0
 156 0058 3100     		movs	r1, r6
 157 005a 0120     		movs	r0, #1
 158              	.LVL13:
 159 005c FFF7FEFF 		bl	calloc
 160              	.LVL14:
 161 0060 8046     		mov	r8, r0
 162              	.LVL15:
  89:Generated_Source\PSoC4/packets.c ****         if(processTxBufferAdr == NULL){
 163              		.loc 1 89 0
 164 0062 031E     		subs	r3, r0, #0
 165 0064 02D1     		bne	.L7
  90:Generated_Source\PSoC4/packets.c ****             error |= packets_ERR_MEMORY; 
 166              		.loc 1 90 0
 167 0066 0133     		adds	r3, r3, #1
 168 0068 1D43     		orrs	r5, r3
 169              	.LVL16:
  91:Generated_Source\PSoC4/packets.c ****             goto packets_clean2;
 170              		.loc 1 91 0
 171 006a 25E0     		b	.L8
 172              	.L7:
  92:Generated_Source\PSoC4/packets.c ****         }
  93:Generated_Source\PSoC4/packets.c ****         packetBuffer->send.processBuffer.buffer = processTxBufferAdr;
 173              		.loc 1 93 0
 174 006c 6061     		str	r0, [r4, #20]
  94:Generated_Source\PSoC4/packets.c ****         packetBuffer->send.processBuffer.bufferLen = bufferSize;
 175              		.loc 1 94 0
 176 006e 2683     		strh	r6, [r4, #24]
  95:Generated_Source\PSoC4/packets.c ****         
  96:Generated_Source\PSoC4/packets.c ****         /*  Create the rxPayload */
  97:Generated_Source\PSoC4/packets.c ****         uint8* rxPayloadAdr = (uint8 *) calloc(ONE, bufferSize);
 177              		.loc 1 97 0
 178 0070 3100     		movs	r1, r6
 179 0072 0120     		movs	r0, #1
 180              	.LVL17:
 181 0074 FFF7FEFF 		bl	calloc
 182              	.LVL18:
 183 0078 8146     		mov	r9, r0
 184              	.LVL19:
  98:Generated_Source\PSoC4/packets.c ****         if(rxPayloadAdr == NULL){
 185              		.loc 1 98 0
 186 007a 031E     		subs	r3, r0, #0
ARM GAS  C:\Users\ccheney\AppData\Local\Temp\ccXSPb4q.s 			page 6


 187 007c 02D1     		bne	.L9
  99:Generated_Source\PSoC4/packets.c ****             error |= packets_ERR_MEMORY; 
 188              		.loc 1 99 0
 189 007e 0133     		adds	r3, r3, #1
 190 0080 1D43     		orrs	r5, r3
 191              	.LVL20:
 100:Generated_Source\PSoC4/packets.c ****             goto packets_clean3;
 192              		.loc 1 100 0
 193 0082 16E0     		b	.L10
 194              	.L9:
 101:Generated_Source\PSoC4/packets.c ****         }
 102:Generated_Source\PSoC4/packets.c ****         packetBuffer->receive.packet.payload = rxPayloadAdr;
 195              		.loc 1 102 0
 196 0084 A062     		str	r0, [r4, #40]
 103:Generated_Source\PSoC4/packets.c ****         packetBuffer->receive.packet.payloadMax = bufferSize;
 197              		.loc 1 103 0
 198 0086 A685     		strh	r6, [r4, #44]
 104:Generated_Source\PSoC4/packets.c ****         packetBuffer->receive.bufferState = packets_BUFFER_RECEIVE_WAIT_FOR_START;
 199              		.loc 1 104 0
 200 0088 0022     		movs	r2, #0
 201 008a 4423     		movs	r3, #68
 202 008c E254     		strb	r2, [r4, r3]
 105:Generated_Source\PSoC4/packets.c ****         
 106:Generated_Source\PSoC4/packets.c ****         /*  Create the txPayload */
 107:Generated_Source\PSoC4/packets.c ****         uint8* txPayloadAdr = (uint8 *) calloc(ONE, bufferSize);
 203              		.loc 1 107 0
 204 008e 3100     		movs	r1, r6
 205 0090 0120     		movs	r0, #1
 206              	.LVL21:
 207 0092 FFF7FEFF 		bl	calloc
 208              	.LVL22:
 108:Generated_Source\PSoC4/packets.c ****         if(txPayloadAdr == NULL){
 209              		.loc 1 108 0
 210 0096 0028     		cmp	r0, #0
 211 0098 02D1     		bne	.L11
 109:Generated_Source\PSoC4/packets.c ****             error |= packets_ERR_MEMORY; 
 212              		.loc 1 109 0
 213 009a 0123     		movs	r3, #1
 214 009c 1D43     		orrs	r5, r3
 215              	.LVL23:
 110:Generated_Source\PSoC4/packets.c ****             goto packets_clean4;
 216              		.loc 1 110 0
 217 009e 06E0     		b	.L12
 218              	.L11:
 111:Generated_Source\PSoC4/packets.c ****         }
 112:Generated_Source\PSoC4/packets.c ****         packetBuffer->send.packet.payload = txPayloadAdr;
 219              		.loc 1 112 0
 220 00a0 6060     		str	r0, [r4, #4]
 113:Generated_Source\PSoC4/packets.c ****         packetBuffer->send.packet.payloadMax = bufferSize;
 221              		.loc 1 113 0
 222 00a2 2681     		strh	r6, [r4, #8]
 114:Generated_Source\PSoC4/packets.c ****         packetBuffer->send.bufferState = packets_BUFFER_SEND_WAIT;
 223              		.loc 1 114 0
 224 00a4 0022     		movs	r2, #0
 225 00a6 2023     		movs	r3, #32
 226 00a8 E254     		strb	r2, [r4, r3]
 115:Generated_Source\PSoC4/packets.c **** 
ARM GAS  C:\Users\ccheney\AppData\Local\Temp\ccXSPb4q.s 			page 7


 116:Generated_Source\PSoC4/packets.c ****         /* Clean up on error */
 117:Generated_Source\PSoC4/packets.c ****         if(error) {  
 227              		.loc 1 117 0
 228 00aa 002D     		cmp	r5, #0
 229 00ac 0AD0     		beq	.L4
 230              	.L12:
 118:Generated_Source\PSoC4/packets.c **** packets_clean4:
 119:Generated_Source\PSoC4/packets.c ****             free(txPayloadAdr);      
 231              		.loc 1 119 0
 232 00ae FFF7FEFF 		bl	free
 233              	.LVL24:
 234              	.L10:
 120:Generated_Source\PSoC4/packets.c **** packets_clean3:
 121:Generated_Source\PSoC4/packets.c ****             free(rxPayloadAdr);
 235              		.loc 1 121 0
 236 00b2 4846     		mov	r0, r9
 237 00b4 FFF7FEFF 		bl	free
 238              	.LVL25:
 239              	.L8:
 122:Generated_Source\PSoC4/packets.c **** packets_clean2:
 123:Generated_Source\PSoC4/packets.c ****             free(processTxBufferAdr);
 240              		.loc 1 123 0
 241 00b8 4046     		mov	r0, r8
 242 00ba FFF7FEFF 		bl	free
 243              	.LVL26:
 244              	.L6:
 124:Generated_Source\PSoC4/packets.c **** packets_clean1:
 125:Generated_Source\PSoC4/packets.c ****             free(processRxBufferAdr);
 245              		.loc 1 125 0
 246 00be 3800     		movs	r0, r7
 247 00c0 FFF7FEFF 		bl	free
 248              	.LVL27:
 249              	.L4:
 250              	.LBE2:
 126:Generated_Source\PSoC4/packets.c ****         }
 127:Generated_Source\PSoC4/packets.c ****     }
 128:Generated_Source\PSoC4/packets.c ****     /* return error flags */
 129:Generated_Source\PSoC4/packets.c ****     return error;
 130:Generated_Source\PSoC4/packets.c **** }
 251              		.loc 1 130 0
 252 00c4 2800     		movs	r0, r5
 253              		@ sp needed
 254              	.LVL28:
 255              	.LVL29:
 256 00c6 0CBC     		pop	{r2, r3}
 257 00c8 9046     		mov	r8, r2
 258 00ca 9946     		mov	r9, r3
 259 00cc F8BD     		pop	{r3, r4, r5, r6, r7, pc}
 260              		.cfi_endproc
 261              	.LFE3:
 262              		.size	packets_generateBuffers, .-packets_generateBuffers
 263 00ce C046     		.section	.text.packets_destoryBuffers,"ax",%progbits
 264              		.align	2
 265              		.global	packets_destoryBuffers
 266              		.code	16
 267              		.thumb_func
 268              		.type	packets_destoryBuffers, %function
ARM GAS  C:\Users\ccheney\AppData\Local\Temp\ccXSPb4q.s 			page 8


 269              	packets_destoryBuffers:
 270              	.LFB4:
 131:Generated_Source\PSoC4/packets.c **** 
 132:Generated_Source\PSoC4/packets.c **** /*******************************************************************************
 133:Generated_Source\PSoC4/packets.c **** * Function Name: packets_destoryBuffers()
 134:Generated_Source\PSoC4/packets.c **** ****************************************************************************//**
 135:Generated_Source\PSoC4/packets.c **** * \brief
 136:Generated_Source\PSoC4/packets.c **** *  Deallocates memory from a packet
 137:Generated_Source\PSoC4/packets.c **** *
 138:Generated_Source\PSoC4/packets.c **** * \param buffer
 139:Generated_Source\PSoC4/packets.c **** *   Pointer to the packet to be initialized. 
 140:Generated_Source\PSoC4/packets.c **** *
 141:Generated_Source\PSoC4/packets.c **** * \return
 142:Generated_Source\PSoC4/packets.c **** *  A number indicating the error code
 143:Generated_Source\PSoC4/packets.c **** *  Errors codes                             | Description
 144:Generated_Source\PSoC4/packets.c **** *   ------------                            | -----------
 145:Generated_Source\PSoC4/packets.c **** *   packets_ERR_SUCCESS            | On Successful init
 146:Generated_Source\PSoC4/packets.c **** *******************************************************************************/
 147:Generated_Source\PSoC4/packets.c **** uint32_t packets_destoryBuffers(packets_BUFFER_FULL_S *buffer) {
 271              		.loc 1 147 0
 272              		.cfi_startproc
 273              		@ args = 0, pretend = 0, frame = 0
 274              		@ frame_needed = 0, uses_anonymous_args = 0
 275              	.LVL30:
 276 0000 70B5     		push	{r4, r5, r6, lr}
 277              		.cfi_def_cfa_offset 16
 278              		.cfi_offset 4, -16
 279              		.cfi_offset 5, -12
 280              		.cfi_offset 6, -8
 281              		.cfi_offset 14, -4
 282 0002 0400     		movs	r4, r0
 283              	.LVL31:
 148:Generated_Source\PSoC4/packets.c ****     uint32_t error = packets_ERR_SUCCESS;
 149:Generated_Source\PSoC4/packets.c ****     /* Free the Send process buffer is it exists */
 150:Generated_Source\PSoC4/packets.c ****     if(buffer->send.processBuffer.buffer != NULL){ 
 284              		.loc 1 150 0
 285 0004 4069     		ldr	r0, [r0, #20]
 286              	.LVL32:
 287 0006 0028     		cmp	r0, #0
 288 0008 08D0     		beq	.L25
 151:Generated_Source\PSoC4/packets.c ****         free(buffer->send.processBuffer.buffer);   
 289              		.loc 1 151 0
 290 000a FFF7FEFF 		bl	free
 291              	.LVL33:
 152:Generated_Source\PSoC4/packets.c ****         buffer->send.processBuffer.buffer = NULL;
 292              		.loc 1 152 0
 293 000e 0023     		movs	r3, #0
 294 0010 6361     		str	r3, [r4, #20]
 153:Generated_Source\PSoC4/packets.c ****         buffer->send.processBuffer.bufferLen = ZERO;
 295              		.loc 1 153 0
 296 0012 2383     		strh	r3, [r4, #24]
 154:Generated_Source\PSoC4/packets.c ****         buffer->send.processBuffer.bufferIndex = ZERO;
 297              		.loc 1 154 0
 298 0014 6383     		strh	r3, [r4, #26]
 155:Generated_Source\PSoC4/packets.c ****         buffer->send.processBuffer.timeCount = ZERO;
 299              		.loc 1 155 0
 300 0016 E361     		str	r3, [r4, #28]
ARM GAS  C:\Users\ccheney\AppData\Local\Temp\ccXSPb4q.s 			page 9


 148:Generated_Source\PSoC4/packets.c ****     /* Free the Send process buffer is it exists */
 301              		.loc 1 148 0
 302 0018 0025     		movs	r5, #0
 303 001a 00E0     		b	.L18
 304              	.L25:
 156:Generated_Source\PSoC4/packets.c ****     } else {
 157:Generated_Source\PSoC4/packets.c ****         error |= packets_ERR_MEMORY;
 305              		.loc 1 157 0
 306 001c 0125     		movs	r5, #1
 307              	.L18:
 308              	.LVL34:
 158:Generated_Source\PSoC4/packets.c ****     }
 159:Generated_Source\PSoC4/packets.c ****     /* Free the receive process buffer is it exists */
 160:Generated_Source\PSoC4/packets.c ****     if(buffer->receive.processBuffer.buffer != NULL){ 
 309              		.loc 1 160 0
 310 001e A06B     		ldr	r0, [r4, #56]
 311 0020 0028     		cmp	r0, #0
 312 0022 07D0     		beq	.L19
 161:Generated_Source\PSoC4/packets.c ****         free(buffer->receive.processBuffer.buffer);   
 313              		.loc 1 161 0
 314 0024 FFF7FEFF 		bl	free
 315              	.LVL35:
 162:Generated_Source\PSoC4/packets.c ****         buffer->receive.processBuffer.buffer = NULL;
 316              		.loc 1 162 0
 317 0028 0023     		movs	r3, #0
 318 002a A363     		str	r3, [r4, #56]
 163:Generated_Source\PSoC4/packets.c ****         buffer->receive.processBuffer.bufferLen = ZERO;
 319              		.loc 1 163 0
 320 002c A387     		strh	r3, [r4, #60]
 164:Generated_Source\PSoC4/packets.c ****         buffer->receive.processBuffer.bufferIndex = ZERO;
 321              		.loc 1 164 0
 322 002e E387     		strh	r3, [r4, #62]
 165:Generated_Source\PSoC4/packets.c ****         buffer->receive.processBuffer.timeCount = ZERO;
 323              		.loc 1 165 0
 324 0030 2364     		str	r3, [r4, #64]
 325 0032 01E0     		b	.L20
 326              	.L19:
 166:Generated_Source\PSoC4/packets.c ****     } else {
 167:Generated_Source\PSoC4/packets.c ****         error |= packets_ERR_MEMORY;
 327              		.loc 1 167 0
 328 0034 0123     		movs	r3, #1
 329 0036 1D43     		orrs	r5, r3
 330              	.LVL36:
 331              	.L20:
 168:Generated_Source\PSoC4/packets.c ****     }
 169:Generated_Source\PSoC4/packets.c ****     /* Free the receive payload buffer is it exists */
 170:Generated_Source\PSoC4/packets.c ****     if(buffer->receive.packet.payload != NULL) { 
 332              		.loc 1 170 0
 333 0038 A06A     		ldr	r0, [r4, #40]
 334 003a 0028     		cmp	r0, #0
 335 003c 06D0     		beq	.L21
 171:Generated_Source\PSoC4/packets.c ****         free(buffer->receive.packet.payload);   
 336              		.loc 1 171 0
 337 003e FFF7FEFF 		bl	free
 338              	.LVL37:
 172:Generated_Source\PSoC4/packets.c ****         buffer->receive.packet.payload = NULL;
 339              		.loc 1 172 0
ARM GAS  C:\Users\ccheney\AppData\Local\Temp\ccXSPb4q.s 			page 10


 340 0042 0023     		movs	r3, #0
 341 0044 A362     		str	r3, [r4, #40]
 173:Generated_Source\PSoC4/packets.c ****         buffer->receive.packet.payloadMax = ZERO;
 342              		.loc 1 173 0
 343 0046 A385     		strh	r3, [r4, #44]
 174:Generated_Source\PSoC4/packets.c ****         buffer->receive.packet.payloadLen = ZERO;
 344              		.loc 1 174 0
 345 0048 E385     		strh	r3, [r4, #46]
 346 004a 01E0     		b	.L22
 347              	.L21:
 175:Generated_Source\PSoC4/packets.c ****     } else {
 176:Generated_Source\PSoC4/packets.c ****         error |= packets_ERR_MEMORY;
 348              		.loc 1 176 0
 349 004c 0123     		movs	r3, #1
 350 004e 1D43     		orrs	r5, r3
 351              	.LVL38:
 352              	.L22:
 177:Generated_Source\PSoC4/packets.c ****     }
 178:Generated_Source\PSoC4/packets.c ****     /* Free the send payload buffer is it exists */
 179:Generated_Source\PSoC4/packets.c ****     if(buffer->send.packet.payload != NULL) { 
 353              		.loc 1 179 0
 354 0050 6068     		ldr	r0, [r4, #4]
 355 0052 0028     		cmp	r0, #0
 356 0054 06D0     		beq	.L23
 180:Generated_Source\PSoC4/packets.c ****         free(buffer->send.packet.payload);   
 357              		.loc 1 180 0
 358 0056 FFF7FEFF 		bl	free
 359              	.LVL39:
 181:Generated_Source\PSoC4/packets.c ****         buffer->send.packet.payload = NULL;
 360              		.loc 1 181 0
 361 005a 0023     		movs	r3, #0
 362 005c 6360     		str	r3, [r4, #4]
 182:Generated_Source\PSoC4/packets.c ****         buffer->send.packet.payloadMax = ZERO;
 363              		.loc 1 182 0
 364 005e 2381     		strh	r3, [r4, #8]
 183:Generated_Source\PSoC4/packets.c ****         buffer->send.packet.payloadLen = ZERO;
 365              		.loc 1 183 0
 366 0060 6381     		strh	r3, [r4, #10]
 367 0062 01E0     		b	.L24
 368              	.L23:
 184:Generated_Source\PSoC4/packets.c ****     } else {
 185:Generated_Source\PSoC4/packets.c ****         error |= packets_ERR_MEMORY;
 369              		.loc 1 185 0
 370 0064 0123     		movs	r3, #1
 371 0066 1D43     		orrs	r5, r3
 372              	.LVL40:
 373              	.L24:
 186:Generated_Source\PSoC4/packets.c ****     }
 187:Generated_Source\PSoC4/packets.c ****     /* Return error */
 188:Generated_Source\PSoC4/packets.c ****     return error;
 189:Generated_Source\PSoC4/packets.c **** }
 374              		.loc 1 189 0
 375 0068 2800     		movs	r0, r5
 376              		@ sp needed
 377              	.LVL41:
 378              	.LVL42:
 379 006a 70BD     		pop	{r4, r5, r6, pc}
ARM GAS  C:\Users\ccheney\AppData\Local\Temp\ccXSPb4q.s 			page 11


 380              		.cfi_endproc
 381              	.LFE4:
 382              		.size	packets_destoryBuffers, .-packets_destoryBuffers
 383              		.section	.text.packets_flushRxBuffers,"ax",%progbits
 384              		.align	2
 385              		.global	packets_flushRxBuffers
 386              		.code	16
 387              		.thumb_func
 388              		.type	packets_flushRxBuffers, %function
 389              	packets_flushRxBuffers:
 390              	.LFB5:
 190:Generated_Source\PSoC4/packets.c **** 
 191:Generated_Source\PSoC4/packets.c **** 
 192:Generated_Source\PSoC4/packets.c **** /*******************************************************************************
 193:Generated_Source\PSoC4/packets.c **** * Function Name: packets_flushRxBuffers()
 194:Generated_Source\PSoC4/packets.c **** ****************************************************************************//**
 195:Generated_Source\PSoC4/packets.c **** * \brief
 196:Generated_Source\PSoC4/packets.c **** *  Flush the RX and TX process buffer
 197:Generated_Source\PSoC4/packets.c **** *
 198:Generated_Source\PSoC4/packets.c **** * \param buffer
 199:Generated_Source\PSoC4/packets.c **** *  Pointer to the full buffers
 200:Generated_Source\PSoC4/packets.c **** *
 201:Generated_Source\PSoC4/packets.c **** * \return
 202:Generated_Source\PSoC4/packets.c **** * A error code with the result of packing
 203:Generated_Source\PSoC4/packets.c **** *
 204:Generated_Source\PSoC4/packets.c **** *******************************************************************************/
 205:Generated_Source\PSoC4/packets.c **** void packets_flushRxBuffers(packets_BUFFER_FULL_S* buffer){
 391              		.loc 1 205 0
 392              		.cfi_startproc
 393              		@ args = 0, pretend = 0, frame = 0
 394              		@ frame_needed = 0, uses_anonymous_args = 0
 395              		@ link register save eliminated.
 396              	.LVL43:
 206:Generated_Source\PSoC4/packets.c ****     /* Reset RX buffers */
 207:Generated_Source\PSoC4/packets.c ****     buffer->receive.processBuffer.bufferIndex = ZERO;
 397              		.loc 1 207 0
 398 0000 0023     		movs	r3, #0
 399 0002 C387     		strh	r3, [r0, #62]
 208:Generated_Source\PSoC4/packets.c ****     buffer->receive.bufferState = packets_BUFFER_RECEIVE_WAIT_FOR_START;   
 400              		.loc 1 208 0
 401 0004 4433     		adds	r3, r3, #68
 402 0006 0022     		movs	r2, #0
 403 0008 C254     		strb	r2, [r0, r3]
 209:Generated_Source\PSoC4/packets.c **** }
 404              		.loc 1 209 0
 405              		@ sp needed
 406 000a 7047     		bx	lr
 407              		.cfi_endproc
 408              	.LFE5:
 409              		.size	packets_flushRxBuffers, .-packets_flushRxBuffers
 410              		.section	.text.packets_flushTxBuffers,"ax",%progbits
 411              		.align	2
 412              		.global	packets_flushTxBuffers
 413              		.code	16
 414              		.thumb_func
 415              		.type	packets_flushTxBuffers, %function
 416              	packets_flushTxBuffers:
ARM GAS  C:\Users\ccheney\AppData\Local\Temp\ccXSPb4q.s 			page 12


 417              	.LFB6:
 210:Generated_Source\PSoC4/packets.c **** 
 211:Generated_Source\PSoC4/packets.c **** 
 212:Generated_Source\PSoC4/packets.c **** /*******************************************************************************
 213:Generated_Source\PSoC4/packets.c **** * Function Name: packets_flushTxBuffers()
 214:Generated_Source\PSoC4/packets.c **** ****************************************************************************//**
 215:Generated_Source\PSoC4/packets.c **** * \brief
 216:Generated_Source\PSoC4/packets.c **** *  Flush the RX and TX process buffer
 217:Generated_Source\PSoC4/packets.c **** *
 218:Generated_Source\PSoC4/packets.c **** * \param buffer
 219:Generated_Source\PSoC4/packets.c **** *  Pointer to the full buffers
 220:Generated_Source\PSoC4/packets.c **** *
 221:Generated_Source\PSoC4/packets.c **** * \return
 222:Generated_Source\PSoC4/packets.c **** * A error code with the result of packing
 223:Generated_Source\PSoC4/packets.c **** *
 224:Generated_Source\PSoC4/packets.c **** *******************************************************************************/
 225:Generated_Source\PSoC4/packets.c **** void packets_flushTxBuffers(packets_BUFFER_FULL_S* buffer){
 418              		.loc 1 225 0
 419              		.cfi_startproc
 420              		@ args = 0, pretend = 0, frame = 0
 421              		@ frame_needed = 0, uses_anonymous_args = 0
 422              		@ link register save eliminated.
 423              	.LVL44:
 226:Generated_Source\PSoC4/packets.c ****      /* Reset TX buffers */
 227:Generated_Source\PSoC4/packets.c ****     buffer->send.processBuffer.bufferIndex = ZERO;
 424              		.loc 1 227 0
 425 0000 0023     		movs	r3, #0
 426 0002 4383     		strh	r3, [r0, #26]
 228:Generated_Source\PSoC4/packets.c ****     buffer->send.bufferState = packets_BUFFER_SEND_WAIT;
 427              		.loc 1 228 0
 428 0004 2033     		adds	r3, r3, #32
 429 0006 0022     		movs	r2, #0
 430 0008 C254     		strb	r2, [r0, r3]
 229:Generated_Source\PSoC4/packets.c **** }
 431              		.loc 1 229 0
 432              		@ sp needed
 433 000a 7047     		bx	lr
 434              		.cfi_endproc
 435              	.LFE6:
 436              		.size	packets_flushTxBuffers, .-packets_flushTxBuffers
 437              		.section	.text.packets_flushBuffers,"ax",%progbits
 438              		.align	2
 439              		.global	packets_flushBuffers
 440              		.code	16
 441              		.thumb_func
 442              		.type	packets_flushBuffers, %function
 443              	packets_flushBuffers:
 444              	.LFB7:
 230:Generated_Source\PSoC4/packets.c **** 
 231:Generated_Source\PSoC4/packets.c **** /*******************************************************************************
 232:Generated_Source\PSoC4/packets.c **** * Function Name: packets_flushBuffers()
 233:Generated_Source\PSoC4/packets.c **** ****************************************************************************//**
 234:Generated_Source\PSoC4/packets.c **** * \brief
 235:Generated_Source\PSoC4/packets.c **** *  Flush the RX and TX process buffer
 236:Generated_Source\PSoC4/packets.c **** *
 237:Generated_Source\PSoC4/packets.c **** * \param buffer
 238:Generated_Source\PSoC4/packets.c **** *  Pointer to the full buffers
ARM GAS  C:\Users\ccheney\AppData\Local\Temp\ccXSPb4q.s 			page 13


 239:Generated_Source\PSoC4/packets.c **** *
 240:Generated_Source\PSoC4/packets.c **** * \return
 241:Generated_Source\PSoC4/packets.c **** * A error code with the result of packing
 242:Generated_Source\PSoC4/packets.c **** *
 243:Generated_Source\PSoC4/packets.c **** *******************************************************************************/
 244:Generated_Source\PSoC4/packets.c **** void packets_flushBuffers(packets_BUFFER_FULL_S* buffer){
 445              		.loc 1 244 0
 446              		.cfi_startproc
 447              		@ args = 0, pretend = 0, frame = 0
 448              		@ frame_needed = 0, uses_anonymous_args = 0
 449              	.LVL45:
 450 0000 10B5     		push	{r4, lr}
 451              		.cfi_def_cfa_offset 8
 452              		.cfi_offset 4, -8
 453              		.cfi_offset 14, -4
 454 0002 0400     		movs	r4, r0
 245:Generated_Source\PSoC4/packets.c ****     packets_flushTxBuffers(buffer);
 455              		.loc 1 245 0
 456 0004 FFF7FEFF 		bl	packets_flushTxBuffers
 457              	.LVL46:
 246:Generated_Source\PSoC4/packets.c ****     packets_flushRxBuffers(buffer);
 458              		.loc 1 246 0
 459 0008 2000     		movs	r0, r4
 460 000a FFF7FEFF 		bl	packets_flushRxBuffers
 461              	.LVL47:
 247:Generated_Source\PSoC4/packets.c **** }
 462              		.loc 1 247 0
 463              		@ sp needed
 464              	.LVL48:
 465 000e 10BD     		pop	{r4, pc}
 466              		.cfi_endproc
 467              	.LFE7:
 468              		.size	packets_flushBuffers, .-packets_flushBuffers
 469              		.section	.text.packets_processRxByte,"ax",%progbits
 470              		.align	2
 471              		.global	packets_processRxByte
 472              		.code	16
 473              		.thumb_func
 474              		.type	packets_processRxByte, %function
 475              	packets_processRxByte:
 476              	.LFB10:
 248:Generated_Source\PSoC4/packets.c **** 
 249:Generated_Source\PSoC4/packets.c **** /*******************************************************************************
 250:Generated_Source\PSoC4/packets.c **** * Function Name: packets_constructPacket()
 251:Generated_Source\PSoC4/packets.c **** ****************************************************************************//**
 252:Generated_Source\PSoC4/packets.c **** * \brief
 253:Generated_Source\PSoC4/packets.c **** *  Pack the data in the TX packet to the TX processBuffer
 254:Generated_Source\PSoC4/packets.c **** *
 255:Generated_Source\PSoC4/packets.c **** * \param packet
 256:Generated_Source\PSoC4/packets.c **** *  Pointer to the packet to pack
 257:Generated_Source\PSoC4/packets.c **** *
 258:Generated_Source\PSoC4/packets.c **** *
 259:Generated_Source\PSoC4/packets.c **** * \return
 260:Generated_Source\PSoC4/packets.c **** * A error code with the result of packing
 261:Generated_Source\PSoC4/packets.c **** *
 262:Generated_Source\PSoC4/packets.c **** *******************************************************************************/
 263:Generated_Source\PSoC4/packets.c **** uint32_t packets_constructPacket(packets_BUFFER_FULL_S* buffer) {
ARM GAS  C:\Users\ccheney\AppData\Local\Temp\ccXSPb4q.s 			page 14


 264:Generated_Source\PSoC4/packets.c ****     uint32_t error = packets_ERR_SUCCESS;
 265:Generated_Source\PSoC4/packets.c ****     /* Create local references */
 266:Generated_Source\PSoC4/packets.c ****     packets_BUFFER_PROCESS_S* txBuffer = &(buffer->send.processBuffer);
 267:Generated_Source\PSoC4/packets.c ****     packets_BUFFER_STATE_SEND_T* bufferState = &(buffer->send.bufferState);
 268:Generated_Source\PSoC4/packets.c ****     packets_PACKET_S* packet = &(buffer->send.packet);
 269:Generated_Source\PSoC4/packets.c ****     
 270:Generated_Source\PSoC4/packets.c ****     /* *** Validate packet *** */
 271:Generated_Source\PSoC4/packets.c ****     /* LEN less than max */
 272:Generated_Source\PSoC4/packets.c ****     if (packet->payloadLen > packets_LEN_MAX_PAYLOAD) {
 273:Generated_Source\PSoC4/packets.c ****         error |= packets_ERR_LENGTH;
 274:Generated_Source\PSoC4/packets.c ****     }
 275:Generated_Source\PSoC4/packets.c ****     /* LEN less than process buffer max */
 276:Generated_Source\PSoC4/packets.c ****     if ( (packet->payloadLen + packets_LEN_OVERHEAD) > txBuffer->bufferLen) {
 277:Generated_Source\PSoC4/packets.c ****         error |= packets_ERR_MEMORY;
 278:Generated_Source\PSoC4/packets.c ****     }
 279:Generated_Source\PSoC4/packets.c ****     /* Send buffer must not be busy */
 280:Generated_Source\PSoC4/packets.c ****     if(*bufferState != packets_BUFFER_SEND_WAIT) {
 281:Generated_Source\PSoC4/packets.c ****        error |= packets_ERR_STATE;
 282:Generated_Source\PSoC4/packets.c ****     }
 283:Generated_Source\PSoC4/packets.c ****     /* Assemble the packet if no error */
 284:Generated_Source\PSoC4/packets.c ****     if(!error) {
 285:Generated_Source\PSoC4/packets.c ****         /* Reset the buffer count */
 286:Generated_Source\PSoC4/packets.c ****         txBuffer->bufferIndex = ZERO;
 287:Generated_Source\PSoC4/packets.c ****         /* Header */
 288:Generated_Source\PSoC4/packets.c ****         txBuffer->buffer[(txBuffer->bufferIndex)++] = packets_SYM_START;
 289:Generated_Source\PSoC4/packets.c ****         txBuffer->buffer[(txBuffer->bufferIndex)++] = packet->cmd;
 290:Generated_Source\PSoC4/packets.c ****         /* Payload length MSB */
 291:Generated_Source\PSoC4/packets.c ****         txBuffer->buffer[(txBuffer->bufferIndex)++] = (packet->payloadLen >> BITS_ONE_BYTE) & MASK_
 292:Generated_Source\PSoC4/packets.c ****         /* Payload length MSB */
 293:Generated_Source\PSoC4/packets.c ****         txBuffer->buffer[(txBuffer->bufferIndex)++] = (packet->payloadLen) & MASK_BYTE_ONE;
 294:Generated_Source\PSoC4/packets.c ****         /* Payload */
 295:Generated_Source\PSoC4/packets.c ****         uint16_t j;
 296:Generated_Source\PSoC4/packets.c ****         for(j = ZERO; j < packet->payloadLen; j++) {
 297:Generated_Source\PSoC4/packets.c ****             txBuffer->buffer[(txBuffer->bufferIndex)++] = packet->payload[j];
 298:Generated_Source\PSoC4/packets.c ****         }
 299:Generated_Source\PSoC4/packets.c ****         /* Footer */
 300:Generated_Source\PSoC4/packets.c ****         /* Flags Bytes 3-0 */
 301:Generated_Source\PSoC4/packets.c ****         txBuffer->buffer[(txBuffer->bufferIndex)++] = (uint8_t) ((packet->flags) >> BITS_ONE_BYTE);
 302:Generated_Source\PSoC4/packets.c ****         txBuffer->buffer[(txBuffer->bufferIndex)++] = (uint8_t)  (packet->flags);
 303:Generated_Source\PSoC4/packets.c ****         /* Calculate checksum */
 304:Generated_Source\PSoC4/packets.c ****         uint16_t checksum = packets_computeChecksum16(txBuffer->buffer, packets_LEN_HEADER + packet
 305:Generated_Source\PSoC4/packets.c ****         txBuffer->buffer[(txBuffer->bufferIndex)++] = (checksum >> BITS_ONE_BYTE) & MASK_BYTE_ONE;
 306:Generated_Source\PSoC4/packets.c ****         txBuffer->buffer[(txBuffer->bufferIndex)++] = (checksum) & MASK_BYTE_ONE;
 307:Generated_Source\PSoC4/packets.c ****         txBuffer->buffer[(txBuffer->bufferIndex)++] = packets_SYM_END;
 308:Generated_Source\PSoC4/packets.c ****         /* Advance to Ready to send */
 309:Generated_Source\PSoC4/packets.c ****         *bufferState =  packets_BUFFER_SEND_READY;
 310:Generated_Source\PSoC4/packets.c ****     }
 311:Generated_Source\PSoC4/packets.c ****     /* Return error code */
 312:Generated_Source\PSoC4/packets.c ****     return error;
 313:Generated_Source\PSoC4/packets.c **** }
 314:Generated_Source\PSoC4/packets.c **** 
 315:Generated_Source\PSoC4/packets.c **** 
 316:Generated_Source\PSoC4/packets.c **** /*******************************************************************************
 317:Generated_Source\PSoC4/packets.c **** * Function Name: packets_sendPacket()
 318:Generated_Source\PSoC4/packets.c **** ****************************************************************************//**
 319:Generated_Source\PSoC4/packets.c **** * \brief
 320:Generated_Source\PSoC4/packets.c **** *   Constructs and then sends of the data stored in the TX process buffer 
ARM GAS  C:\Users\ccheney\AppData\Local\Temp\ccXSPb4q.s 			page 15


 321:Generated_Source\PSoC4/packets.c **** *
 322:Generated_Source\PSoC4/packets.c **** * \param packet
 323:Generated_Source\PSoC4/packets.c **** *  Pointer to the packet to send of out the rx buffer
 324:Generated_Source\PSoC4/packets.c **** *
 325:Generated_Source\PSoC4/packets.c **** * \return
 326:Generated_Source\PSoC4/packets.c **** * A error code with the result of packing
 327:Generated_Source\PSoC4/packets.c **** *
 328:Generated_Source\PSoC4/packets.c **** *******************************************************************************/
 329:Generated_Source\PSoC4/packets.c **** uint32_t packets_sendPacket(packets_BUFFER_FULL_S *buffer){
 330:Generated_Source\PSoC4/packets.c ****     uint32_t error = packets_ERR_SUCCESS;
 331:Generated_Source\PSoC4/packets.c ****     /* Construct the tx packet */
 332:Generated_Source\PSoC4/packets.c ****     error |= packets_constructPacket(buffer);
 333:Generated_Source\PSoC4/packets.c ****     /* Create local references */
 334:Generated_Source\PSoC4/packets.c ****     packets_BUFFER_PROCESS_S* txBuffer = &(buffer->send.processBuffer);
 335:Generated_Source\PSoC4/packets.c ****     packets_BUFFER_STATE_SEND_T* bufferState = &(buffer->send.bufferState);
 336:Generated_Source\PSoC4/packets.c ****     /* Send buffer must not be busy */
 337:Generated_Source\PSoC4/packets.c ****     if(*bufferState != packets_BUFFER_SEND_READY) {
 338:Generated_Source\PSoC4/packets.c ****        error |= packets_ERR_STATE;
 339:Generated_Source\PSoC4/packets.c ****     }
 340:Generated_Source\PSoC4/packets.c ****     /* Ensure valid txFunction */
 341:Generated_Source\PSoC4/packets.c ****     if(buffer->comms.txPutArray == NULL){
 342:Generated_Source\PSoC4/packets.c ****         error |= packets_ERR_CALLBACK;
 343:Generated_Source\PSoC4/packets.c ****     }
 344:Generated_Source\PSoC4/packets.c ****     if(!error) {
 345:Generated_Source\PSoC4/packets.c ****         /* Write out the function */
 346:Generated_Source\PSoC4/packets.c ****         // (txBuffer->buffer, txBuffer->bufferIndex );
 347:Generated_Source\PSoC4/packets.c ****         // @TODO: check available buffer size first
 348:Generated_Source\PSoC4/packets.c ****         buffer->comms.txPutArray(txBuffer->buffer, txBuffer->bufferIndex );
 349:Generated_Source\PSoC4/packets.c ****         /* Move back to the original state */
 350:Generated_Source\PSoC4/packets.c ****         *bufferState = packets_BUFFER_SEND_WAIT;
 351:Generated_Source\PSoC4/packets.c ****         /* Flush the TX buffer */
 352:Generated_Source\PSoC4/packets.c ****         packets_flushTxBuffers(buffer);   
 353:Generated_Source\PSoC4/packets.c **** 
 354:Generated_Source\PSoC4/packets.c ****     }
 355:Generated_Source\PSoC4/packets.c ****     return error;
 356:Generated_Source\PSoC4/packets.c **** }
 357:Generated_Source\PSoC4/packets.c **** 
 358:Generated_Source\PSoC4/packets.c **** 
 359:Generated_Source\PSoC4/packets.c **** /*******************************************************************************
 360:Generated_Source\PSoC4/packets.c **** * Function Name: packets_processRxByte()
 361:Generated_Source\PSoC4/packets.c **** ****************************************************************************//**
 362:Generated_Source\PSoC4/packets.c **** * \brief
 363:Generated_Source\PSoC4/packets.c **** *  Processes the lastest received byt . 
 364:Generated_Source\PSoC4/packets.c **** *
 365:Generated_Source\PSoC4/packets.c **** * \return
 366:Generated_Source\PSoC4/packets.c **** *  A number indicating the error code
 367:Generated_Source\PSoC4/packets.c **** *  Errors codes                             | Description
 368:Generated_Source\PSoC4/packets.c **** *   ------------                            | -----------
 369:Generated_Source\PSoC4/packets.c **** *   packets_ERR_SUCCESS            | On Successful init
 370:Generated_Source\PSoC4/packets.c **** *******************************************************************************/
 371:Generated_Source\PSoC4/packets.c **** uint32_t packets_processRxByte(packets_BUFFER_FULL_S* buffer, uint8_t byte) {
 477              		.loc 1 371 0
 478              		.cfi_startproc
 479              		@ args = 0, pretend = 0, frame = 0
 480              		@ frame_needed = 0, uses_anonymous_args = 0
 481              	.LVL49:
 482 0000 10B5     		push	{r4, lr}
ARM GAS  C:\Users\ccheney\AppData\Local\Temp\ccXSPb4q.s 			page 16


 483              		.cfi_def_cfa_offset 8
 484              		.cfi_offset 4, -8
 485              		.cfi_offset 14, -4
 486 0002 0300     		movs	r3, r0
 487              	.LVL50:
 372:Generated_Source\PSoC4/packets.c ****      uint32_t error = packets_ERR_SUCCESS;
 373:Generated_Source\PSoC4/packets.c ****     /* Create local references */
 374:Generated_Source\PSoC4/packets.c ****     packets_BUFFER_PROCESS_S* rxBuffer = &(buffer->receive.processBuffer);
 375:Generated_Source\PSoC4/packets.c ****     packets_BUFFER_STATE_RECEIVE_T* bufferState = &(buffer->receive.bufferState);
 376:Generated_Source\PSoC4/packets.c ****     uint16_t* payloadLen = &(buffer->receive.packet.payloadLen);
 377:Generated_Source\PSoC4/packets.c **** 
 378:Generated_Source\PSoC4/packets.c ****     /* Ensure that buffers are valid and there is room */
 379:Generated_Source\PSoC4/packets.c ****     if( 
 380:Generated_Source\PSoC4/packets.c ****         (rxBuffer->bufferLen == ZERO) ||
 488              		.loc 1 380 0
 489 0004 828F     		ldrh	r2, [r0, #60]
 379:Generated_Source\PSoC4/packets.c ****         (rxBuffer->bufferLen == ZERO) ||
 490              		.loc 1 379 0
 491 0006 002A     		cmp	r2, #0
 492 0008 07D0     		beq	.L41
 493              		.loc 1 380 0
 494 000a 806B     		ldr	r0, [r0, #56]
 495              	.LVL51:
 496 000c 0028     		cmp	r0, #0
 497 000e 06D0     		beq	.L42
 381:Generated_Source\PSoC4/packets.c ****         (rxBuffer->buffer == NULL) ||
 382:Generated_Source\PSoC4/packets.c ****         (rxBuffer->bufferIndex >= rxBuffer->bufferLen) 
 498              		.loc 1 382 0
 499 0010 D88F     		ldrh	r0, [r3, #62]
 381:Generated_Source\PSoC4/packets.c ****         (rxBuffer->buffer == NULL) ||
 500              		.loc 1 381 0
 501 0012 8242     		cmp	r2, r0
 502 0014 05D9     		bls	.L43
 372:Generated_Source\PSoC4/packets.c ****     /* Create local references */
 503              		.loc 1 372 0
 504 0016 0020     		movs	r0, #0
 505 0018 04E0     		b	.L30
 506              	.LVL52:
 507              	.L41:
 383:Generated_Source\PSoC4/packets.c ****     ) {
 384:Generated_Source\PSoC4/packets.c ****         error |= packets_ERR_MEMORY;
 508              		.loc 1 384 0
 509 001a 0120     		movs	r0, #1
 510              	.LVL53:
 511 001c 02E0     		b	.L30
 512              	.L42:
 513 001e 0120     		movs	r0, #1
 514 0020 00E0     		b	.L30
 515              	.L43:
 516 0022 0120     		movs	r0, #1
 517              	.L30:
 518              	.LVL54:
 385:Generated_Source\PSoC4/packets.c ****     }
 386:Generated_Source\PSoC4/packets.c **** 
 387:Generated_Source\PSoC4/packets.c ****     if(!error) {
 519              		.loc 1 387 0
 520 0024 0028     		cmp	r0, #0
ARM GAS  C:\Users\ccheney\AppData\Local\Temp\ccXSPb4q.s 			page 17


 521 0026 53D1     		bne	.L31
 388:Generated_Source\PSoC4/packets.c ****         /* Act according to the state of the packet buffer */
 389:Generated_Source\PSoC4/packets.c ****         switch (buffer->receive.bufferState) {
 522              		.loc 1 389 0
 523 0028 4422     		movs	r2, #68
 524 002a 9A5C     		ldrb	r2, [r3, r2]
 525 002c 042A     		cmp	r2, #4
 526 002e 4FD8     		bhi	.L31
 527 0030 9200     		lsls	r2, r2, #2
 528 0032 284C     		ldr	r4, .L44
 529 0034 A258     		ldr	r2, [r4, r2]
 530 0036 9746     		mov	pc, r2
 531              		.section	.rodata
 532              		.align	2
 533              	.L33:
 534 0000 38000000 		.word	.L32
 535 0004 52000000 		.word	.L34
 536 0008 80000000 		.word	.L35
 537 000c AC000000 		.word	.L36
 538 0010 CA000000 		.word	.L37
 539              		.section	.text.packets_processRxByte
 540              	.L32:
 390:Generated_Source\PSoC4/packets.c ****             /* Waiting for start, ensure that the data byte is valid */
 391:Generated_Source\PSoC4/packets.c ****             case packets_BUFFER_RECEIVE_WAIT_FOR_START: {
 392:Generated_Source\PSoC4/packets.c ****                 if(byte != packets_SYM_START ){
 541              		.loc 1 392 0
 542 0038 0129     		cmp	r1, #1
 543 003a 02D0     		beq	.L38
 393:Generated_Source\PSoC4/packets.c ****                     error |= packets_ERR_START_SYM;
 544              		.loc 1 393 0
 545 003c 0223     		movs	r3, #2
 546              	.LVL55:
 547 003e 1843     		orrs	r0, r3
 548              	.LVL56:
 394:Generated_Source\PSoC4/packets.c ****                     break;
 549              		.loc 1 394 0
 550 0040 46E0     		b	.L31
 551              	.LVL57:
 552              	.L38:
 395:Generated_Source\PSoC4/packets.c ****                 }
 396:Generated_Source\PSoC4/packets.c ****                 /* Reset the count */
 397:Generated_Source\PSoC4/packets.c ****                 rxBuffer->bufferIndex = ZERO;
 398:Generated_Source\PSoC4/packets.c ****                 /* Store the byte */
 399:Generated_Source\PSoC4/packets.c ****                 rxBuffer->buffer[(rxBuffer->bufferIndex)++] = byte;
 553              		.loc 1 399 0
 554 0042 0122     		movs	r2, #1
 555 0044 DA87     		strh	r2, [r3, #62]
 556 0046 9A6B     		ldr	r2, [r3, #56]
 557 0048 1170     		strb	r1, [r2]
 400:Generated_Source\PSoC4/packets.c ****                 /* Advance to the next state */
 401:Generated_Source\PSoC4/packets.c ****                 *bufferState = packets_BUFFER_RECEIVE_HEADER;
 558              		.loc 1 401 0
 559 004a 4422     		movs	r2, #68
 560 004c 0121     		movs	r1, #1
 561              	.LVL58:
 562 004e 9954     		strb	r1, [r3, r2]
 402:Generated_Source\PSoC4/packets.c ****                 break;
ARM GAS  C:\Users\ccheney\AppData\Local\Temp\ccXSPb4q.s 			page 18


 563              		.loc 1 402 0
 564 0050 3EE0     		b	.L31
 565              	.LVL59:
 566              	.L34:
 403:Generated_Source\PSoC4/packets.c ****             }
 404:Generated_Source\PSoC4/packets.c ****             /* Waiting for the header */
 405:Generated_Source\PSoC4/packets.c ****             case packets_BUFFER_RECEIVE_HEADER: {
 406:Generated_Source\PSoC4/packets.c ****                 /* Store the byte */
 407:Generated_Source\PSoC4/packets.c ****                 rxBuffer->buffer[(rxBuffer->bufferIndex)++] = byte;
 567              		.loc 1 407 0
 568 0052 DA8F     		ldrh	r2, [r3, #62]
 569 0054 541C     		adds	r4, r2, #1
 570 0056 DC87     		strh	r4, [r3, #62]
 571 0058 9C6B     		ldr	r4, [r3, #56]
 572 005a A154     		strb	r1, [r4, r2]
 408:Generated_Source\PSoC4/packets.c ****                 /* Check to see if more data is required */
 409:Generated_Source\PSoC4/packets.c ****                 if (rxBuffer->bufferIndex == packets_LEN_HEADER) {
 573              		.loc 1 409 0
 574 005c DA8F     		ldrh	r2, [r3, #62]
 575 005e 042A     		cmp	r2, #4
 576 0060 36D1     		bne	.L31
 410:Generated_Source\PSoC4/packets.c ****                     /* Store the payload length */
 411:Generated_Source\PSoC4/packets.c ****                     *payloadLen = (rxBuffer->buffer[packets_INDEX_LEN_MSB] << BITS_ONE_BYTE) | rxBu
 577              		.loc 1 411 0
 578 0062 996B     		ldr	r1, [r3, #56]
 579              	.LVL60:
 580 0064 8A78     		ldrb	r2, [r1, #2]
 581 0066 1202     		lsls	r2, r2, #8
 582 0068 C978     		ldrb	r1, [r1, #3]
 583 006a 0A43     		orrs	r2, r1
 584 006c DA85     		strh	r2, [r3, #46]
 412:Generated_Source\PSoC4/packets.c ****                     if (*payloadLen == ZERO) {
 585              		.loc 1 412 0
 586 006e 03D1     		bne	.L39
 413:Generated_Source\PSoC4/packets.c ****                         /* Skip payload collection */
 414:Generated_Source\PSoC4/packets.c ****                         *bufferState = packets_BUFFER_RECEIVE_FOOTER;
 587              		.loc 1 414 0
 588 0070 0321     		movs	r1, #3
 589 0072 4432     		adds	r2, r2, #68
 590 0074 9954     		strb	r1, [r3, r2]
 591 0076 2BE0     		b	.L31
 592              	.L39:
 415:Generated_Source\PSoC4/packets.c ****                     } else {
 416:Generated_Source\PSoC4/packets.c ****                         /* Advance to the next state */
 417:Generated_Source\PSoC4/packets.c ****                         *bufferState = packets_BUFFER_RECEIVE_PAYLOAD;
 593              		.loc 1 417 0
 594 0078 0221     		movs	r1, #2
 595 007a 4422     		movs	r2, #68
 596 007c 9954     		strb	r1, [r3, r2]
 597 007e 27E0     		b	.L31
 598              	.LVL61:
 599              	.L35:
 418:Generated_Source\PSoC4/packets.c ****                     }
 419:Generated_Source\PSoC4/packets.c ****                 }
 420:Generated_Source\PSoC4/packets.c ****                 break;
 421:Generated_Source\PSoC4/packets.c ****             }
 422:Generated_Source\PSoC4/packets.c ****             /* Receiving Payload info */
ARM GAS  C:\Users\ccheney\AppData\Local\Temp\ccXSPb4q.s 			page 19


 423:Generated_Source\PSoC4/packets.c ****             case packets_BUFFER_RECEIVE_PAYLOAD: {
 424:Generated_Source\PSoC4/packets.c ****                 /* Store the data  */
 425:Generated_Source\PSoC4/packets.c ****                 rxBuffer->buffer[(rxBuffer->bufferIndex)++] = byte;
 600              		.loc 1 425 0
 601 0080 DA8F     		ldrh	r2, [r3, #62]
 602 0082 541C     		adds	r4, r2, #1
 603 0084 DC87     		strh	r4, [r3, #62]
 604 0086 9C6B     		ldr	r4, [r3, #56]
 605 0088 A154     		strb	r1, [r4, r2]
 426:Generated_Source\PSoC4/packets.c ****                 /* See if all data has been captured */
 427:Generated_Source\PSoC4/packets.c ****                 if (rxBuffer->bufferIndex == (packets_LEN_HEADER +  *payloadLen)){
 606              		.loc 1 427 0
 607 008a D98F     		ldrh	r1, [r3, #62]
 608              	.LVL62:
 609 008c DA8D     		ldrh	r2, [r3, #46]
 610              	.LVL63:
 611 008e 0432     		adds	r2, r2, #4
 612 0090 9142     		cmp	r1, r2
 613 0092 03D1     		bne	.L40
 428:Generated_Source\PSoC4/packets.c ****                     /* Advance to next state */
 429:Generated_Source\PSoC4/packets.c ****                     *bufferState = packets_BUFFER_RECEIVE_FOOTER;   
 614              		.loc 1 429 0
 615 0094 0321     		movs	r1, #3
 616 0096 4422     		movs	r2, #68
 617 0098 9954     		strb	r1, [r3, r2]
 618 009a 19E0     		b	.L31
 619              	.L40:
 430:Generated_Source\PSoC4/packets.c ****                 /* Data out of range */
 431:Generated_Source\PSoC4/packets.c ****                 } else if (rxBuffer->bufferIndex > (packets_LEN_HEADER +  *payloadLen)){
 620              		.loc 1 431 0
 621 009c 9142     		cmp	r1, r2
 622 009e 17D9     		bls	.L31
 432:Generated_Source\PSoC4/packets.c ****                     /* Reset count */
 433:Generated_Source\PSoC4/packets.c ****                     *bufferState = packets_BUFFER_RECEIVE_WAIT_FOR_START;
 623              		.loc 1 433 0
 624 00a0 0021     		movs	r1, #0
 625 00a2 4422     		movs	r2, #68
 626 00a4 9954     		strb	r1, [r3, r2]
 434:Generated_Source\PSoC4/packets.c ****                     error |= packets_ERR_LENGTH;
 627              		.loc 1 434 0
 628 00a6 0823     		movs	r3, #8
 629              	.LVL64:
 630 00a8 1843     		orrs	r0, r3
 631              	.LVL65:
 632 00aa 11E0     		b	.L31
 633              	.LVL66:
 634              	.L36:
 635              	.LBB3:
 435:Generated_Source\PSoC4/packets.c ****                 }
 436:Generated_Source\PSoC4/packets.c ****                 break;
 437:Generated_Source\PSoC4/packets.c ****             }
 438:Generated_Source\PSoC4/packets.c ****             /* Wait for the footer */
 439:Generated_Source\PSoC4/packets.c ****             case packets_BUFFER_RECEIVE_FOOTER: {
 440:Generated_Source\PSoC4/packets.c ****                 /* Store the data */
 441:Generated_Source\PSoC4/packets.c ****                 rxBuffer->buffer[(rxBuffer->bufferIndex)++] = byte;
 636              		.loc 1 441 0
 637 00ac DA8F     		ldrh	r2, [r3, #62]
ARM GAS  C:\Users\ccheney\AppData\Local\Temp\ccXSPb4q.s 			page 20


 638 00ae 541C     		adds	r4, r2, #1
 639 00b0 DC87     		strh	r4, [r3, #62]
 640 00b2 9C6B     		ldr	r4, [r3, #56]
 641 00b4 A154     		strb	r1, [r4, r2]
 442:Generated_Source\PSoC4/packets.c ****                 /*If all data has been captured */
 443:Generated_Source\PSoC4/packets.c ****                 uint16_t fullPacketLength = packets_LEN_HEADER + *payloadLen + packets_LEN_FOOTER;
 642              		.loc 1 443 0
 643 00b6 DA8D     		ldrh	r2, [r3, #46]
 644 00b8 0932     		adds	r2, r2, #9
 645 00ba 92B2     		uxth	r2, r2
 646              	.LVL67:
 444:Generated_Source\PSoC4/packets.c ****                 if (rxBuffer->bufferIndex == fullPacketLength) {
 647              		.loc 1 444 0
 648 00bc D98F     		ldrh	r1, [r3, #62]
 649              	.LVL68:
 650 00be 8A42     		cmp	r2, r1
 651 00c0 06D1     		bne	.L31
 445:Generated_Source\PSoC4/packets.c ****                     /* Packet is complete */   
 446:Generated_Source\PSoC4/packets.c ****                     *bufferState = packets_BUFFER_RECEIVE_COMPLETE;
 652              		.loc 1 446 0
 653 00c2 0421     		movs	r1, #4
 654 00c4 4422     		movs	r2, #68
 655              	.LVL69:
 656 00c6 9954     		strb	r1, [r3, r2]
 657              	.LVL70:
 658 00c8 02E0     		b	.L31
 659              	.LVL71:
 660              	.L37:
 661              	.LBE3:
 447:Generated_Source\PSoC4/packets.c ****                 }
 448:Generated_Source\PSoC4/packets.c ****                 break;
 449:Generated_Source\PSoC4/packets.c ****             }
 450:Generated_Source\PSoC4/packets.c ****             /* Packet is complete, but has not been handled, throw error */
 451:Generated_Source\PSoC4/packets.c ****             case packets_BUFFER_RECEIVE_COMPLETE: {
 452:Generated_Source\PSoC4/packets.c ****                     error |= packets_ERR_STATE;
 662              		.loc 1 452 0
 663 00ca 8023     		movs	r3, #128
 664              	.LVL72:
 665 00cc DB00     		lsls	r3, r3, #3
 666 00ce 1843     		orrs	r0, r3
 667              	.LVL73:
 668              	.L31:
 453:Generated_Source\PSoC4/packets.c ****                 break;
 454:Generated_Source\PSoC4/packets.c ****             }
 455:Generated_Source\PSoC4/packets.c ****         }
 456:Generated_Source\PSoC4/packets.c ****     } 
 457:Generated_Source\PSoC4/packets.c ****      /* Return the packet state */
 458:Generated_Source\PSoC4/packets.c ****      return error;
 459:Generated_Source\PSoC4/packets.c **** }
 669              		.loc 1 459 0
 670              		@ sp needed
 671 00d0 10BD     		pop	{r4, pc}
 672              	.L45:
 673 00d2 C046     		.align	2
 674              	.L44:
 675 00d4 00000000 		.word	.L33
 676              		.cfi_endproc
ARM GAS  C:\Users\ccheney\AppData\Local\Temp\ccXSPb4q.s 			page 21


 677              	.LFE10:
 678              		.size	packets_processRxByte, .-packets_processRxByte
 679              		.section	.text.packets_getModuleFromCmd,"ax",%progbits
 680              		.align	2
 681              		.global	packets_getModuleFromCmd
 682              		.code	16
 683              		.thumb_func
 684              		.type	packets_getModuleFromCmd, %function
 685              	packets_getModuleFromCmd:
 686              	.LFB13:
 460:Generated_Source\PSoC4/packets.c **** 
 461:Generated_Source\PSoC4/packets.c **** /*******************************************************************************
 462:Generated_Source\PSoC4/packets.c **** * Function Name:packets_parsePacket()
 463:Generated_Source\PSoC4/packets.c **** ****************************************************************************//**
 464:Generated_Source\PSoC4/packets.c **** * \brief
 465:Generated_Source\PSoC4/packets.c **** *  Parses a data packet from the received data.
 466:Generated_Source\PSoC4/packets.c **** *
 467:Generated_Source\PSoC4/packets.c **** * \param packet
 468:Generated_Source\PSoC4/packets.c **** * Pointer to a packet structure to place the infomation in
 469:Generated_Source\PSoC4/packets.c **** *
 470:Generated_Source\PSoC4/packets.c **** * \return
 471:Generated_Source\PSoC4/packets.c **** * The error code of the result packet parsing
 472:Generated_Source\PSoC4/packets.c **** * The possible error codes are:
 473:Generated_Source\PSoC4/packets.c **** *
 474:Generated_Source\PSoC4/packets.c **** *  Errors codes                         | Description
 475:Generated_Source\PSoC4/packets.c **** *   ------------                        | -----------
 476:Generated_Source\PSoC4/packets.c **** *   packets_ERR_SUCCESS        | The packet was successfully parsed.
 477:Generated_Source\PSoC4/packets.c **** *   packets_ERR_FORMAT         | The packet was in the incorrect format.
 478:Generated_Source\PSoC4/packets.c **** *   packets_ERR_MODULE         | An unknown module was requested.
 479:Generated_Source\PSoC4/packets.c **** *   packets_ERR_LENGTH         | The packet payload length was outside the allowed value.
 480:Generated_Source\PSoC4/packets.c **** *   packets_ERR_CHECKSUM       | The calculated checksum did not match the reported checksum.
 481:Generated_Source\PSoC4/packets.c **** *******************************************************************************/
 482:Generated_Source\PSoC4/packets.c **** uint32_t packets_parsePacket(packets_BUFFER_FULL_S* buffer) {
 483:Generated_Source\PSoC4/packets.c ****     uint32_t error = packets_ERR_SUCCESS;
 484:Generated_Source\PSoC4/packets.c ****     /* Create local references */
 485:Generated_Source\PSoC4/packets.c ****     packets_BUFFER_PROCESS_S* rxBuffer = &(buffer->receive.processBuffer);
 486:Generated_Source\PSoC4/packets.c ****     packets_BUFFER_STATE_RECEIVE_T* bufferState = &(buffer->receive.bufferState);
 487:Generated_Source\PSoC4/packets.c ****     packets_PACKET_S* packet = &(buffer->receive.packet);
 488:Generated_Source\PSoC4/packets.c ****     
 489:Generated_Source\PSoC4/packets.c ****     /* Ensure packet is complete */
 490:Generated_Source\PSoC4/packets.c ****     if (*bufferState != packets_BUFFER_RECEIVE_COMPLETE){
 491:Generated_Source\PSoC4/packets.c ****         return packets_ERR_INCOMPLETE;    
 492:Generated_Source\PSoC4/packets.c ****     }
 493:Generated_Source\PSoC4/packets.c ****     /* Ensure start of packet symbol */
 494:Generated_Source\PSoC4/packets.c ****     uint8 startByte = rxBuffer->buffer[packets_INDEX_START];
 495:Generated_Source\PSoC4/packets.c ****     if (startByte != packets_SYM_START) {
 496:Generated_Source\PSoC4/packets.c ****         error |= packets_ERR_START_SYM;
 497:Generated_Source\PSoC4/packets.c ****     }
 498:Generated_Source\PSoC4/packets.c **** 
 499:Generated_Source\PSoC4/packets.c ****     /* Get the Command - Cannot tell if valid at this point */
 500:Generated_Source\PSoC4/packets.c ****     uint8_t cmd =  rxBuffer->buffer[packets_INDEX_CMD];
 501:Generated_Source\PSoC4/packets.c ****     packet->cmd = cmd;
 502:Generated_Source\PSoC4/packets.c ****     /* Populate the module */
 503:Generated_Source\PSoC4/packets.c ****     error |= packets_getModuleFromCmd(cmd, &(packet->moduleId));
 504:Generated_Source\PSoC4/packets.c ****     
 505:Generated_Source\PSoC4/packets.c ****     /* Get the payload length */
 506:Generated_Source\PSoC4/packets.c ****     packet->payloadLen = (rxBuffer->buffer[packets_INDEX_LEN_MSB] << BITS_ONE_BYTE) | rxBuffer->buf
ARM GAS  C:\Users\ccheney\AppData\Local\Temp\ccXSPb4q.s 			page 22


 507:Generated_Source\PSoC4/packets.c ****     if (packet->payloadLen > packets_LEN_MAX_PAYLOAD) {
 508:Generated_Source\PSoC4/packets.c ****         error |= packets_ERR_LENGTH;  
 509:Generated_Source\PSoC4/packets.c ****     }
 510:Generated_Source\PSoC4/packets.c ****     
 511:Generated_Source\PSoC4/packets.c ****     /* Ensure Payload array is allocated */
 512:Generated_Source\PSoC4/packets.c ****     if(packet->payload == NULL){
 513:Generated_Source\PSoC4/packets.c ****         error |= packets_ERR_MEMORY;   
 514:Generated_Source\PSoC4/packets.c ****     }
 515:Generated_Source\PSoC4/packets.c ****     if(!error){
 516:Generated_Source\PSoC4/packets.c ****         /* Transfer the payload to the new buffer */
 517:Generated_Source\PSoC4/packets.c ****         memmove(packet->payload, &(rxBuffer->buffer[packets_INDEX_PAYLOAD]), packet->payloadLen); 
 518:Generated_Source\PSoC4/packets.c **** 
 519:Generated_Source\PSoC4/packets.c ****         /* Start of the footer */
 520:Generated_Source\PSoC4/packets.c ****         uint8_t* footerPtr = &(rxBuffer->buffer[packets_LEN_HEADER + packet->payloadLen]);
 521:Generated_Source\PSoC4/packets.c ****         /* Get the flags */
 522:Generated_Source\PSoC4/packets.c ****         uint8 flags1 = *footerPtr++;
 523:Generated_Source\PSoC4/packets.c ****         uint8 flags0 = *footerPtr++;
 524:Generated_Source\PSoC4/packets.c ****         packet->flags = (uint32_t) ((flags1 << BITS_ONE_BYTE) | flags0);
 525:Generated_Source\PSoC4/packets.c ****         /* Validate checksum */
 526:Generated_Source\PSoC4/packets.c ****         uint16_t calculatedChecksum = packets_computeChecksum16(rxBuffer->buffer, packets_LEN_HEADE
 527:Generated_Source\PSoC4/packets.c ****         uint8 checkSumMsb = *footerPtr++;
 528:Generated_Source\PSoC4/packets.c ****         uint8 checkSumLsb = *footerPtr++;
 529:Generated_Source\PSoC4/packets.c ****         uint16_t reportedChecksum = (checkSumMsb << BITS_ONE_BYTE) | checkSumLsb;
 530:Generated_Source\PSoC4/packets.c ****         if( calculatedChecksum != reportedChecksum) {
 531:Generated_Source\PSoC4/packets.c ****             error |= packets_ERR_CHECKSUM;
 532:Generated_Source\PSoC4/packets.c ****         }
 533:Generated_Source\PSoC4/packets.c ****         /* Check end of packet symbol */
 534:Generated_Source\PSoC4/packets.c ****         uint8 endSymbol = *footerPtr;
 535:Generated_Source\PSoC4/packets.c ****         if (endSymbol != packets_SYM_END) {
 536:Generated_Source\PSoC4/packets.c ****             error|= packets_ERR_END_SYM;
 537:Generated_Source\PSoC4/packets.c ****         }
 538:Generated_Source\PSoC4/packets.c ****         /* Flush the buffer */
 539:Generated_Source\PSoC4/packets.c ****         packets_flushRxBuffers(buffer);
 540:Generated_Source\PSoC4/packets.c ****         /* Return the error code */
 541:Generated_Source\PSoC4/packets.c ****     }
 542:Generated_Source\PSoC4/packets.c ****     return error;
 543:Generated_Source\PSoC4/packets.c **** } 
 544:Generated_Source\PSoC4/packets.c **** 
 545:Generated_Source\PSoC4/packets.c **** /*******************************************************************************
 546:Generated_Source\PSoC4/packets.c **** * Function Name: packets_acknowledgePacket()
 547:Generated_Source\PSoC4/packets.c **** ****************************************************************************//**
 548:Generated_Source\PSoC4/packets.c **** * \brief
 549:Generated_Source\PSoC4/packets.c **** *  Respond to a received packet
 550:Generated_Source\PSoC4/packets.c **** *
 551:Generated_Source\PSoC4/packets.c **** * \param rxPacket [in]
 552:Generated_Source\PSoC4/packets.c **** *  Pointer to the received packet
 553:Generated_Source\PSoC4/packets.c **** *
 554:Generated_Source\PSoC4/packets.c **** * \param validateFn [in]
 555:Generated_Source\PSoC4/packets.c **** *  Pointer to the device specific validation function
 556:Generated_Source\PSoC4/packets.c **** * 
 557:Generated_Source\PSoC4/packets.c **** * \return
 558:Generated_Source\PSoC4/packets.c **** *  Returns the error of associated with 
 559:Generated_Source\PSoC4/packets.c **** *******************************************************************************/
 560:Generated_Source\PSoC4/packets.c **** uint32_t packets_acknowledgePacket(packets_BUFFER_FULL_S* packet, uint32_t (*validateFn)(packets_PA
 561:Generated_Source\PSoC4/packets.c ****     packets_PACKET_S* rxPacket = &(packet->receive.packet);
 562:Generated_Source\PSoC4/packets.c ****     packets_PACKET_S* txPacket = &(packet->send.packet);
 563:Generated_Source\PSoC4/packets.c ****     /* Set the default settings */
ARM GAS  C:\Users\ccheney\AppData\Local\Temp\ccXSPb4q.s 			page 23


 564:Generated_Source\PSoC4/packets.c ****     txPacket->moduleId = rxPacket->moduleId;
 565:Generated_Source\PSoC4/packets.c ****     txPacket->cmd = rxPacket->cmd;
 566:Generated_Source\PSoC4/packets.c ****     txPacket->flags = packets_FLAG_ACK;
 567:Generated_Source\PSoC4/packets.c ****     /* Validate the command */
 568:Generated_Source\PSoC4/packets.c ****     uint32_t validateErr = validateFn(rxPacket, txPacket);
 569:Generated_Source\PSoC4/packets.c ****     uint32_t responseErr = packets_ERR_SUCCESS;
 570:Generated_Source\PSoC4/packets.c ****     /* Command is valid */
 571:Generated_Source\PSoC4/packets.c ****     if(validateErr ==packets_ERR_SUCCESS){
 572:Generated_Source\PSoC4/packets.c ****         /* Respond if the NO ACK flag is not set */
 573:Generated_Source\PSoC4/packets.c ****         if( !(packet->receive.packet.flags & packets_FLAG_NO_ACK)){
 574:Generated_Source\PSoC4/packets.c ****             /* Send the response packet */
 575:Generated_Source\PSoC4/packets.c ****             responseErr = packets_sendPacket(packet);
 576:Generated_Source\PSoC4/packets.c ****         }
 577:Generated_Source\PSoC4/packets.c ****     /* An error occured during validation */
 578:Generated_Source\PSoC4/packets.c ****     } else {
 579:Generated_Source\PSoC4/packets.c ****         responseErr = validateErr;
 580:Generated_Source\PSoC4/packets.c ****     }
 581:Generated_Source\PSoC4/packets.c ****     return responseErr;
 582:Generated_Source\PSoC4/packets.c **** }
 583:Generated_Source\PSoC4/packets.c **** 
 584:Generated_Source\PSoC4/packets.c **** 
 585:Generated_Source\PSoC4/packets.c **** /*******************************************************************************
 586:Generated_Source\PSoC4/packets.c **** * Function Name: packets_getModuleFromCmd()
 587:Generated_Source\PSoC4/packets.c **** ****************************************************************************//**
 588:Generated_Source\PSoC4/packets.c **** * \brief
 589:Generated_Source\PSoC4/packets.c **** *  Returns the module id from the CMD
 590:Generated_Source\PSoC4/packets.c **** *
 591:Generated_Source\PSoC4/packets.c **** * \param cmd [in]
 592:Generated_Source\PSoC4/packets.c **** * The host or response command
 593:Generated_Source\PSoC4/packets.c **** *
 594:Generated_Source\PSoC4/packets.c **** * \param module [out]
 595:Generated_Source\PSoC4/packets.c **** * Pointer on where to place the output
 596:Generated_Source\PSoC4/packets.c **** *
 597:Generated_Source\PSoC4/packets.c **** * \return
 598:Generated_Source\PSoC4/packets.c **** * Error of the operation
 599:Generated_Source\PSoC4/packets.c **** *
 600:Generated_Source\PSoC4/packets.c **** *******************************************************************************/
 601:Generated_Source\PSoC4/packets.c **** uint32_t packets_getModuleFromCmd(uint8_t cmd, uint8_t *module) {
 687              		.loc 1 601 0
 688              		.cfi_startproc
 689              		@ args = 0, pretend = 0, frame = 0
 690              		@ frame_needed = 0, uses_anonymous_args = 0
 691              		@ link register save eliminated.
 692              	.LVL74:
 602:Generated_Source\PSoC4/packets.c ****     uint8 id;
 603:Generated_Source\PSoC4/packets.c ****     /* Mask the Response flag */
 604:Generated_Source\PSoC4/packets.c ****     cmd &= (~packets_RSP_BIT);
 693              		.loc 1 604 0
 694 0000 7F23     		movs	r3, #127
 695 0002 1840     		ands	r0, r3
 696              	.LVL75:
 605:Generated_Source\PSoC4/packets.c ****     /* Check the memory space */
 606:Generated_Source\PSoC4/packets.c ****     if (cmd >= packets_CMD_CONTROL_MIN && cmd <= packets_CMD_CONTROL_MAX) {
 697              		.loc 1 606 0
 698 0004 1F28     		cmp	r0, #31
 699 0006 0FD9     		bls	.L49
 607:Generated_Source\PSoC4/packets.c ****         id = packets_ID_MODULE_CONTROL;
ARM GAS  C:\Users\ccheney\AppData\Local\Temp\ccXSPb4q.s 			page 24


 608:Generated_Source\PSoC4/packets.c ****     } else if (cmd >= packets_CMD_ACTUATION_MIN && cmd <= packets_CMD_ACTUATION_MAX){
 700              		.loc 1 608 0
 701 0008 0300     		movs	r3, r0
 702 000a 203B     		subs	r3, r3, #32
 703 000c DBB2     		uxtb	r3, r3
 704 000e 1F2B     		cmp	r3, #31
 705 0010 0CD9     		bls	.L50
 609:Generated_Source\PSoC4/packets.c ****         id = packets_ID_MODULE_ACTUATION;   
 610:Generated_Source\PSoC4/packets.c ****     } else if (cmd >= packets_CMD_SENSING_MIN && cmd <= packets_CMD_SENSING_MAX){
 706              		.loc 1 610 0
 707 0012 0300     		movs	r3, r0
 708 0014 403B     		subs	r3, r3, #64
 709 0016 DBB2     		uxtb	r3, r3
 710 0018 1F2B     		cmp	r3, #31
 711 001a 09D9     		bls	.L51
 611:Generated_Source\PSoC4/packets.c ****         id = packets_ID_MODULE_SENSING;   
 612:Generated_Source\PSoC4/packets.c ****     }  else if (cmd >= packets_CMD_ENERGY_MIN && cmd <= packets_CMD_ENERGY_MAX){
 712              		.loc 1 612 0
 713 001c 6038     		subs	r0, r0, #96
 714              	.LVL76:
 715 001e C0B2     		uxtb	r0, r0
 716              	.LVL77:
 717 0020 1F28     		cmp	r0, #31
 718 0022 09D8     		bhi	.L52
 613:Generated_Source\PSoC4/packets.c ****         id = packets_ID_MODULE_ENERGY;   
 719              		.loc 1 613 0
 720 0024 0323     		movs	r3, #3
 721 0026 04E0     		b	.L47
 722              	.LVL78:
 723              	.L49:
 607:Generated_Source\PSoC4/packets.c ****     } else if (cmd >= packets_CMD_ACTUATION_MIN && cmd <= packets_CMD_ACTUATION_MAX){
 724              		.loc 1 607 0
 725 0028 0023     		movs	r3, #0
 726 002a 02E0     		b	.L47
 727              	.L50:
 609:Generated_Source\PSoC4/packets.c ****     } else if (cmd >= packets_CMD_SENSING_MIN && cmd <= packets_CMD_SENSING_MAX){
 728              		.loc 1 609 0
 729 002c 0123     		movs	r3, #1
 730 002e 00E0     		b	.L47
 731              	.L51:
 611:Generated_Source\PSoC4/packets.c ****     }  else if (cmd >= packets_CMD_ENERGY_MIN && cmd <= packets_CMD_ENERGY_MAX){
 732              		.loc 1 611 0
 733 0030 0223     		movs	r3, #2
 734              	.LVL79:
 735              	.L47:
 614:Generated_Source\PSoC4/packets.c ****     } else {
 615:Generated_Source\PSoC4/packets.c ****         return packets_ERR_UNKNOWN;
 616:Generated_Source\PSoC4/packets.c ****     }
 617:Generated_Source\PSoC4/packets.c ****     /* Set the module value out */
 618:Generated_Source\PSoC4/packets.c ****     *module = id;
 736              		.loc 1 618 0
 737 0032 0B70     		strb	r3, [r1]
 619:Generated_Source\PSoC4/packets.c ****     /* Return success */
 620:Generated_Source\PSoC4/packets.c ****     return packets_ERR_SUCCESS;
 738              		.loc 1 620 0
 739 0034 0020     		movs	r0, #0
 740 0036 01E0     		b	.L48
ARM GAS  C:\Users\ccheney\AppData\Local\Temp\ccXSPb4q.s 			page 25


 741              	.LVL80:
 742              	.L52:
 615:Generated_Source\PSoC4/packets.c ****     }
 743              		.loc 1 615 0
 744 0038 8020     		movs	r0, #128
 745 003a 0006     		lsls	r0, r0, #24
 746              	.L48:
 621:Generated_Source\PSoC4/packets.c **** }
 747              		.loc 1 621 0
 748              		@ sp needed
 749 003c 7047     		bx	lr
 750              		.cfi_endproc
 751              	.LFE13:
 752              		.size	packets_getModuleFromCmd, .-packets_getModuleFromCmd
 753 003e C046     		.section	.text.packets_computeChecksum16,"ax",%progbits
 754              		.align	2
 755              		.global	packets_computeChecksum16
 756              		.code	16
 757              		.thumb_func
 758              		.type	packets_computeChecksum16, %function
 759              	packets_computeChecksum16:
 760              	.LFB14:
 622:Generated_Source\PSoC4/packets.c **** 
 623:Generated_Source\PSoC4/packets.c **** 
 624:Generated_Source\PSoC4/packets.c **** 
 625:Generated_Source\PSoC4/packets.c **** /*******************************************************************************
 626:Generated_Source\PSoC4/packets.c **** * Function Name: packets_computeChecksum16()
 627:Generated_Source\PSoC4/packets.c **** ****************************************************************************//**
 628:Generated_Source\PSoC4/packets.c **** * \brief
 629:Generated_Source\PSoC4/packets.c **** *  Calculates the 16 bit, two's complement, checksum from an array of data
 630:Generated_Source\PSoC4/packets.c **** *
 631:Generated_Source\PSoC4/packets.c **** * \param data
 632:Generated_Source\PSoC4/packets.c **** * Array which contains the data
 633:Generated_Source\PSoC4/packets.c **** *
 634:Generated_Source\PSoC4/packets.c **** * \param length
 635:Generated_Source\PSoC4/packets.c **** * The length of the data to interate over
 636:Generated_Source\PSoC4/packets.c **** *
 637:Generated_Source\PSoC4/packets.c **** * \return
 638:Generated_Source\PSoC4/packets.c **** * The value of the checksum in two's complement form
 639:Generated_Source\PSoC4/packets.c **** *
 640:Generated_Source\PSoC4/packets.c **** *******************************************************************************/
 641:Generated_Source\PSoC4/packets.c **** uint16_t packets_computeChecksum16(uint8_t* data, uint16_t length){
 761              		.loc 1 641 0
 762              		.cfi_startproc
 763              		@ args = 0, pretend = 0, frame = 0
 764              		@ frame_needed = 0, uses_anonymous_args = 0
 765              	.LVL81:
 766 0000 10B5     		push	{r4, lr}
 767              		.cfi_def_cfa_offset 8
 768              		.cfi_offset 4, -8
 769              		.cfi_offset 14, -4
 770              	.LVL82:
 642:Generated_Source\PSoC4/packets.c ****     /* Local variables */
 643:Generated_Source\PSoC4/packets.c ****     uint8_t idx;
 644:Generated_Source\PSoC4/packets.c ****     uint16_t sum = ZERO;
 771              		.loc 1 644 0
 772 0002 0022     		movs	r2, #0
ARM GAS  C:\Users\ccheney\AppData\Local\Temp\ccXSPb4q.s 			page 26


 645:Generated_Source\PSoC4/packets.c ****     /* Iterate over the values */
 646:Generated_Source\PSoC4/packets.c ****     for( idx = ZERO; idx < length; idx++ ){
 773              		.loc 1 646 0
 774 0004 0023     		movs	r3, #0
 775 0006 04E0     		b	.L54
 776              	.LVL83:
 777              	.L55:
 647:Generated_Source\PSoC4/packets.c ****         sum += data[idx];
 778              		.loc 1 647 0 discriminator 3
 779 0008 C45C     		ldrb	r4, [r0, r3]
 780 000a 1219     		adds	r2, r2, r4
 781              	.LVL84:
 782 000c 92B2     		uxth	r2, r2
 783              	.LVL85:
 646:Generated_Source\PSoC4/packets.c ****         sum += data[idx];
 784              		.loc 1 646 0 discriminator 3
 785 000e 0133     		adds	r3, r3, #1
 786              	.LVL86:
 787 0010 DBB2     		uxtb	r3, r3
 788              	.LVL87:
 789              	.L54:
 646:Generated_Source\PSoC4/packets.c ****         sum += data[idx];
 790              		.loc 1 646 0 is_stmt 0 discriminator 1
 791 0012 9CB2     		uxth	r4, r3
 792 0014 8C42     		cmp	r4, r1
 793 0016 F7D3     		bcc	.L55
 648:Generated_Source\PSoC4/packets.c ****     }
 649:Generated_Source\PSoC4/packets.c ****     /* Return the sum in two's complement */
 650:Generated_Source\PSoC4/packets.c ****     return (1 + ~sum);
 794              		.loc 1 650 0 is_stmt 1
 795 0018 5042     		rsbs	r0, r2, #0
 796              	.LVL88:
 797 001a 80B2     		uxth	r0, r0
 651:Generated_Source\PSoC4/packets.c **** }
 798              		.loc 1 651 0
 799              		@ sp needed
 800 001c 10BD     		pop	{r4, pc}
 801              		.cfi_endproc
 802              	.LFE14:
 803              		.size	packets_computeChecksum16, .-packets_computeChecksum16
 804 001e C046     		.section	.text.packets_constructPacket,"ax",%progbits
 805              		.align	2
 806              		.global	packets_constructPacket
 807              		.code	16
 808              		.thumb_func
 809              		.type	packets_constructPacket, %function
 810              	packets_constructPacket:
 811              	.LFB8:
 263:Generated_Source\PSoC4/packets.c ****     uint32_t error = packets_ERR_SUCCESS;
 812              		.loc 1 263 0
 813              		.cfi_startproc
 814              		@ args = 0, pretend = 0, frame = 0
 815              		@ frame_needed = 0, uses_anonymous_args = 0
 816              	.LVL89:
 817 0000 70B5     		push	{r4, r5, r6, lr}
 818              		.cfi_def_cfa_offset 16
 819              		.cfi_offset 4, -16
ARM GAS  C:\Users\ccheney\AppData\Local\Temp\ccXSPb4q.s 			page 27


 820              		.cfi_offset 5, -12
 821              		.cfi_offset 6, -8
 822              		.cfi_offset 14, -4
 823 0002 0400     		movs	r4, r0
 824              	.LVL90:
 272:Generated_Source\PSoC4/packets.c ****         error |= packets_ERR_LENGTH;
 825              		.loc 1 272 0
 826 0004 4389     		ldrh	r3, [r0, #10]
 827 0006 8022     		movs	r2, #128
 828 0008 5200     		lsls	r2, r2, #1
 829 000a 9342     		cmp	r3, r2
 830 000c 01D8     		bhi	.L63
 264:Generated_Source\PSoC4/packets.c ****     /* Create local references */
 831              		.loc 1 264 0
 832 000e 0025     		movs	r5, #0
 833 0010 00E0     		b	.L57
 834              	.L63:
 273:Generated_Source\PSoC4/packets.c ****     }
 835              		.loc 1 273 0
 836 0012 0825     		movs	r5, #8
 837              	.L57:
 838              	.LVL91:
 276:Generated_Source\PSoC4/packets.c ****         error |= packets_ERR_MEMORY;
 839              		.loc 1 276 0
 840 0014 0933     		adds	r3, r3, #9
 841 0016 228B     		ldrh	r2, [r4, #24]
 842 0018 9342     		cmp	r3, r2
 843 001a 01D9     		bls	.L58
 277:Generated_Source\PSoC4/packets.c ****     }
 844              		.loc 1 277 0
 845 001c 0123     		movs	r3, #1
 846 001e 1D43     		orrs	r5, r3
 847              	.LVL92:
 848              	.L58:
 280:Generated_Source\PSoC4/packets.c ****        error |= packets_ERR_STATE;
 849              		.loc 1 280 0
 850 0020 2023     		movs	r3, #32
 851 0022 E35C     		ldrb	r3, [r4, r3]
 852 0024 002B     		cmp	r3, #0
 853 0026 02D0     		beq	.L59
 281:Generated_Source\PSoC4/packets.c ****     }
 854              		.loc 1 281 0
 855 0028 8023     		movs	r3, #128
 856 002a DB00     		lsls	r3, r3, #3
 857 002c 1D43     		orrs	r5, r3
 858              	.LVL93:
 859              	.L59:
 284:Generated_Source\PSoC4/packets.c ****         /* Reset the buffer count */
 860              		.loc 1 284 0
 861 002e 002D     		cmp	r5, #0
 862 0030 4BD1     		bne	.L60
 863              	.LBB4:
 288:Generated_Source\PSoC4/packets.c ****         txBuffer->buffer[(txBuffer->bufferIndex)++] = packet->cmd;
 864              		.loc 1 288 0
 865 0032 0123     		movs	r3, #1
 866 0034 6383     		strh	r3, [r4, #26]
 867 0036 6269     		ldr	r2, [r4, #20]
ARM GAS  C:\Users\ccheney\AppData\Local\Temp\ccXSPb4q.s 			page 28


 868 0038 1370     		strb	r3, [r2]
 289:Generated_Source\PSoC4/packets.c ****         /* Payload length MSB */
 869              		.loc 1 289 0
 870 003a 638B     		ldrh	r3, [r4, #26]
 871 003c 5A1C     		adds	r2, r3, #1
 872 003e 6283     		strh	r2, [r4, #26]
 873 0040 6278     		ldrb	r2, [r4, #1]
 874 0042 6169     		ldr	r1, [r4, #20]
 875 0044 CA54     		strb	r2, [r1, r3]
 291:Generated_Source\PSoC4/packets.c ****         /* Payload length MSB */
 876              		.loc 1 291 0
 877 0046 628B     		ldrh	r2, [r4, #26]
 878 0048 531C     		adds	r3, r2, #1
 879 004a 6383     		strh	r3, [r4, #26]
 880 004c 6389     		ldrh	r3, [r4, #10]
 881 004e 1B0A     		lsrs	r3, r3, #8
 882 0050 6169     		ldr	r1, [r4, #20]
 883 0052 8B54     		strb	r3, [r1, r2]
 293:Generated_Source\PSoC4/packets.c ****         /* Payload */
 884              		.loc 1 293 0
 885 0054 638B     		ldrh	r3, [r4, #26]
 886 0056 5A1C     		adds	r2, r3, #1
 887 0058 6283     		strh	r2, [r4, #26]
 888 005a 6289     		ldrh	r2, [r4, #10]
 889 005c 6169     		ldr	r1, [r4, #20]
 890 005e CA54     		strb	r2, [r1, r3]
 891              	.LVL94:
 296:Generated_Source\PSoC4/packets.c ****             txBuffer->buffer[(txBuffer->bufferIndex)++] = packet->payload[j];
 892              		.loc 1 296 0
 893 0060 0023     		movs	r3, #0
 894 0062 08E0     		b	.L61
 895              	.LVL95:
 896              	.L62:
 297:Generated_Source\PSoC4/packets.c ****         }
 897              		.loc 1 297 0 discriminator 3
 898 0064 628B     		ldrh	r2, [r4, #26]
 899 0066 511C     		adds	r1, r2, #1
 900 0068 6183     		strh	r1, [r4, #26]
 901 006a 6168     		ldr	r1, [r4, #4]
 902 006c C95C     		ldrb	r1, [r1, r3]
 903 006e 6069     		ldr	r0, [r4, #20]
 904 0070 8154     		strb	r1, [r0, r2]
 296:Generated_Source\PSoC4/packets.c ****             txBuffer->buffer[(txBuffer->bufferIndex)++] = packet->payload[j];
 905              		.loc 1 296 0 discriminator 3
 906 0072 0133     		adds	r3, r3, #1
 907              	.LVL96:
 908 0074 9BB2     		uxth	r3, r3
 909              	.LVL97:
 910              	.L61:
 296:Generated_Source\PSoC4/packets.c ****             txBuffer->buffer[(txBuffer->bufferIndex)++] = packet->payload[j];
 911              		.loc 1 296 0 is_stmt 0 discriminator 1
 912 0076 6289     		ldrh	r2, [r4, #10]
 913 0078 9342     		cmp	r3, r2
 914 007a F3D3     		bcc	.L62
 301:Generated_Source\PSoC4/packets.c ****         txBuffer->buffer[(txBuffer->bufferIndex)++] = (uint8_t)  (packet->flags);
 915              		.loc 1 301 0 is_stmt 1
 916 007c 628B     		ldrh	r2, [r4, #26]
ARM GAS  C:\Users\ccheney\AppData\Local\Temp\ccXSPb4q.s 			page 29


 917 007e 531C     		adds	r3, r2, #1
 918              	.LVL98:
 919 0080 6383     		strh	r3, [r4, #26]
 920 0082 A389     		ldrh	r3, [r4, #12]
 921 0084 1B0A     		lsrs	r3, r3, #8
 922 0086 6169     		ldr	r1, [r4, #20]
 923 0088 8B54     		strb	r3, [r1, r2]
 302:Generated_Source\PSoC4/packets.c ****         /* Calculate checksum */
 924              		.loc 1 302 0
 925 008a 638B     		ldrh	r3, [r4, #26]
 926 008c 5A1C     		adds	r2, r3, #1
 927 008e 6283     		strh	r2, [r4, #26]
 928 0090 227B     		ldrb	r2, [r4, #12]
 929 0092 6169     		ldr	r1, [r4, #20]
 930 0094 CA54     		strb	r2, [r1, r3]
 304:Generated_Source\PSoC4/packets.c ****         txBuffer->buffer[(txBuffer->bufferIndex)++] = (checksum >> BITS_ONE_BYTE) & MASK_BYTE_ONE;
 931              		.loc 1 304 0
 932 0096 6669     		ldr	r6, [r4, #20]
 933 0098 6189     		ldrh	r1, [r4, #10]
 934 009a 0631     		adds	r1, r1, #6
 935 009c 89B2     		uxth	r1, r1
 936 009e 3000     		movs	r0, r6
 937 00a0 FFF7FEFF 		bl	packets_computeChecksum16
 938              	.LVL99:
 305:Generated_Source\PSoC4/packets.c ****         txBuffer->buffer[(txBuffer->bufferIndex)++] = (checksum) & MASK_BYTE_ONE;
 939              		.loc 1 305 0
 940 00a4 638B     		ldrh	r3, [r4, #26]
 941 00a6 5A1C     		adds	r2, r3, #1
 942 00a8 6283     		strh	r2, [r4, #26]
 943 00aa 020A     		lsrs	r2, r0, #8
 944 00ac F254     		strb	r2, [r6, r3]
 306:Generated_Source\PSoC4/packets.c ****         txBuffer->buffer[(txBuffer->bufferIndex)++] = packets_SYM_END;
 945              		.loc 1 306 0
 946 00ae 638B     		ldrh	r3, [r4, #26]
 947 00b0 5A1C     		adds	r2, r3, #1
 948 00b2 6283     		strh	r2, [r4, #26]
 949 00b4 6269     		ldr	r2, [r4, #20]
 950 00b6 D054     		strb	r0, [r2, r3]
 307:Generated_Source\PSoC4/packets.c ****         /* Advance to Ready to send */
 951              		.loc 1 307 0
 952 00b8 638B     		ldrh	r3, [r4, #26]
 953 00ba 5A1C     		adds	r2, r3, #1
 954 00bc 6283     		strh	r2, [r4, #26]
 955 00be AA22     		movs	r2, #170
 956 00c0 6169     		ldr	r1, [r4, #20]
 957 00c2 CA54     		strb	r2, [r1, r3]
 309:Generated_Source\PSoC4/packets.c ****     }
 958              		.loc 1 309 0
 959 00c4 A93A     		subs	r2, r2, #169
 960 00c6 2023     		movs	r3, #32
 961 00c8 E254     		strb	r2, [r4, r3]
 962              	.LVL100:
 963              	.L60:
 964              	.LBE4:
 313:Generated_Source\PSoC4/packets.c **** 
 965              		.loc 1 313 0
 966 00ca 2800     		movs	r0, r5
ARM GAS  C:\Users\ccheney\AppData\Local\Temp\ccXSPb4q.s 			page 30


 967              		@ sp needed
 968              	.LVL101:
 969              	.LVL102:
 970 00cc 70BD     		pop	{r4, r5, r6, pc}
 971              		.cfi_endproc
 972              	.LFE8:
 973              		.size	packets_constructPacket, .-packets_constructPacket
 974 00ce C046     		.section	.text.packets_sendPacket,"ax",%progbits
 975              		.align	2
 976              		.global	packets_sendPacket
 977              		.code	16
 978              		.thumb_func
 979              		.type	packets_sendPacket, %function
 980              	packets_sendPacket:
 981              	.LFB9:
 329:Generated_Source\PSoC4/packets.c ****     uint32_t error = packets_ERR_SUCCESS;
 982              		.loc 1 329 0
 983              		.cfi_startproc
 984              		@ args = 0, pretend = 0, frame = 0
 985              		@ frame_needed = 0, uses_anonymous_args = 0
 986              	.LVL103:
 987 0000 70B5     		push	{r4, r5, r6, lr}
 988              		.cfi_def_cfa_offset 16
 989              		.cfi_offset 4, -16
 990              		.cfi_offset 5, -12
 991              		.cfi_offset 6, -8
 992              		.cfi_offset 14, -4
 993 0002 0400     		movs	r4, r0
 994              	.LVL104:
 332:Generated_Source\PSoC4/packets.c ****     /* Create local references */
 995              		.loc 1 332 0
 996 0004 FFF7FEFF 		bl	packets_constructPacket
 997              	.LVL105:
 998 0008 0500     		movs	r5, r0
 999              	.LVL106:
 337:Generated_Source\PSoC4/packets.c ****        error |= packets_ERR_STATE;
 1000              		.loc 1 337 0
 1001 000a 2023     		movs	r3, #32
 1002 000c E35C     		ldrb	r3, [r4, r3]
 1003 000e 012B     		cmp	r3, #1
 1004 0010 02D0     		beq	.L65
 338:Generated_Source\PSoC4/packets.c ****     }
 1005              		.loc 1 338 0
 1006 0012 8023     		movs	r3, #128
 1007 0014 DB00     		lsls	r3, r3, #3
 1008 0016 1D43     		orrs	r5, r3
 1009              	.LVL107:
 1010              	.L65:
 341:Generated_Source\PSoC4/packets.c ****         error |= packets_ERR_CALLBACK;
 1011              		.loc 1 341 0
 1012 0018 E36C     		ldr	r3, [r4, #76]
 1013 001a 002B     		cmp	r3, #0
 1014 001c 02D1     		bne	.L66
 342:Generated_Source\PSoC4/packets.c ****     }
 1015              		.loc 1 342 0
 1016 001e 8022     		movs	r2, #128
 1017 0020 5201     		lsls	r2, r2, #5
ARM GAS  C:\Users\ccheney\AppData\Local\Temp\ccXSPb4q.s 			page 31


 1018 0022 1543     		orrs	r5, r2
 1019              	.LVL108:
 1020              	.L66:
 344:Generated_Source\PSoC4/packets.c ****         /* Write out the function */
 1021              		.loc 1 344 0
 1022 0024 002D     		cmp	r5, #0
 1023 0026 08D1     		bne	.L67
 348:Generated_Source\PSoC4/packets.c ****         /* Move back to the original state */
 1024              		.loc 1 348 0
 1025 0028 618B     		ldrh	r1, [r4, #26]
 1026 002a 6069     		ldr	r0, [r4, #20]
 1027 002c 9847     		blx	r3
 1028              	.LVL109:
 350:Generated_Source\PSoC4/packets.c ****         /* Flush the TX buffer */
 1029              		.loc 1 350 0
 1030 002e 0022     		movs	r2, #0
 1031 0030 2023     		movs	r3, #32
 1032 0032 E254     		strb	r2, [r4, r3]
 352:Generated_Source\PSoC4/packets.c **** 
 1033              		.loc 1 352 0
 1034 0034 2000     		movs	r0, r4
 1035 0036 FFF7FEFF 		bl	packets_flushTxBuffers
 1036              	.LVL110:
 1037              	.L67:
 356:Generated_Source\PSoC4/packets.c **** 
 1038              		.loc 1 356 0
 1039 003a 2800     		movs	r0, r5
 1040              		@ sp needed
 1041              	.LVL111:
 1042              	.LVL112:
 1043 003c 70BD     		pop	{r4, r5, r6, pc}
 1044              		.cfi_endproc
 1045              	.LFE9:
 1046              		.size	packets_sendPacket, .-packets_sendPacket
 1047 003e C046     		.section	.text.packets_acknowledgePacket,"ax",%progbits
 1048              		.align	2
 1049              		.global	packets_acknowledgePacket
 1050              		.code	16
 1051              		.thumb_func
 1052              		.type	packets_acknowledgePacket, %function
 1053              	packets_acknowledgePacket:
 1054              	.LFB12:
 560:Generated_Source\PSoC4/packets.c ****     packets_PACKET_S* rxPacket = &(packet->receive.packet);
 1055              		.loc 1 560 0
 1056              		.cfi_startproc
 1057              		@ args = 0, pretend = 0, frame = 0
 1058              		@ frame_needed = 0, uses_anonymous_args = 0
 1059              	.LVL113:
 1060 0000 10B5     		push	{r4, lr}
 1061              		.cfi_def_cfa_offset 8
 1062              		.cfi_offset 4, -8
 1063              		.cfi_offset 14, -4
 1064 0002 0400     		movs	r4, r0
 1065 0004 0B00     		movs	r3, r1
 561:Generated_Source\PSoC4/packets.c ****     packets_PACKET_S* txPacket = &(packet->send.packet);
 1066              		.loc 1 561 0
 1067 0006 2430     		adds	r0, r0, #36
ARM GAS  C:\Users\ccheney\AppData\Local\Temp\ccXSPb4q.s 			page 32


 1068              	.LVL114:
 564:Generated_Source\PSoC4/packets.c ****     txPacket->cmd = rxPacket->cmd;
 1069              		.loc 1 564 0
 1070 0008 2422     		movs	r2, #36
 1071 000a A25C     		ldrb	r2, [r4, r2]
 1072 000c 2270     		strb	r2, [r4]
 565:Generated_Source\PSoC4/packets.c ****     txPacket->flags = packets_FLAG_ACK;
 1073              		.loc 1 565 0
 1074 000e 4278     		ldrb	r2, [r0, #1]
 1075 0010 6270     		strb	r2, [r4, #1]
 566:Generated_Source\PSoC4/packets.c ****     /* Validate the command */
 1076              		.loc 1 566 0
 1077 0012 0122     		movs	r2, #1
 1078 0014 A281     		strh	r2, [r4, #12]
 568:Generated_Source\PSoC4/packets.c ****     uint32_t responseErr = packets_ERR_SUCCESS;
 1079              		.loc 1 568 0
 1080 0016 2100     		movs	r1, r4
 1081              	.LVL115:
 1082 0018 9847     		blx	r3
 1083              	.LVL116:
 571:Generated_Source\PSoC4/packets.c ****         /* Respond if the NO ACK flag is not set */
 1084              		.loc 1 571 0
 1085 001a 0028     		cmp	r0, #0
 1086 001c 05D1     		bne	.L69
 573:Generated_Source\PSoC4/packets.c ****             /* Send the response packet */
 1087              		.loc 1 573 0
 1088 001e 238E     		ldrh	r3, [r4, #48]
 1089 0020 9B07     		lsls	r3, r3, #30
 1090 0022 02D4     		bmi	.L69
 575:Generated_Source\PSoC4/packets.c ****         }
 1091              		.loc 1 575 0
 1092 0024 2000     		movs	r0, r4
 1093              	.LVL117:
 1094 0026 FFF7FEFF 		bl	packets_sendPacket
 1095              	.LVL118:
 1096              	.L69:
 582:Generated_Source\PSoC4/packets.c **** 
 1097              		.loc 1 582 0
 1098              		@ sp needed
 1099              	.LVL119:
 1100 002a 10BD     		pop	{r4, pc}
 1101              		.cfi_endproc
 1102              	.LFE12:
 1103              		.size	packets_acknowledgePacket, .-packets_acknowledgePacket
 1104              		.section	.text.packets_parsePacket,"ax",%progbits
 1105              		.align	2
 1106              		.global	packets_parsePacket
 1107              		.code	16
 1108              		.thumb_func
 1109              		.type	packets_parsePacket, %function
 1110              	packets_parsePacket:
 1111              	.LFB11:
 482:Generated_Source\PSoC4/packets.c ****     uint32_t error = packets_ERR_SUCCESS;
 1112              		.loc 1 482 0
 1113              		.cfi_startproc
 1114              		@ args = 0, pretend = 0, frame = 0
 1115              		@ frame_needed = 0, uses_anonymous_args = 0
ARM GAS  C:\Users\ccheney\AppData\Local\Temp\ccXSPb4q.s 			page 33


 1116              	.LVL120:
 1117 0000 70B5     		push	{r4, r5, r6, lr}
 1118              		.cfi_def_cfa_offset 16
 1119              		.cfi_offset 4, -16
 1120              		.cfi_offset 5, -12
 1121              		.cfi_offset 6, -8
 1122              		.cfi_offset 14, -4
 1123 0002 0500     		movs	r5, r0
 1124              	.LVL121:
 490:Generated_Source\PSoC4/packets.c ****         return packets_ERR_INCOMPLETE;    
 1125              		.loc 1 490 0
 1126 0004 4423     		movs	r3, #68
 1127 0006 C35C     		ldrb	r3, [r0, r3]
 1128 0008 042B     		cmp	r3, #4
 1129 000a 45D1     		bne	.L77
 494:Generated_Source\PSoC4/packets.c ****     if (startByte != packets_SYM_START) {
 1130              		.loc 1 494 0
 1131 000c 836B     		ldr	r3, [r0, #56]
 1132 000e 1A78     		ldrb	r2, [r3]
 1133              	.LVL122:
 495:Generated_Source\PSoC4/packets.c ****         error |= packets_ERR_START_SYM;
 1134              		.loc 1 495 0
 1135 0010 012A     		cmp	r2, #1
 1136 0012 01D1     		bne	.L78
 483:Generated_Source\PSoC4/packets.c ****     /* Create local references */
 1137              		.loc 1 483 0
 1138 0014 0024     		movs	r4, #0
 1139 0016 00E0     		b	.L72
 1140              	.L78:
 496:Generated_Source\PSoC4/packets.c ****     }
 1141              		.loc 1 496 0
 1142 0018 0224     		movs	r4, #2
 1143              	.L72:
 1144              	.LVL123:
 500:Generated_Source\PSoC4/packets.c ****     packet->cmd = cmd;
 1145              		.loc 1 500 0
 1146 001a 5878     		ldrb	r0, [r3, #1]
 1147              	.LVL124:
 501:Generated_Source\PSoC4/packets.c ****     /* Populate the module */
 1148              		.loc 1 501 0
 1149 001c 2900     		movs	r1, r5
 1150 001e 2431     		adds	r1, r1, #36
 1151 0020 4870     		strb	r0, [r1, #1]
 503:Generated_Source\PSoC4/packets.c ****     
 1152              		.loc 1 503 0
 1153 0022 FFF7FEFF 		bl	packets_getModuleFromCmd
 1154              	.LVL125:
 1155 0026 0443     		orrs	r4, r0
 1156              	.LVL126:
 506:Generated_Source\PSoC4/packets.c ****     if (packet->payloadLen > packets_LEN_MAX_PAYLOAD) {
 1157              		.loc 1 506 0
 1158 0028 A96B     		ldr	r1, [r5, #56]
 1159 002a 8A78     		ldrb	r2, [r1, #2]
 1160 002c 1202     		lsls	r2, r2, #8
 1161 002e CB78     		ldrb	r3, [r1, #3]
 1162 0030 1A43     		orrs	r2, r3
 1163 0032 EA85     		strh	r2, [r5, #46]
ARM GAS  C:\Users\ccheney\AppData\Local\Temp\ccXSPb4q.s 			page 34


 507:Generated_Source\PSoC4/packets.c ****         error |= packets_ERR_LENGTH;  
 1164              		.loc 1 507 0
 1165 0034 8023     		movs	r3, #128
 1166 0036 5B00     		lsls	r3, r3, #1
 1167 0038 9A42     		cmp	r2, r3
 1168 003a 01D9     		bls	.L73
 508:Generated_Source\PSoC4/packets.c ****     }
 1169              		.loc 1 508 0
 1170 003c F83B     		subs	r3, r3, #248
 1171 003e 1C43     		orrs	r4, r3
 1172              	.LVL127:
 1173              	.L73:
 512:Generated_Source\PSoC4/packets.c ****         error |= packets_ERR_MEMORY;   
 1174              		.loc 1 512 0
 1175 0040 A86A     		ldr	r0, [r5, #40]
 1176 0042 0028     		cmp	r0, #0
 1177 0044 01D1     		bne	.L74
 513:Generated_Source\PSoC4/packets.c ****     }
 1178              		.loc 1 513 0
 1179 0046 0123     		movs	r3, #1
 1180 0048 1C43     		orrs	r4, r3
 1181              	.LVL128:
 1182              	.L74:
 515:Generated_Source\PSoC4/packets.c ****         /* Transfer the payload to the new buffer */
 1183              		.loc 1 515 0
 1184 004a 002C     		cmp	r4, #0
 1185 004c 26D1     		bne	.L79
 1186              	.LBB5:
 517:Generated_Source\PSoC4/packets.c **** 
 1187              		.loc 1 517 0
 1188 004e 0431     		adds	r1, r1, #4
 1189 0050 FFF7FEFF 		bl	memmove
 1190              	.LVL129:
 520:Generated_Source\PSoC4/packets.c ****         /* Get the flags */
 1191              		.loc 1 520 0
 1192 0054 E98D     		ldrh	r1, [r5, #46]
 1193 0056 0E1D     		adds	r6, r1, #4
 1194 0058 AB6B     		ldr	r3, [r5, #56]
 1195 005a 9C46     		mov	ip, r3
 1196 005c 6644     		add	r6, r6, ip
 1197              	.LVL130:
 522:Generated_Source\PSoC4/packets.c ****         uint8 flags0 = *footerPtr++;
 1198              		.loc 1 522 0
 1199 005e 3378     		ldrb	r3, [r6]
 1200              	.LVL131:
 523:Generated_Source\PSoC4/packets.c ****         packet->flags = (uint32_t) ((flags1 << BITS_ONE_BYTE) | flags0);
 1201              		.loc 1 523 0
 1202 0060 7278     		ldrb	r2, [r6, #1]
 1203              	.LVL132:
 524:Generated_Source\PSoC4/packets.c ****         /* Validate checksum */
 1204              		.loc 1 524 0
 1205 0062 1B02     		lsls	r3, r3, #8
 1206              	.LVL133:
 1207 0064 1343     		orrs	r3, r2
 1208 0066 2B86     		strh	r3, [r5, #48]
 1209              	.LVL134:
 526:Generated_Source\PSoC4/packets.c ****         uint8 checkSumMsb = *footerPtr++;
ARM GAS  C:\Users\ccheney\AppData\Local\Temp\ccXSPb4q.s 			page 35


 1210              		.loc 1 526 0
 1211 0068 0631     		adds	r1, r1, #6
 1212 006a 89B2     		uxth	r1, r1
 1213 006c 6046     		mov	r0, ip
 1214 006e FFF7FEFF 		bl	packets_computeChecksum16
 1215              	.LVL135:
 527:Generated_Source\PSoC4/packets.c ****         uint8 checkSumLsb = *footerPtr++;
 1216              		.loc 1 527 0
 1217 0072 B378     		ldrb	r3, [r6, #2]
 1218              	.LVL136:
 528:Generated_Source\PSoC4/packets.c ****         uint16_t reportedChecksum = (checkSumMsb << BITS_ONE_BYTE) | checkSumLsb;
 1219              		.loc 1 528 0
 1220 0074 F278     		ldrb	r2, [r6, #3]
 1221              	.LVL137:
 529:Generated_Source\PSoC4/packets.c ****         if( calculatedChecksum != reportedChecksum) {
 1222              		.loc 1 529 0
 1223 0076 1B02     		lsls	r3, r3, #8
 1224              	.LVL138:
 1225 0078 1343     		orrs	r3, r2
 1226              	.LVL139:
 530:Generated_Source\PSoC4/packets.c ****             error |= packets_ERR_CHECKSUM;
 1227              		.loc 1 530 0
 1228 007a 9842     		cmp	r0, r3
 1229 007c 02D0     		beq	.L75
 531:Generated_Source\PSoC4/packets.c ****         }
 1230              		.loc 1 531 0
 1231 007e 8023     		movs	r3, #128
 1232              	.LVL140:
 1233 0080 9B00     		lsls	r3, r3, #2
 1234 0082 1C43     		orrs	r4, r3
 1235              	.LVL141:
 1236              	.L75:
 534:Generated_Source\PSoC4/packets.c ****         if (endSymbol != packets_SYM_END) {
 1237              		.loc 1 534 0
 1238 0084 3379     		ldrb	r3, [r6, #4]
 1239              	.LVL142:
 535:Generated_Source\PSoC4/packets.c ****             error|= packets_ERR_END_SYM;
 1240              		.loc 1 535 0
 1241 0086 AA2B     		cmp	r3, #170
 1242 0088 01D0     		beq	.L76
 536:Generated_Source\PSoC4/packets.c ****         }
 1243              		.loc 1 536 0
 1244 008a 0423     		movs	r3, #4
 1245              	.LVL143:
 1246 008c 1C43     		orrs	r4, r3
 1247              	.LVL144:
 1248              	.L76:
 539:Generated_Source\PSoC4/packets.c ****         /* Return the error code */
 1249              		.loc 1 539 0
 1250 008e 2800     		movs	r0, r5
 1251              	.LVL145:
 1252 0090 FFF7FEFF 		bl	packets_flushRxBuffers
 1253              	.LVL146:
 1254 0094 2000     		movs	r0, r4
 1255 0096 02E0     		b	.L71
 1256              	.LVL147:
 1257              	.L77:
ARM GAS  C:\Users\ccheney\AppData\Local\Temp\ccXSPb4q.s 			page 36


 1258              	.LBE5:
 491:Generated_Source\PSoC4/packets.c ****     }
 1259              		.loc 1 491 0
 1260 0098 2020     		movs	r0, #32
 1261              	.LVL148:
 1262 009a 00E0     		b	.L71
 1263              	.LVL149:
 1264              	.L79:
 1265 009c 2000     		movs	r0, r4
 1266              	.LVL150:
 1267              	.L71:
 543:Generated_Source\PSoC4/packets.c **** 
 1268              		.loc 1 543 0
 1269              		@ sp needed
 1270              	.LVL151:
 1271 009e 70BD     		pop	{r4, r5, r6, pc}
 1272              		.cfi_endproc
 1273              	.LFE11:
 1274              		.size	packets_parsePacket, .-packets_parsePacket
 1275              		.section	.text.packets_printPacket,"ax",%progbits
 1276              		.align	2
 1277              		.global	packets_printPacket
 1278              		.code	16
 1279              		.thumb_func
 1280              		.type	packets_printPacket, %function
 1281              	packets_printPacket:
 1282              	.LFB15:
 652:Generated_Source\PSoC4/packets.c **** 
 653:Generated_Source\PSoC4/packets.c **** /*******************************************************************************
 654:Generated_Source\PSoC4/packets.c **** * Function Name: packets_printPacket()
 655:Generated_Source\PSoC4/packets.c **** ****************************************************************************//**
 656:Generated_Source\PSoC4/packets.c **** * \brief
 657:Generated_Source\PSoC4/packets.c **** *  Prints the content of a packet
 658:Generated_Source\PSoC4/packets.c **** *
 659:Generated_Source\PSoC4/packets.c **** * \param packet [in]
 660:Generated_Source\PSoC4/packets.c **** *  Packet to display
 661:Generated_Source\PSoC4/packets.c **** * 
 662:Generated_Source\PSoC4/packets.c **** * \param fn [in]
 663:Generated_Source\PSoC4/packets.c **** *   Print function to use to display results
 664:Generated_Source\PSoC4/packets.c **** * 
 665:Generated_Source\PSoC4/packets.c **** * \return
 666:Generated_Source\PSoC4/packets.c **** *  None
 667:Generated_Source\PSoC4/packets.c **** *******************************************************************************/
 668:Generated_Source\PSoC4/packets.c ****   void packets_printPacket(packets_PACKET_S* packet, void (*printFn)(char *pszFmt, ...)){
 1283              		.loc 1 668 0
 1284              		.cfi_startproc
 1285              		@ args = 0, pretend = 0, frame = 0
 1286              		@ frame_needed = 0, uses_anonymous_args = 0
 1287              	.LVL152:
 1288 0000 F8B5     		push	{r3, r4, r5, r6, r7, lr}
 1289              		.cfi_def_cfa_offset 24
 1290              		.cfi_offset 3, -24
 1291              		.cfi_offset 4, -20
 1292              		.cfi_offset 5, -16
 1293              		.cfi_offset 6, -12
 1294              		.cfi_offset 7, -8
 1295              		.cfi_offset 14, -4
ARM GAS  C:\Users\ccheney\AppData\Local\Temp\ccXSPb4q.s 			page 37


 1296 0002 0600     		movs	r6, r0
 1297 0004 0D00     		movs	r5, r1
 669:Generated_Source\PSoC4/packets.c ****     printFn("\r\nModule Id: %d\r\n", packet->moduleId);
 1298              		.loc 1 669 0
 1299 0006 0178     		ldrb	r1, [r0]
 1300              	.LVL153:
 1301 0008 0D48     		ldr	r0, .L83
 1302              	.LVL154:
 1303 000a A847     		blx	r5
 1304              	.LVL155:
 670:Generated_Source\PSoC4/packets.c ****     printFn("Command: %x\r\n", packet->cmd);
 1305              		.loc 1 670 0
 1306 000c 7178     		ldrb	r1, [r6, #1]
 1307 000e 0D48     		ldr	r0, .L83+4
 1308 0010 A847     		blx	r5
 1309              	.LVL156:
 671:Generated_Source\PSoC4/packets.c ****     uint16_t len = packet->payloadLen; 
 1310              		.loc 1 671 0
 1311 0012 7789     		ldrh	r7, [r6, #10]
 1312              	.LVL157:
 672:Generated_Source\PSoC4/packets.c ****     printFn("payload Len: %d\r\n", len);
 1313              		.loc 1 672 0
 1314 0014 3900     		movs	r1, r7
 1315 0016 0C48     		ldr	r0, .L83+8
 1316 0018 A847     		blx	r5
 1317              	.LVL158:
 673:Generated_Source\PSoC4/packets.c ****     printFn("Payload:[ ", packet->cmd);
 1318              		.loc 1 673 0
 1319 001a 7178     		ldrb	r1, [r6, #1]
 1320 001c 0B48     		ldr	r0, .L83+12
 1321 001e A847     		blx	r5
 1322              	.LVL159:
 674:Generated_Source\PSoC4/packets.c ****     uint16_t i;
 675:Generated_Source\PSoC4/packets.c ****     for(i = ZERO; i<len; i++){
 1323              		.loc 1 675 0
 1324 0020 0024     		movs	r4, #0
 1325 0022 05E0     		b	.L81
 1326              	.LVL160:
 1327              	.L82:
 676:Generated_Source\PSoC4/packets.c ****         printFn("0x%x ",packet->payload[i]);
 1328              		.loc 1 676 0 discriminator 3
 1329 0024 7368     		ldr	r3, [r6, #4]
 1330 0026 195D     		ldrb	r1, [r3, r4]
 1331 0028 0948     		ldr	r0, .L83+16
 1332 002a A847     		blx	r5
 1333              	.LVL161:
 675:Generated_Source\PSoC4/packets.c ****         printFn("0x%x ",packet->payload[i]);
 1334              		.loc 1 675 0 discriminator 3
 1335 002c 0134     		adds	r4, r4, #1
 1336              	.LVL162:
 1337 002e A4B2     		uxth	r4, r4
 1338              	.LVL163:
 1339              	.L81:
 675:Generated_Source\PSoC4/packets.c ****         printFn("0x%x ",packet->payload[i]);
 1340              		.loc 1 675 0 is_stmt 0 discriminator 1
 1341 0030 BC42     		cmp	r4, r7
 1342 0032 F7D3     		bcc	.L82
ARM GAS  C:\Users\ccheney\AppData\Local\Temp\ccXSPb4q.s 			page 38


 677:Generated_Source\PSoC4/packets.c ****     }
 678:Generated_Source\PSoC4/packets.c ****     printFn("]\r\n");
 1343              		.loc 1 678 0 is_stmt 1
 1344 0034 0748     		ldr	r0, .L83+20
 1345 0036 A847     		blx	r5
 1346              	.LVL164:
 679:Generated_Source\PSoC4/packets.c ****     printFn("Flags: 0x%x\r\n\r\n", packet->flags);
 1347              		.loc 1 679 0
 1348 0038 B189     		ldrh	r1, [r6, #12]
 1349 003a 0748     		ldr	r0, .L83+24
 1350 003c A847     		blx	r5
 1351              	.LVL165:
 680:Generated_Source\PSoC4/packets.c **** }
 1352              		.loc 1 680 0
 1353              		@ sp needed
 1354              	.LVL166:
 1355              	.LVL167:
 1356              	.LVL168:
 1357              	.LVL169:
 1358 003e F8BD     		pop	{r3, r4, r5, r6, r7, pc}
 1359              	.L84:
 1360              		.align	2
 1361              	.L83:
 1362 0040 00000000 		.word	.LC1
 1363 0044 14000000 		.word	.LC3
 1364 0048 24000000 		.word	.LC5
 1365 004c 38000000 		.word	.LC7
 1366 0050 44000000 		.word	.LC9
 1367 0054 4C000000 		.word	.LC11
 1368 0058 50000000 		.word	.LC13
 1369              		.cfi_endproc
 1370              	.LFE15:
 1371              		.size	packets_printPacket, .-packets_printPacket
 1372              		.section	.rodata.str1.4,"aMS",%progbits,1
 1373              		.align	2
 1374              	.LC1:
 1375 0000 0D0A4D6F 		.ascii	"\015\012Module Id: %d\015\012\000"
 1375      64756C65 
 1375      2049643A 
 1375      2025640D 
 1375      0A00
 1376 0012 0000     		.space	2
 1377              	.LC3:
 1378 0014 436F6D6D 		.ascii	"Command: %x\015\012\000"
 1378      616E643A 
 1378      2025780D 
 1378      0A00
 1379 0022 0000     		.space	2
 1380              	.LC5:
 1381 0024 7061796C 		.ascii	"payload Len: %d\015\012\000"
 1381      6F616420 
 1381      4C656E3A 
 1381      2025640D 
 1381      0A00
 1382 0036 0000     		.space	2
 1383              	.LC7:
 1384 0038 5061796C 		.ascii	"Payload:[ \000"
ARM GAS  C:\Users\ccheney\AppData\Local\Temp\ccXSPb4q.s 			page 39


 1384      6F61643A 
 1384      5B2000
 1385 0043 00       		.space	1
 1386              	.LC9:
 1387 0044 30782578 		.ascii	"0x%x \000"
 1387      2000
 1388 004a 0000     		.space	2
 1389              	.LC11:
 1390 004c 5D0D0A00 		.ascii	"]\015\012\000"
 1391              	.LC13:
 1392 0050 466C6167 		.ascii	"Flags: 0x%x\015\012\015\012\000"
 1392      733A2030 
 1392      7825780D 
 1392      0A0D0A00 
 1393              		.text
 1394              	.Letext0:
 1395              		.file 2 "c:\\program files (x86)\\cypress\\psoc creator\\4.2\\psoc creator\\import\\gnu\\arm\\5.4.
 1396              		.file 3 "c:\\program files (x86)\\cypress\\psoc creator\\4.2\\psoc creator\\import\\gnu\\arm\\5.4.
 1397              		.file 4 "Generated_Source\\PSoC4\\cytypes.h"
 1398              		.file 5 "Generated_Source\\PSoC4\\packets.h"
 1399              		.file 6 "c:\\program files (x86)\\cypress\\psoc creator\\4.2\\psoc creator\\import\\gnu\\arm\\5.4.
 1400              		.file 7 "c:\\program files (x86)\\cypress\\psoc creator\\4.2\\psoc creator\\import\\gnu\\arm\\5.4.