ARM GAS  C:\Users\ccheney\AppData\Local\Temp\ccvHAwnp.s 			page 1


   1              		.syntax unified
   2              		.cpu cortex-m0
   3              		.fpu softvfp
   4              		.eabi_attribute 20, 1
   5              		.eabi_attribute 21, 1
   6              		.eabi_attribute 23, 3
   7              		.eabi_attribute 24, 1
   8              		.eabi_attribute 25, 1
   9              		.eabi_attribute 26, 1
  10              		.eabi_attribute 30, 1
  11              		.eabi_attribute 34, 0
  12              		.eabi_attribute 18, 4
  13              		.thumb
  14              		.syntax unified
  15              		.file	"usbUart.c"
  16              		.text
  17              	.Ltext0:
  18              		.cfi_sections	.debug_frame
  19              		.section	.text.usbUart_putString,"ax",%progbits
  20              		.align	2
  21              		.global	usbUart_putString
  22              		.code	16
  23              		.thumb_func
  24              		.type	usbUart_putString, %function
  25              	usbUart_putString:
  26              	.LFB2:
  27              		.file 1 "Generated_Source\\PSoC4\\usbUart.c"
   1:Generated_Source\PSoC4/usbUart.c **** /***************************************************************************//**
   2:Generated_Source\PSoC4/usbUart.c **** * \file usbUart.c
   3:Generated_Source\PSoC4/usbUart.c **** * \version 0.1.0
   4:Generated_Source\PSoC4/usbUart.c **** *
   5:Generated_Source\PSoC4/usbUart.c **** * \brief
   6:Generated_Source\PSoC4/usbUart.c **** *   Simple print functionality
   7:Generated_Source\PSoC4/usbUart.c **** *
   8:Generated_Source\PSoC4/usbUart.c **** * \date Date Created:  2017.12.19
   9:Generated_Source\PSoC4/usbUart.c **** * \date Last Modified: 2017.12.19
  10:Generated_Source\PSoC4/usbUart.c **** *
  11:Generated_Source\PSoC4/usbUart.c **** ********************************************************************************
  12:Generated_Source\PSoC4/usbUart.c **** * \copyright
  13:Generated_Source\PSoC4/usbUart.c **** * Copyright 2017, MICA. All rights reserved.
  14:Generated_Source\PSoC4/usbUart.c **** *******************************************************************************/
  15:Generated_Source\PSoC4/usbUart.c **** #include "usbUart.h"
  16:Generated_Source\PSoC4/usbUart.c **** #include "UART_USB_SPI_UART.h"
  17:Generated_Source\PSoC4/usbUart.c **** #include "micaCommon.h"
  18:Generated_Source\PSoC4/usbUart.c **** 
  19:Generated_Source\PSoC4/usbUart.c **** 
  20:Generated_Source\PSoC4/usbUart.c **** /*******************************************************************************
  21:Generated_Source\PSoC4/usbUart.c **** * Function Name: usbUart_putString()
  22:Generated_Source\PSoC4/usbUart.c **** ****************************************************************************//**
  23:Generated_Source\PSoC4/usbUart.c **** *
  24:Generated_Source\PSoC4/usbUart.c **** * \brief Prints out the string starting at address passsed until a null character
  25:Generated_Source\PSoC4/usbUart.c ****     is reached.
  26:Generated_Source\PSoC4/usbUart.c **** *
  27:Generated_Source\PSoC4/usbUart.c **** * \param Address of array, must be zero terminated
  28:Generated_Source\PSoC4/usbUart.c **** *
  29:Generated_Source\PSoC4/usbUart.c **** * \return
  30:Generated_Source\PSoC4/usbUart.c **** * None
ARM GAS  C:\Users\ccheney\AppData\Local\Temp\ccvHAwnp.s 			page 2


  31:Generated_Source\PSoC4/usbUart.c ****  *******************************************************************************/
  32:Generated_Source\PSoC4/usbUart.c **** void usbUart_putString(char * str){
  28              		.loc 1 32 0
  29              		.cfi_startproc
  30              		@ args = 0, pretend = 0, frame = 0
  31              		@ frame_needed = 0, uses_anonymous_args = 0
  32              	.LVL0:
  33 0000 10B5     		push	{r4, lr}
  34              		.cfi_def_cfa_offset 8
  35              		.cfi_offset 4, -8
  36              		.cfi_offset 14, -4
  37 0002 0400     		movs	r4, r0
  33:Generated_Source\PSoC4/usbUart.c ****     /* Iterate until a zero is hit */
  34:Generated_Source\PSoC4/usbUart.c ****     while(*str){
  38              		.loc 1 34 0
  39 0004 02E0     		b	.L2
  40              	.LVL1:
  41              	.L3:
  35:Generated_Source\PSoC4/usbUart.c ****         usbUart_putChar(*str);
  42              		.loc 1 35 0
  43 0006 FFF7FEFF 		bl	UART_USB_SpiUartWriteTxData
  44              	.LVL2:
  36:Generated_Source\PSoC4/usbUart.c ****         /* Increment index */
  37:Generated_Source\PSoC4/usbUart.c ****         str++;
  45              		.loc 1 37 0
  46 000a 0134     		adds	r4, r4, #1
  47              	.LVL3:
  48              	.L2:
  34:Generated_Source\PSoC4/usbUart.c ****         usbUart_putChar(*str);
  49              		.loc 1 34 0
  50 000c 2078     		ldrb	r0, [r4]
  51 000e 0028     		cmp	r0, #0
  52 0010 F9D1     		bne	.L3
  38:Generated_Source\PSoC4/usbUart.c ****     }
  39:Generated_Source\PSoC4/usbUart.c ****     
  40:Generated_Source\PSoC4/usbUart.c **** }
  53              		.loc 1 40 0
  54              		@ sp needed
  55              	.LVL4:
  56 0012 10BD     		pop	{r4, pc}
  57              		.cfi_endproc
  58              	.LFE2:
  59              		.size	usbUart_putString, .-usbUart_putString
  60              		.section	.text.usbUart_putArray,"ax",%progbits
  61              		.align	2
  62              		.global	usbUart_putArray
  63              		.code	16
  64              		.thumb_func
  65              		.type	usbUart_putArray, %function
  66              	usbUart_putArray:
  67              	.LFB3:
  41:Generated_Source\PSoC4/usbUart.c **** 
  42:Generated_Source\PSoC4/usbUart.c **** /*******************************************************************************
  43:Generated_Source\PSoC4/usbUart.c **** * Function Name: usbUart_putArray()
  44:Generated_Source\PSoC4/usbUart.c **** ****************************************************************************//**
  45:Generated_Source\PSoC4/usbUart.c **** *
  46:Generated_Source\PSoC4/usbUart.c **** * \brief Prints out the data starting at the addressed passed in, for the specified 
ARM GAS  C:\Users\ccheney\AppData\Local\Temp\ccvHAwnp.s 			page 3


  47:Generated_Source\PSoC4/usbUart.c **** *   length
  48:Generated_Source\PSoC4/usbUart.c **** *
  49:Generated_Source\PSoC4/usbUart.c **** * \param Array  - Address of array with the data to print
  50:Generated_Source\PSoC4/usbUart.c **** *
  51:Generated_Source\PSoC4/usbUart.c **** * \param length - Length of data to write
  52:Generated_Source\PSoC4/usbUart.c **** *
  53:Generated_Source\PSoC4/usbUart.c **** * \return
  54:Generated_Source\PSoC4/usbUart.c **** * None
  55:Generated_Source\PSoC4/usbUart.c ****  *******************************************************************************/
  56:Generated_Source\PSoC4/usbUart.c **** void usbUart_putArray(uint8 * array, uint16 length){
  68              		.loc 1 56 0
  69              		.cfi_startproc
  70              		@ args = 0, pretend = 0, frame = 0
  71              		@ frame_needed = 0, uses_anonymous_args = 0
  72              	.LVL5:
  73 0000 70B5     		push	{r4, r5, r6, lr}
  74              		.cfi_def_cfa_offset 16
  75              		.cfi_offset 4, -16
  76              		.cfi_offset 5, -12
  77              		.cfi_offset 6, -8
  78              		.cfi_offset 14, -4
  79 0002 0500     		movs	r5, r0
  80 0004 0E00     		movs	r6, r1
  81              	.LVL6:
  57:Generated_Source\PSoC4/usbUart.c ****     uint8 i;
  58:Generated_Source\PSoC4/usbUart.c ****     /* Loop until length satisfacition is met*/
  59:Generated_Source\PSoC4/usbUart.c ****     for(i=ZERO; i < length; i++){
  82              		.loc 1 59 0
  83 0006 0024     		movs	r4, #0
  84 0008 05E0     		b	.L5
  85              	.LVL7:
  86              	.L6:
  60:Generated_Source\PSoC4/usbUart.c ****         usbUart_putChar(*array);
  87              		.loc 1 60 0 discriminator 3
  88 000a 2878     		ldrb	r0, [r5]
  89 000c FFF7FEFF 		bl	UART_USB_SpiUartWriteTxData
  90              	.LVL8:
  61:Generated_Source\PSoC4/usbUart.c ****         /* Increment index */
  62:Generated_Source\PSoC4/usbUart.c ****         array++;
  91              		.loc 1 62 0 discriminator 3
  92 0010 0135     		adds	r5, r5, #1
  93              	.LVL9:
  59:Generated_Source\PSoC4/usbUart.c ****         usbUart_putChar(*array);
  94              		.loc 1 59 0 discriminator 3
  95 0012 0134     		adds	r4, r4, #1
  96              	.LVL10:
  97 0014 E4B2     		uxtb	r4, r4
  98              	.LVL11:
  99              	.L5:
  59:Generated_Source\PSoC4/usbUart.c ****         usbUart_putChar(*array);
 100              		.loc 1 59 0 is_stmt 0 discriminator 1
 101 0016 A3B2     		uxth	r3, r4
 102 0018 B342     		cmp	r3, r6
 103 001a F6D3     		bcc	.L6
  63:Generated_Source\PSoC4/usbUart.c ****     }
  64:Generated_Source\PSoC4/usbUart.c ****     
  65:Generated_Source\PSoC4/usbUart.c **** }
ARM GAS  C:\Users\ccheney\AppData\Local\Temp\ccvHAwnp.s 			page 4


 104              		.loc 1 65 0 is_stmt 1
 105              		@ sp needed
 106              	.LVL12:
 107              	.LVL13:
 108 001c 70BD     		pop	{r4, r5, r6, pc}
 109              		.cfi_endproc
 110              	.LFE3:
 111              		.size	usbUart_putArray, .-usbUart_putArray
 112              		.global	__aeabi_uidivmod
 113              		.global	__aeabi_uidiv
 114 001e C046     		.section	.text.usbUart_print,"ax",%progbits
 115              		.align	2
 116              		.global	usbUart_print
 117              		.code	16
 118              		.thumb_func
 119              		.type	usbUart_print, %function
 120              	usbUart_print:
 121              	.LFB5:
  66:Generated_Source\PSoC4/usbUart.c **** 
  67:Generated_Source\PSoC4/usbUart.c **** 
  68:Generated_Source\PSoC4/usbUart.c **** /*******************************************************************************
  69:Generated_Source\PSoC4/usbUart.c **** * Function Name: usbUart_changeBase()
  70:Generated_Source\PSoC4/usbUart.c **** ****************************************************************************//**
  71:Generated_Source\PSoC4/usbUart.c **** *
  72:Generated_Source\PSoC4/usbUart.c **** * \brief Changes the base to hex from decimal
  73:Generated_Source\PSoC4/usbUart.c **** *
  74:Generated_Source\PSoC4/usbUart.c **** * \param Index
  75:Generated_Source\PSoC4/usbUart.c **** *  new value
  76:Generated_Source\PSoC4/usbUart.c **** *
  77:Generated_Source\PSoC4/usbUart.c **** * \return
  78:Generated_Source\PSoC4/usbUart.c **** * None
  79:Generated_Source\PSoC4/usbUart.c ****  *******************************************************************************/
  80:Generated_Source\PSoC4/usbUart.c **** static inline uint8* usbUart_changeBase(uint32 Index)
  81:Generated_Source\PSoC4/usbUart.c **** {
  82:Generated_Source\PSoC4/usbUart.c ****     return (uint8*)("0123456789ABCDEF"+Index);
  83:Generated_Source\PSoC4/usbUart.c **** }
  84:Generated_Source\PSoC4/usbUart.c **** 
  85:Generated_Source\PSoC4/usbUart.c **** /*******************************************************************************
  86:Generated_Source\PSoC4/usbUart.c **** * Function Name: usbUart_print()
  87:Generated_Source\PSoC4/usbUart.c **** ****************************************************************************//**
  88:Generated_Source\PSoC4/usbUart.c **** *
  89:Generated_Source\PSoC4/usbUart.c **** * \brief Prints out the string
  90:Generated_Source\PSoC4/usbUart.c **** *
  91:Generated_Source\PSoC4/usbUart.c **** * \param pszFmt
  92:Generated_Source\PSoC4/usbUart.c **** *   Pointer to string, zero formatted. String to print out, accepts %d, %s, %x, %c
  93:Generated_Source\PSoC4/usbUart.c **** *
  94:Generated_Source\PSoC4/usbUart.c **** * \return
  95:Generated_Source\PSoC4/usbUart.c **** * None
  96:Generated_Source\PSoC4/usbUart.c ****  *******************************************************************************/
  97:Generated_Source\PSoC4/usbUart.c **** void usbUart_print(char8 *pszFmt,...){
 122              		.loc 1 97 0
 123              		.cfi_startproc
 124              		@ args = 4, pretend = 16, frame = 48
 125              		@ frame_needed = 0, uses_anonymous_args = 1
 126              	.LVL14:
 127 0000 0FB4     		push	{r0, r1, r2, r3}
 128              		.cfi_def_cfa_offset 16
ARM GAS  C:\Users\ccheney\AppData\Local\Temp\ccvHAwnp.s 			page 5


 129 0002 F0B5     		push	{r4, r5, r6, r7, lr}
 130              		.cfi_def_cfa_offset 36
 131              		.cfi_offset 4, -36
 132              		.cfi_offset 5, -32
 133              		.cfi_offset 6, -28
 134              		.cfi_offset 7, -24
 135              		.cfi_offset 14, -20
 136 0004 8DB0     		sub	sp, sp, #52
 137              		.cfi_def_cfa_offset 88
 138              	.LVL15:
  98:Generated_Source\PSoC4/usbUart.c ****     uint8 *pszVal;
  99:Generated_Source\PSoC4/usbUart.c ****     uint32 iVal, xVal, i = 0, buffer[12], index = 1;
 139              		.loc 1 99 0
 140 0006 0124     		movs	r4, #1
 100:Generated_Source\PSoC4/usbUart.c ****     uint8 cVal;
 101:Generated_Source\PSoC4/usbUart.c ****     uint32 *pArg;
 102:Generated_Source\PSoC4/usbUart.c ****     pArg =(uint32 *)&pszFmt;
 103:Generated_Source\PSoC4/usbUart.c **** 
 104:Generated_Source\PSoC4/usbUart.c ****     while(*pszFmt)
 141              		.loc 1 104 0
 142 0008 8AE0     		b	.L8
 143              	.LVL16:
 144              	.L26:
 105:Generated_Source\PSoC4/usbUart.c ****     {
 106:Generated_Source\PSoC4/usbUart.c ****         if('%' != *pszFmt)
 145              		.loc 1 106 0
 146 000a 2528     		cmp	r0, #37
 147 000c 05D0     		beq	.L9
 107:Generated_Source\PSoC4/usbUart.c ****         {
 108:Generated_Source\PSoC4/usbUart.c ****             usbUart_putChar(*pszFmt);
 148              		.loc 1 108 0
 149 000e FFF7FEFF 		bl	UART_USB_SpiUartWriteTxData
 150              	.LVL17:
 109:Generated_Source\PSoC4/usbUart.c ****             pszFmt++;
 151              		.loc 1 109 0
 152 0012 129B     		ldr	r3, [sp, #72]
 153 0014 0133     		adds	r3, r3, #1
 154 0016 1293     		str	r3, [sp, #72]
 110:Generated_Source\PSoC4/usbUart.c ****             continue;
 155              		.loc 1 110 0
 156 0018 82E0     		b	.L8
 157              	.L9:
 111:Generated_Source\PSoC4/usbUart.c ****         }
 112:Generated_Source\PSoC4/usbUart.c ****         pszFmt++;
 158              		.loc 1 112 0
 159 001a 5A1C     		adds	r2, r3, #1
 160 001c 1292     		str	r2, [sp, #72]
 113:Generated_Source\PSoC4/usbUart.c **** 
 114:Generated_Source\PSoC4/usbUart.c ****         if(*pszFmt == 's')
 161              		.loc 1 114 0
 162 001e 5B78     		ldrb	r3, [r3, #1]
 163 0020 732B     		cmp	r3, #115
 164 0022 11D1     		bne	.L11
 115:Generated_Source\PSoC4/usbUart.c ****         {
 116:Generated_Source\PSoC4/usbUart.c ****             pszVal = (uint8*)pArg[index++];
 165              		.loc 1 116 0
 166 0024 651C     		adds	r5, r4, #1
ARM GAS  C:\Users\ccheney\AppData\Local\Temp\ccvHAwnp.s 			page 6


 167              	.LVL18:
 168 0026 A400     		lsls	r4, r4, #2
 169 0028 12AB     		add	r3, sp, #72
 170              	.LVL19:
 171 002a 9C46     		mov	ip, r3
 172 002c 6444     		add	r4, r4, ip
 173 002e 2468     		ldr	r4, [r4]
 174              	.LVL20:
 117:Generated_Source\PSoC4/usbUart.c ****             for(; *pszVal != '\0'; pszVal++)
 175              		.loc 1 117 0
 176 0030 02E0     		b	.L12
 177              	.LVL21:
 178              	.L13:
 118:Generated_Source\PSoC4/usbUart.c ****                 usbUart_putChar(*pszVal);
 179              		.loc 1 118 0 discriminator 2
 180 0032 FFF7FEFF 		bl	UART_USB_SpiUartWriteTxData
 181              	.LVL22:
 117:Generated_Source\PSoC4/usbUart.c ****             for(; *pszVal != '\0'; pszVal++)
 182              		.loc 1 117 0 discriminator 2
 183 0036 0134     		adds	r4, r4, #1
 184              	.LVL23:
 185              	.L12:
 117:Generated_Source\PSoC4/usbUart.c ****             for(; *pszVal != '\0'; pszVal++)
 186              		.loc 1 117 0 is_stmt 0 discriminator 1
 187 0038 2078     		ldrb	r0, [r4]
 188 003a 0028     		cmp	r0, #0
 189 003c F9D1     		bne	.L13
 119:Generated_Source\PSoC4/usbUart.c ****             pszFmt++;
 190              		.loc 1 119 0 is_stmt 1
 191 003e 129B     		ldr	r3, [sp, #72]
 192 0040 0133     		adds	r3, r3, #1
 193 0042 1293     		str	r3, [sp, #72]
 116:Generated_Source\PSoC4/usbUart.c ****             for(; *pszVal != '\0'; pszVal++)
 194              		.loc 1 116 0
 195 0044 2C00     		movs	r4, r5
 196              	.LVL24:
 120:Generated_Source\PSoC4/usbUart.c ****             continue;
 197              		.loc 1 120 0
 198 0046 6BE0     		b	.L8
 199              	.LVL25:
 200              	.L11:
 121:Generated_Source\PSoC4/usbUart.c ****         }
 122:Generated_Source\PSoC4/usbUart.c ****         if(*pszFmt == 'd')
 201              		.loc 1 122 0
 202 0048 642B     		cmp	r3, #100
 203 004a 26D1     		bne	.L14
 123:Generated_Source\PSoC4/usbUart.c ****         {
 124:Generated_Source\PSoC4/usbUart.c ****             iVal = pArg[index++];
 204              		.loc 1 124 0
 205 004c 671C     		adds	r7, r4, #1
 206              	.LVL26:
 207 004e A400     		lsls	r4, r4, #2
 208 0050 12AB     		add	r3, sp, #72
 209              	.LVL27:
 210 0052 9C46     		mov	ip, r3
 211 0054 6444     		add	r4, r4, ip
 212 0056 2668     		ldr	r6, [r4]
ARM GAS  C:\Users\ccheney\AppData\Local\Temp\ccvHAwnp.s 			page 7


 213              	.LVL28:
 125:Generated_Source\PSoC4/usbUart.c ****             i = 0;
 214              		.loc 1 125 0
 215 0058 0025     		movs	r5, #0
 216              	.LVL29:
 217              	.L15:
 126:Generated_Source\PSoC4/usbUart.c ****             do{
 127:Generated_Source\PSoC4/usbUart.c ****                 buffer[i++] = iVal % 10;
 218              		.loc 1 127 0 discriminator 1
 219 005a 6C1C     		adds	r4, r5, #1
 220              	.LVL30:
 221 005c 0A21     		movs	r1, #10
 222 005e 3000     		movs	r0, r6
 223 0060 FFF7FEFF 		bl	__aeabi_uidivmod
 224              	.LVL31:
 225 0064 AD00     		lsls	r5, r5, #2
 226 0066 6B46     		mov	r3, sp
 227 0068 E950     		str	r1, [r5, r3]
 128:Generated_Source\PSoC4/usbUart.c ****                 iVal /= 10;
 228              		.loc 1 128 0 discriminator 1
 229 006a 0A21     		movs	r1, #10
 230 006c 3000     		movs	r0, r6
 231 006e FFF7FEFF 		bl	__aeabi_uidiv
 232              	.LVL32:
 233 0072 0600     		movs	r6, r0
 234              	.LVL33:
 127:Generated_Source\PSoC4/usbUart.c ****                 iVal /= 10;
 235              		.loc 1 127 0 discriminator 1
 236 0074 2500     		movs	r5, r4
 129:Generated_Source\PSoC4/usbUart.c ****             }while(iVal);
 237              		.loc 1 129 0 discriminator 1
 238 0076 0028     		cmp	r0, #0
 239 0078 EFD1     		bne	.L15
 240 007a 07E0     		b	.L16
 241              	.LVL34:
 242              	.L17:
 130:Generated_Source\PSoC4/usbUart.c ****             while(i > 0)
 131:Generated_Source\PSoC4/usbUart.c ****             {
 132:Generated_Source\PSoC4/usbUart.c ****                 i--;
 243              		.loc 1 132 0
 244 007c 013C     		subs	r4, r4, #1
 245              	.LVL35:
 133:Generated_Source\PSoC4/usbUart.c ****                 usbUart_putChar(*usbUart_changeBase(buffer[i]));
 246              		.loc 1 133 0
 247 007e A300     		lsls	r3, r4, #2
 248 0080 6A46     		mov	r2, sp
 249 0082 9B58     		ldr	r3, [r3, r2]
 250              	.LVL36:
 251 0084 2B4A     		ldr	r2, .L28
 252 0086 D05C     		ldrb	r0, [r2, r3]
 253 0088 FFF7FEFF 		bl	UART_USB_SpiUartWriteTxData
 254              	.LVL37:
 255              	.L16:
 130:Generated_Source\PSoC4/usbUart.c ****             while(i > 0)
 256              		.loc 1 130 0
 257 008c 002C     		cmp	r4, #0
 258 008e F5D1     		bne	.L17
ARM GAS  C:\Users\ccheney\AppData\Local\Temp\ccvHAwnp.s 			page 8


 134:Generated_Source\PSoC4/usbUart.c ****             }
 135:Generated_Source\PSoC4/usbUart.c ****             pszFmt++;
 259              		.loc 1 135 0
 260 0090 129B     		ldr	r3, [sp, #72]
 261 0092 0133     		adds	r3, r3, #1
 262 0094 1293     		str	r3, [sp, #72]
 124:Generated_Source\PSoC4/usbUart.c ****             i = 0;
 263              		.loc 1 124 0
 264 0096 3C00     		movs	r4, r7
 265              	.LVL38:
 136:Generated_Source\PSoC4/usbUart.c ****             continue;
 266              		.loc 1 136 0
 267 0098 42E0     		b	.L8
 268              	.LVL39:
 269              	.L14:
 137:Generated_Source\PSoC4/usbUart.c ****         }
 138:Generated_Source\PSoC4/usbUart.c ****         if(*pszFmt == 'c')
 270              		.loc 1 138 0
 271 009a 632B     		cmp	r3, #99
 272 009c 0ED1     		bne	.L18
 139:Generated_Source\PSoC4/usbUart.c ****         {
 140:Generated_Source\PSoC4/usbUart.c ****             cVal = (uint8)pArg[index++];
 273              		.loc 1 140 0
 274 009e 651C     		adds	r5, r4, #1
 275              	.LVL40:
 276 00a0 A400     		lsls	r4, r4, #2
 277 00a2 12AB     		add	r3, sp, #72
 278              	.LVL41:
 279 00a4 9C46     		mov	ip, r3
 280 00a6 6444     		add	r4, r4, ip
 281 00a8 2368     		ldr	r3, [r4]
 282              	.LVL42:
 141:Generated_Source\PSoC4/usbUart.c ****             usbUart_putChar(cVal);
 283              		.loc 1 141 0
 284 00aa FF20     		movs	r0, #255
 285 00ac 1840     		ands	r0, r3
 286 00ae FFF7FEFF 		bl	UART_USB_SpiUartWriteTxData
 287              	.LVL43:
 142:Generated_Source\PSoC4/usbUart.c ****             pszFmt++;
 288              		.loc 1 142 0
 289 00b2 129B     		ldr	r3, [sp, #72]
 290 00b4 0133     		adds	r3, r3, #1
 291 00b6 1293     		str	r3, [sp, #72]
 140:Generated_Source\PSoC4/usbUart.c ****             usbUart_putChar(cVal);
 292              		.loc 1 140 0
 293 00b8 2C00     		movs	r4, r5
 143:Generated_Source\PSoC4/usbUart.c ****             continue;
 294              		.loc 1 143 0
 295 00ba 31E0     		b	.L8
 296              	.LVL44:
 297              	.L18:
 144:Generated_Source\PSoC4/usbUart.c ****         }
 145:Generated_Source\PSoC4/usbUart.c ****         if(*pszFmt == 'x')
 298              		.loc 1 145 0
 299 00bc 782B     		cmp	r3, #120
 300 00be 2DD1     		bne	.L19
 146:Generated_Source\PSoC4/usbUart.c ****         {
ARM GAS  C:\Users\ccheney\AppData\Local\Temp\ccvHAwnp.s 			page 9


 147:Generated_Source\PSoC4/usbUart.c ****             xVal = pArg[index++];
 301              		.loc 1 147 0
 302 00c0 651C     		adds	r5, r4, #1
 303              	.LVL45:
 304 00c2 A400     		lsls	r4, r4, #2
 305 00c4 12AB     		add	r3, sp, #72
 306              	.LVL46:
 307 00c6 9C46     		mov	ip, r3
 308 00c8 6444     		add	r4, r4, ip
 309 00ca 2368     		ldr	r3, [r4]
 310              	.LVL47:
 148:Generated_Source\PSoC4/usbUart.c ****             i = 0;
 311              		.loc 1 148 0
 312 00cc 0020     		movs	r0, #0
 313 00ce 00E0     		b	.L20
 314              	.LVL48:
 315              	.L27:
 149:Generated_Source\PSoC4/usbUart.c ****             do{
 150:Generated_Source\PSoC4/usbUart.c ****                 buffer[i++] = xVal % 16;
 316              		.loc 1 150 0
 317 00d0 2000     		movs	r0, r4
 318              	.LVL49:
 319              	.L20:
 320              		.loc 1 150 0 is_stmt 0 discriminator 1
 321 00d2 441C     		adds	r4, r0, #1
 322              	.LVL50:
 323 00d4 0F21     		movs	r1, #15
 324 00d6 1940     		ands	r1, r3
 325 00d8 8200     		lsls	r2, r0, #2
 326 00da 6E46     		mov	r6, sp
 327 00dc 9151     		str	r1, [r2, r6]
 151:Generated_Source\PSoC4/usbUart.c ****                 xVal /= 16;
 328              		.loc 1 151 0 is_stmt 1 discriminator 1
 329 00de 1B09     		lsrs	r3, r3, #4
 330              	.LVL51:
 152:Generated_Source\PSoC4/usbUart.c ****             }while(xVal);
 331              		.loc 1 152 0 discriminator 1
 332 00e0 F6D1     		bne	.L27
 153:Generated_Source\PSoC4/usbUart.c ****             if(i%2!=0)
 333              		.loc 1 153 0
 334 00e2 E307     		lsls	r3, r4, #31
 335 00e4 03D5     		bpl	.L21
 336              	.LVL52:
 154:Generated_Source\PSoC4/usbUart.c ****                 buffer[i++]=0;
 337              		.loc 1 154 0
 338 00e6 A400     		lsls	r4, r4, #2
 339 00e8 0023     		movs	r3, #0
 340 00ea A351     		str	r3, [r4, r6]
 341 00ec 841C     		adds	r4, r0, #2
 342              	.LVL53:
 343              	.L21:
 155:Generated_Source\PSoC4/usbUart.c ****             if(i<2)
 344              		.loc 1 155 0
 345 00ee 012C     		cmp	r4, #1
 346 00f0 0DD8     		bhi	.L23
 347              	.LVL54:
 156:Generated_Source\PSoC4/usbUart.c ****                 buffer[i++]=0;
ARM GAS  C:\Users\ccheney\AppData\Local\Temp\ccvHAwnp.s 			page 10


 348              		.loc 1 156 0
 349 00f2 A300     		lsls	r3, r4, #2
 350 00f4 0022     		movs	r2, #0
 351 00f6 6946     		mov	r1, sp
 352 00f8 5A50     		str	r2, [r3, r1]
 353 00fa 0134     		adds	r4, r4, #1
 354              	.LVL55:
 355 00fc 07E0     		b	.L23
 356              	.LVL56:
 357              	.L24:
 157:Generated_Source\PSoC4/usbUart.c **** 
 158:Generated_Source\PSoC4/usbUart.c ****             while(i > 0)
 159:Generated_Source\PSoC4/usbUart.c ****             {
 160:Generated_Source\PSoC4/usbUart.c ****                 i--;
 358              		.loc 1 160 0
 359 00fe 013C     		subs	r4, r4, #1
 360              	.LVL57:
 161:Generated_Source\PSoC4/usbUart.c ****                 usbUart_putChar(*usbUart_changeBase(buffer[i]));
 361              		.loc 1 161 0
 362 0100 A300     		lsls	r3, r4, #2
 363 0102 6A46     		mov	r2, sp
 364 0104 9B58     		ldr	r3, [r3, r2]
 365              	.LVL58:
 366 0106 0B4A     		ldr	r2, .L28
 367 0108 D05C     		ldrb	r0, [r2, r3]
 368 010a FFF7FEFF 		bl	UART_USB_SpiUartWriteTxData
 369              	.LVL59:
 370              	.L23:
 158:Generated_Source\PSoC4/usbUart.c ****             {
 371              		.loc 1 158 0
 372 010e 002C     		cmp	r4, #0
 373 0110 F5D1     		bne	.L24
 162:Generated_Source\PSoC4/usbUart.c ****             }
 163:Generated_Source\PSoC4/usbUart.c ****             pszFmt++;
 374              		.loc 1 163 0
 375 0112 129B     		ldr	r3, [sp, #72]
 376 0114 0133     		adds	r3, r3, #1
 377 0116 1293     		str	r3, [sp, #72]
 147:Generated_Source\PSoC4/usbUart.c ****             i = 0;
 378              		.loc 1 147 0
 379 0118 2C00     		movs	r4, r5
 380              	.LVL60:
 164:Generated_Source\PSoC4/usbUart.c ****             continue;
 381              		.loc 1 164 0
 382 011a 01E0     		b	.L8
 383              	.LVL61:
 384              	.L19:
 165:Generated_Source\PSoC4/usbUart.c ****         }
 166:Generated_Source\PSoC4/usbUart.c ****         if(pszFmt == '\0')
 385              		.loc 1 166 0
 386 011c 002A     		cmp	r2, #0
 387 011e 04D0     		beq	.L7
 388              	.LVL62:
 389              	.L8:
 104:Generated_Source\PSoC4/usbUart.c ****     {
 390              		.loc 1 104 0
 391 0120 129B     		ldr	r3, [sp, #72]
ARM GAS  C:\Users\ccheney\AppData\Local\Temp\ccvHAwnp.s 			page 11


 392 0122 1878     		ldrb	r0, [r3]
 393 0124 0028     		cmp	r0, #0
 394 0126 00D0     		beq	.LCB399
 395 0128 6FE7     		b	.L26	@long jump
 396              	.LCB399:
 397              	.L7:
 167:Generated_Source\PSoC4/usbUart.c ****         {
 168:Generated_Source\PSoC4/usbUart.c ****             break;
 169:Generated_Source\PSoC4/usbUart.c ****         }
 170:Generated_Source\PSoC4/usbUart.c ****     }
 171:Generated_Source\PSoC4/usbUart.c **** }
 398              		.loc 1 171 0
 399 012a 0DB0     		add	sp, sp, #52
 400              		@ sp needed
 401              	.LVL63:
 402 012c F0BC     		pop	{r4, r5, r6, r7}
 403 012e 08BC     		pop	{r3}
 404 0130 04B0     		add	sp, sp, #16
 405 0132 1847     		bx	r3
 406              	.L29:
 407              		.align	2
 408              	.L28:
 409 0134 00000000 		.word	.LC0
 410              		.cfi_endproc
 411              	.LFE5:
 412              		.size	usbUart_print, .-usbUart_print
 413              		.section	.text.usbUart_txTest,"ax",%progbits
 414              		.align	2
 415              		.global	usbUart_txTest
 416              		.code	16
 417              		.thumb_func
 418              		.type	usbUart_txTest, %function
 419              	usbUart_txTest:
 420              	.LFB6:
 172:Generated_Source\PSoC4/usbUart.c **** 
 173:Generated_Source\PSoC4/usbUart.c **** 
 174:Generated_Source\PSoC4/usbUart.c **** /*******************************************************************************
 175:Generated_Source\PSoC4/usbUart.c **** * Function Name: usbUart_txTest()
 176:Generated_Source\PSoC4/usbUart.c **** ****************************************************************************//**
 177:Generated_Source\PSoC4/usbUart.c **** *
 178:Generated_Source\PSoC4/usbUart.c **** * \brief Transmits the a string listing the compile date and time out over the UART.
 179:Generated_Source\PSoC4/usbUart.c **** *
 180:Generated_Source\PSoC4/usbUart.c **** * \param runs
 181:Generated_Source\PSoC4/usbUart.c **** *    The number of times to execute the test function. Zero indicates
 182:Generated_Source\PSoC4/usbUart.c **** *       infinite runs. 
 183:Generated_Source\PSoC4/usbUart.c **** *
 184:Generated_Source\PSoC4/usbUart.c **** * \return
 185:Generated_Source\PSoC4/usbUart.c **** * None
 186:Generated_Source\PSoC4/usbUart.c **** *******************************************************************************/
 187:Generated_Source\PSoC4/usbUart.c **** void usbUart_txTest(uint8 runs) {
 421              		.loc 1 187 0
 422              		.cfi_startproc
 423              		@ args = 0, pretend = 0, frame = 0
 424              		@ frame_needed = 0, uses_anonymous_args = 0
 425              	.LVL64:
 426 0000 70B5     		push	{r4, r5, r6, lr}
 427              		.cfi_def_cfa_offset 16
ARM GAS  C:\Users\ccheney\AppData\Local\Temp\ccvHAwnp.s 			page 12


 428              		.cfi_offset 4, -16
 429              		.cfi_offset 5, -12
 430              		.cfi_offset 6, -8
 431              		.cfi_offset 14, -4
 432 0002 0500     		movs	r5, r0
 433              	.LVL65:
 188:Generated_Source\PSoC4/usbUart.c ****     uint8 i = ZERO;
 434              		.loc 1 188 0
 435 0004 0022     		movs	r2, #0
 189:Generated_Source\PSoC4/usbUart.c ****     /* Run through a specified number of times */
 190:Generated_Source\PSoC4/usbUart.c ****     while( (i++ < runs) || runs == ZERO) {
 436              		.loc 1 190 0
 437 0006 13E0     		b	.L31
 438              	.LVL66:
 439              	.L32:
 191:Generated_Source\PSoC4/usbUart.c ****         /* Print the date and time the program was compiled */
 192:Generated_Source\PSoC4/usbUart.c ****         usbUart_print("Compiled: ");
 440              		.loc 1 192 0
 441 0008 0D48     		ldr	r0, .L33
 442 000a FFF7FEFF 		bl	usbUart_print
 443              	.LVL67:
 193:Generated_Source\PSoC4/usbUart.c ****         usbUart_print(__TIME__);
 444              		.loc 1 193 0
 445 000e 0D48     		ldr	r0, .L33+4
 446 0010 FFF7FEFF 		bl	usbUart_print
 447              	.LVL68:
 194:Generated_Source\PSoC4/usbUart.c ****         usbUart_print(" ");
 448              		.loc 1 194 0
 449 0014 0C48     		ldr	r0, .L33+8
 450 0016 FFF7FEFF 		bl	usbUart_print
 451              	.LVL69:
 195:Generated_Source\PSoC4/usbUart.c ****         usbUart_print(__DATE__);
 452              		.loc 1 195 0
 453 001a 0C48     		ldr	r0, .L33+12
 454 001c FFF7FEFF 		bl	usbUart_print
 455              	.LVL70:
 196:Generated_Source\PSoC4/usbUart.c ****         usbUart_print("\r\n");
 456              		.loc 1 196 0
 457 0020 0B48     		ldr	r0, .L33+16
 458 0022 FFF7FEFF 		bl	usbUart_print
 459              	.LVL71:
 197:Generated_Source\PSoC4/usbUart.c ****         /* Delay */
 198:Generated_Source\PSoC4/usbUart.c ****         MICA_delayMs(MICA_DELAY_MS_SEC_ONE);
 460              		.loc 1 198 0
 461 0026 FA20     		movs	r0, #250
 462 0028 8000     		lsls	r0, r0, #2
 463 002a FFF7FEFF 		bl	CyDelay
 464              	.LVL72:
 190:Generated_Source\PSoC4/usbUart.c ****         /* Print the date and time the program was compiled */
 465              		.loc 1 190 0
 466 002e 2200     		movs	r2, r4
 467              	.LVL73:
 468              	.L31:
 469 0030 531C     		adds	r3, r2, #1
 470 0032 DCB2     		uxtb	r4, r3
 471              	.LVL74:
 472 0034 AA42     		cmp	r2, r5
ARM GAS  C:\Users\ccheney\AppData\Local\Temp\ccvHAwnp.s 			page 13


 473 0036 E7D3     		bcc	.L32
 190:Generated_Source\PSoC4/usbUart.c ****         /* Print the date and time the program was compiled */
 474              		.loc 1 190 0 is_stmt 0 discriminator 1
 475 0038 002D     		cmp	r5, #0
 476 003a E5D0     		beq	.L32
 199:Generated_Source\PSoC4/usbUart.c ****     }
 200:Generated_Source\PSoC4/usbUart.c **** }  
 477              		.loc 1 200 0 is_stmt 1
 478              		@ sp needed
 479              	.LVL75:
 480 003c 70BD     		pop	{r4, r5, r6, pc}
 481              	.L34:
 482 003e C046     		.align	2
 483              	.L33:
 484 0040 14000000 		.word	.LC2
 485 0044 20000000 		.word	.LC4
 486 0048 2C000000 		.word	.LC6
 487 004c 30000000 		.word	.LC8
 488 0050 3C000000 		.word	.LC10
 489              		.cfi_endproc
 490              	.LFE6:
 491              		.size	usbUart_txTest, .-usbUart_txTest
 492              		.section	.text.usbUart_printHeader,"ax",%progbits
 493              		.align	2
 494              		.global	usbUart_printHeader
 495              		.code	16
 496              		.thumb_func
 497              		.type	usbUart_printHeader, %function
 498              	usbUart_printHeader:
 499              	.LFB7:
 201:Generated_Source\PSoC4/usbUart.c **** 
 202:Generated_Source\PSoC4/usbUart.c **** /*******************************************************************************
 203:Generated_Source\PSoC4/usbUart.c **** * Function Name: usbUart_printHeader()
 204:Generated_Source\PSoC4/usbUart.c **** ****************************************************************************//**
 205:Generated_Source\PSoC4/usbUart.c **** *
 206:Generated_Source\PSoC4/usbUart.c **** * \brief Displays the program header
 207:Generated_Source\PSoC4/usbUart.c **** *
 208:Generated_Source\PSoC4/usbUart.c **** * \param time
 209:Generated_Source\PSoC4/usbUart.c **** *    Pass in __TIME__ macro
 210:Generated_Source\PSoC4/usbUart.c **** *
 211:Generated_Source\PSoC4/usbUart.c **** * \param date
 212:Generated_Source\PSoC4/usbUart.c **** *    Pass in __DATE__ macro
 213:Generated_Source\PSoC4/usbUart.c **** *
 214:Generated_Source\PSoC4/usbUart.c **** * \param name
 215:Generated_Source\PSoC4/usbUart.c **** *    Name of the program to display 
 216:Generated_Source\PSoC4/usbUart.c **** *
 217:Generated_Source\PSoC4/usbUart.c **** * \return
 218:Generated_Source\PSoC4/usbUart.c **** * None
 219:Generated_Source\PSoC4/usbUart.c **** *******************************************************************************/
 220:Generated_Source\PSoC4/usbUart.c ****     void usbUart_printHeader(char* time, char* date, char * name){
 500              		.loc 1 220 0
 501              		.cfi_startproc
 502              		@ args = 0, pretend = 0, frame = 0
 503              		@ frame_needed = 0, uses_anonymous_args = 0
 504              	.LVL76:
 505 0000 70B5     		push	{r4, r5, r6, lr}
 506              		.cfi_def_cfa_offset 16
ARM GAS  C:\Users\ccheney\AppData\Local\Temp\ccvHAwnp.s 			page 14


 507              		.cfi_offset 4, -16
 508              		.cfi_offset 5, -12
 509              		.cfi_offset 6, -8
 510              		.cfi_offset 14, -4
 511 0002 0500     		movs	r5, r0
 512 0004 0C00     		movs	r4, r1
 513 0006 1600     		movs	r6, r2
 221:Generated_Source\PSoC4/usbUart.c ****     usbUart_print("**************************************\r\n* ");
 514              		.loc 1 221 0
 515 0008 0A48     		ldr	r0, .L36
 516              	.LVL77:
 517 000a FFF7FEFF 		bl	usbUart_print
 518              	.LVL78:
 222:Generated_Source\PSoC4/usbUart.c ****     usbUart_print(name);
 519              		.loc 1 222 0
 520 000e 3000     		movs	r0, r6
 521 0010 FFF7FEFF 		bl	usbUart_print
 522              	.LVL79:
 223:Generated_Source\PSoC4/usbUart.c ****     usbUart_print("\r\n*\r\n* Compiled at: ");
 523              		.loc 1 223 0
 524 0014 0848     		ldr	r0, .L36+4
 525 0016 FFF7FEFF 		bl	usbUart_print
 526              	.LVL80:
 224:Generated_Source\PSoC4/usbUart.c ****     usbUart_print(time);
 527              		.loc 1 224 0
 528 001a 2800     		movs	r0, r5
 529 001c FFF7FEFF 		bl	usbUart_print
 530              	.LVL81:
 225:Generated_Source\PSoC4/usbUart.c ****     usbUart_print(" on ");
 531              		.loc 1 225 0
 532 0020 0648     		ldr	r0, .L36+8
 533 0022 FFF7FEFF 		bl	usbUart_print
 534              	.LVL82:
 226:Generated_Source\PSoC4/usbUart.c ****     usbUart_print(date);
 535              		.loc 1 226 0
 536 0026 2000     		movs	r0, r4
 537 0028 FFF7FEFF 		bl	usbUart_print
 538              	.LVL83:
 227:Generated_Source\PSoC4/usbUart.c ****     usbUart_print("\r\n**************************************\r\n");
 539              		.loc 1 227 0
 540 002c 0448     		ldr	r0, .L36+12
 541 002e FFF7FEFF 		bl	usbUart_print
 542              	.LVL84:
 228:Generated_Source\PSoC4/usbUart.c **** }
 543              		.loc 1 228 0
 544              		@ sp needed
 545              	.LVL85:
 546              	.LVL86:
 547              	.LVL87:
 548 0032 70BD     		pop	{r4, r5, r6, pc}
 549              	.L37:
 550              		.align	2
 551              	.L36:
 552 0034 40000000 		.word	.LC12
 553 0038 6C000000 		.word	.LC14
 554 003c 84000000 		.word	.LC16
 555 0040 8C000000 		.word	.LC18
ARM GAS  C:\Users\ccheney\AppData\Local\Temp\ccvHAwnp.s 			page 15


 556              		.cfi_endproc
 557              	.LFE7:
 558              		.size	usbUart_printHeader, .-usbUart_printHeader
 559              		.section	.text.usbUart_dummyTxArray,"ax",%progbits
 560              		.align	2
 561              		.global	usbUart_dummyTxArray
 562              		.code	16
 563              		.thumb_func
 564              		.type	usbUart_dummyTxArray, %function
 565              	usbUart_dummyTxArray:
 566              	.LFB8:
 229:Generated_Source\PSoC4/usbUart.c **** /*******************************************************************************
 230:Generated_Source\PSoC4/usbUart.c **** * Function Name: usbUart_dummyTxArray()
 231:Generated_Source\PSoC4/usbUart.c **** ****************************************************************************//**
 232:Generated_Source\PSoC4/usbUart.c **** * \brief
 233:Generated_Source\PSoC4/usbUart.c **** *  Dummy tx function for supressing output. Has no effect.
 234:Generated_Source\PSoC4/usbUart.c **** *
 235:Generated_Source\PSoC4/usbUart.c **** *******************************************************************************/
 236:Generated_Source\PSoC4/usbUart.c **** void  usbUart_dummyTxArray(uint8 * array, uint16 len){
 567              		.loc 1 236 0
 568              		.cfi_startproc
 569              		@ args = 0, pretend = 0, frame = 0
 570              		@ frame_needed = 0, uses_anonymous_args = 0
 571              		@ link register save eliminated.
 572              	.LVL88:
 237:Generated_Source\PSoC4/usbUart.c ****     (void) array;
 238:Generated_Source\PSoC4/usbUart.c ****     (void) len;
 239:Generated_Source\PSoC4/usbUart.c **** }
 573              		.loc 1 239 0
 574              		@ sp needed
 575 0000 7047     		bx	lr
 576              		.cfi_endproc
 577              	.LFE8:
 578              		.size	usbUart_dummyTxArray, .-usbUart_dummyTxArray
 579 0002 C046     		.section	.rodata.str1.4,"aMS",%progbits,1
 580              		.align	2
 581              	.LC0:
 582 0000 30313233 		.ascii	"0123456789ABCDEF\000"
 582      34353637 
 582      38394142 
 582      43444546 
 582      00
 583 0011 000000   		.space	3
 584              	.LC2:
 585 0014 436F6D70 		.ascii	"Compiled: \000"
 585      696C6564 
 585      3A2000
 586 001f 00       		.space	1
 587              	.LC4:
 588 0020 30303A34 		.ascii	"00:44:31\000"
 588      343A3331 
 588      00
 589 0029 000000   		.space	3
 590              	.LC6:
 591 002c 2000     		.ascii	" \000"
 592 002e 0000     		.space	2
 593              	.LC8:
ARM GAS  C:\Users\ccheney\AppData\Local\Temp\ccvHAwnp.s 			page 16


 594 0030 4F637420 		.ascii	"Oct  4 2018\000"
 594      20342032 
 594      30313800 
 595              	.LC10:
 596 003c 0D0A00   		.ascii	"\015\012\000"
 597 003f 00       		.space	1
 598              	.LC12:
 599 0040 2A2A2A2A 		.ascii	"**************************************\015\012* \000"
 599      2A2A2A2A 
 599      2A2A2A2A 
 599      2A2A2A2A 
 599      2A2A2A2A 
 600 006b 00       		.space	1
 601              	.LC14:
 602 006c 0D0A2A0D 		.ascii	"\015\012*\015\012* Compiled at: \000"
 602      0A2A2043 
 602      6F6D7069 
 602      6C656420 
 602      61743A20 
 603 0081 000000   		.space	3
 604              	.LC16:
 605 0084 206F6E20 		.ascii	" on \000"
 605      00
 606 0089 000000   		.space	3
 607              	.LC18:
 608 008c 0D0A2A2A 		.ascii	"\015\012**************************************\015\012"
 608      2A2A2A2A 
 608      2A2A2A2A 
 608      2A2A2A2A 
 608      2A2A2A2A 
 609 00b6 00       		.ascii	"\000"
 610              		.text
 611              	.Letext0:
 612              		.file 2 "Generated_Source\\PSoC4\\cytypes.h"
 613              		.file 3 "Generated_Source\\PSoC4\\UART_USB_SPI_UART.h"
 614              		.file 4 "Generated_Source\\PSoC4/CyLib.h"